
StepCounter.elf:     file format elf32-littlearm

Sections:
Idx Name          Size      VMA       LMA       File off  Algn
  0 .isr_vector   000000c0  08000000  08000000  00001000  2**0
                  CONTENTS, ALLOC, LOAD, READONLY, DATA
  1 .text         00005258  080000c0  080000c0  000010c0  2**2
                  CONTENTS, ALLOC, LOAD, READONLY, CODE
  2 .rodata       000008dc  08005318  08005318  00006318  2**2
                  CONTENTS, ALLOC, LOAD, READONLY, DATA
  3 .ARM.extab    00000000  08005bf4  08005bf4  000070c4  2**0
                  CONTENTS
  4 .ARM          00000000  08005bf4  08005bf4  000070c4  2**0
                  CONTENTS
  5 .preinit_array 00000000  08005bf4  08005bf4  000070c4  2**0
                  CONTENTS, ALLOC, LOAD, DATA
  6 .init_array   00000004  08005bf4  08005bf4  00006bf4  2**2
                  CONTENTS, ALLOC, LOAD, READONLY, DATA
  7 .fini_array   00000004  08005bf8  08005bf8  00006bf8  2**2
                  CONTENTS, ALLOC, LOAD, READONLY, DATA
  8 .data         000000c4  20000000  08005bfc  00007000  2**2
                  CONTENTS, ALLOC, LOAD, DATA
  9 .bss          000008a8  200000c4  08005cc0  000070c4  2**2
                  ALLOC
 10 ._user_heap_stack 00000604  2000096c  08005cc0  0000796c  2**0
                  ALLOC
 11 .ARM.attributes 00000028  00000000  00000000  000070c4  2**0
                  CONTENTS, READONLY
 12 .comment      00000043  00000000  00000000  000070ec  2**0
                  CONTENTS, READONLY
 13 .debug_frame  00000584  00000000  00000000  00007130  2**2
                  CONTENTS, READONLY, DEBUGGING, OCTETS

Disassembly of section .text:

080000c0 <__do_global_dtors_aux>:
 80000c0:	b510      	push	{r4, lr}
 80000c2:	4c06      	ldr	r4, [pc, #24]	@ (80000dc <__do_global_dtors_aux+0x1c>)
 80000c4:	7823      	ldrb	r3, [r4, #0]
 80000c6:	2b00      	cmp	r3, #0
 80000c8:	d107      	bne.n	80000da <__do_global_dtors_aux+0x1a>
 80000ca:	4b05      	ldr	r3, [pc, #20]	@ (80000e0 <__do_global_dtors_aux+0x20>)
 80000cc:	2b00      	cmp	r3, #0
 80000ce:	d002      	beq.n	80000d6 <__do_global_dtors_aux+0x16>
 80000d0:	4804      	ldr	r0, [pc, #16]	@ (80000e4 <__do_global_dtors_aux+0x24>)
 80000d2:	e000      	b.n	80000d6 <__do_global_dtors_aux+0x16>
 80000d4:	bf00      	nop
 80000d6:	2301      	movs	r3, #1
 80000d8:	7023      	strb	r3, [r4, #0]
 80000da:	bd10      	pop	{r4, pc}
 80000dc:	200000c4 	.word	0x200000c4
 80000e0:	00000000 	.word	0x00000000
 80000e4:	08005300 	.word	0x08005300

080000e8 <frame_dummy>:
 80000e8:	4b04      	ldr	r3, [pc, #16]	@ (80000fc <frame_dummy+0x14>)
 80000ea:	b510      	push	{r4, lr}
 80000ec:	2b00      	cmp	r3, #0
 80000ee:	d003      	beq.n	80000f8 <frame_dummy+0x10>
 80000f0:	4903      	ldr	r1, [pc, #12]	@ (8000100 <frame_dummy+0x18>)
 80000f2:	4804      	ldr	r0, [pc, #16]	@ (8000104 <frame_dummy+0x1c>)
 80000f4:	e000      	b.n	80000f8 <frame_dummy+0x10>
 80000f6:	bf00      	nop
 80000f8:	bd10      	pop	{r4, pc}
 80000fa:	46c0      	nop			@ (mov r8, r8)
 80000fc:	00000000 	.word	0x00000000
 8000100:	200000c8 	.word	0x200000c8
 8000104:	08005300 	.word	0x08005300

08000108 <__gnu_thumb1_case_uqi>:
 8000108:	b402      	push	{r1}
 800010a:	4671      	mov	r1, lr
 800010c:	0849      	lsrs	r1, r1, #1
 800010e:	0049      	lsls	r1, r1, #1
 8000110:	5c09      	ldrb	r1, [r1, r0]
 8000112:	0049      	lsls	r1, r1, #1
 8000114:	448e      	add	lr, r1
 8000116:	bc02      	pop	{r1}
 8000118:	4770      	bx	lr
 800011a:	46c0      	nop			@ (mov r8, r8)

0800011c <__gnu_thumb1_case_shi>:
 800011c:	b403      	push	{r0, r1}
 800011e:	4671      	mov	r1, lr
 8000120:	0849      	lsrs	r1, r1, #1
 8000122:	0040      	lsls	r0, r0, #1
 8000124:	0049      	lsls	r1, r1, #1
 8000126:	5e09      	ldrsh	r1, [r1, r0]
 8000128:	0049      	lsls	r1, r1, #1
 800012a:	448e      	add	lr, r1
 800012c:	bc03      	pop	{r0, r1}
 800012e:	4770      	bx	lr

08000130 <__udivsi3>:
 8000130:	2200      	movs	r2, #0
 8000132:	0843      	lsrs	r3, r0, #1
 8000134:	428b      	cmp	r3, r1
 8000136:	d374      	bcc.n	8000222 <__udivsi3+0xf2>
 8000138:	0903      	lsrs	r3, r0, #4
 800013a:	428b      	cmp	r3, r1
 800013c:	d35f      	bcc.n	80001fe <__udivsi3+0xce>
 800013e:	0a03      	lsrs	r3, r0, #8
 8000140:	428b      	cmp	r3, r1
 8000142:	d344      	bcc.n	80001ce <__udivsi3+0x9e>
 8000144:	0b03      	lsrs	r3, r0, #12
 8000146:	428b      	cmp	r3, r1
 8000148:	d328      	bcc.n	800019c <__udivsi3+0x6c>
 800014a:	0c03      	lsrs	r3, r0, #16
 800014c:	428b      	cmp	r3, r1
 800014e:	d30d      	bcc.n	800016c <__udivsi3+0x3c>
 8000150:	22ff      	movs	r2, #255	@ 0xff
 8000152:	0209      	lsls	r1, r1, #8
 8000154:	ba12      	rev	r2, r2
 8000156:	0c03      	lsrs	r3, r0, #16
 8000158:	428b      	cmp	r3, r1
 800015a:	d302      	bcc.n	8000162 <__udivsi3+0x32>
 800015c:	1212      	asrs	r2, r2, #8
 800015e:	0209      	lsls	r1, r1, #8
 8000160:	d065      	beq.n	800022e <__udivsi3+0xfe>
 8000162:	0b03      	lsrs	r3, r0, #12
 8000164:	428b      	cmp	r3, r1
 8000166:	d319      	bcc.n	800019c <__udivsi3+0x6c>
 8000168:	e000      	b.n	800016c <__udivsi3+0x3c>
 800016a:	0a09      	lsrs	r1, r1, #8
 800016c:	0bc3      	lsrs	r3, r0, #15
 800016e:	428b      	cmp	r3, r1
 8000170:	d301      	bcc.n	8000176 <__udivsi3+0x46>
 8000172:	03cb      	lsls	r3, r1, #15
 8000174:	1ac0      	subs	r0, r0, r3
 8000176:	4152      	adcs	r2, r2
 8000178:	0b83      	lsrs	r3, r0, #14
 800017a:	428b      	cmp	r3, r1
 800017c:	d301      	bcc.n	8000182 <__udivsi3+0x52>
 800017e:	038b      	lsls	r3, r1, #14
 8000180:	1ac0      	subs	r0, r0, r3
 8000182:	4152      	adcs	r2, r2
 8000184:	0b43      	lsrs	r3, r0, #13
 8000186:	428b      	cmp	r3, r1
 8000188:	d301      	bcc.n	800018e <__udivsi3+0x5e>
 800018a:	034b      	lsls	r3, r1, #13
 800018c:	1ac0      	subs	r0, r0, r3
 800018e:	4152      	adcs	r2, r2
 8000190:	0b03      	lsrs	r3, r0, #12
 8000192:	428b      	cmp	r3, r1
 8000194:	d301      	bcc.n	800019a <__udivsi3+0x6a>
 8000196:	030b      	lsls	r3, r1, #12
 8000198:	1ac0      	subs	r0, r0, r3
 800019a:	4152      	adcs	r2, r2
 800019c:	0ac3      	lsrs	r3, r0, #11
 800019e:	428b      	cmp	r3, r1
 80001a0:	d301      	bcc.n	80001a6 <__udivsi3+0x76>
 80001a2:	02cb      	lsls	r3, r1, #11
 80001a4:	1ac0      	subs	r0, r0, r3
 80001a6:	4152      	adcs	r2, r2
 80001a8:	0a83      	lsrs	r3, r0, #10
 80001aa:	428b      	cmp	r3, r1
 80001ac:	d301      	bcc.n	80001b2 <__udivsi3+0x82>
 80001ae:	028b      	lsls	r3, r1, #10
 80001b0:	1ac0      	subs	r0, r0, r3
 80001b2:	4152      	adcs	r2, r2
 80001b4:	0a43      	lsrs	r3, r0, #9
 80001b6:	428b      	cmp	r3, r1
 80001b8:	d301      	bcc.n	80001be <__udivsi3+0x8e>
 80001ba:	024b      	lsls	r3, r1, #9
 80001bc:	1ac0      	subs	r0, r0, r3
 80001be:	4152      	adcs	r2, r2
 80001c0:	0a03      	lsrs	r3, r0, #8
 80001c2:	428b      	cmp	r3, r1
 80001c4:	d301      	bcc.n	80001ca <__udivsi3+0x9a>
 80001c6:	020b      	lsls	r3, r1, #8
 80001c8:	1ac0      	subs	r0, r0, r3
 80001ca:	4152      	adcs	r2, r2
 80001cc:	d2cd      	bcs.n	800016a <__udivsi3+0x3a>
 80001ce:	09c3      	lsrs	r3, r0, #7
 80001d0:	428b      	cmp	r3, r1
 80001d2:	d301      	bcc.n	80001d8 <__udivsi3+0xa8>
 80001d4:	01cb      	lsls	r3, r1, #7
 80001d6:	1ac0      	subs	r0, r0, r3
 80001d8:	4152      	adcs	r2, r2
 80001da:	0983      	lsrs	r3, r0, #6
 80001dc:	428b      	cmp	r3, r1
 80001de:	d301      	bcc.n	80001e4 <__udivsi3+0xb4>
 80001e0:	018b      	lsls	r3, r1, #6
 80001e2:	1ac0      	subs	r0, r0, r3
 80001e4:	4152      	adcs	r2, r2
 80001e6:	0943      	lsrs	r3, r0, #5
 80001e8:	428b      	cmp	r3, r1
 80001ea:	d301      	bcc.n	80001f0 <__udivsi3+0xc0>
 80001ec:	014b      	lsls	r3, r1, #5
 80001ee:	1ac0      	subs	r0, r0, r3
 80001f0:	4152      	adcs	r2, r2
 80001f2:	0903      	lsrs	r3, r0, #4
 80001f4:	428b      	cmp	r3, r1
 80001f6:	d301      	bcc.n	80001fc <__udivsi3+0xcc>
 80001f8:	010b      	lsls	r3, r1, #4
 80001fa:	1ac0      	subs	r0, r0, r3
 80001fc:	4152      	adcs	r2, r2
 80001fe:	08c3      	lsrs	r3, r0, #3
 8000200:	428b      	cmp	r3, r1
 8000202:	d301      	bcc.n	8000208 <__udivsi3+0xd8>
 8000204:	00cb      	lsls	r3, r1, #3
 8000206:	1ac0      	subs	r0, r0, r3
 8000208:	4152      	adcs	r2, r2
 800020a:	0883      	lsrs	r3, r0, #2
 800020c:	428b      	cmp	r3, r1
 800020e:	d301      	bcc.n	8000214 <__udivsi3+0xe4>
 8000210:	008b      	lsls	r3, r1, #2
 8000212:	1ac0      	subs	r0, r0, r3
 8000214:	4152      	adcs	r2, r2
 8000216:	0843      	lsrs	r3, r0, #1
 8000218:	428b      	cmp	r3, r1
 800021a:	d301      	bcc.n	8000220 <__udivsi3+0xf0>
 800021c:	004b      	lsls	r3, r1, #1
 800021e:	1ac0      	subs	r0, r0, r3
 8000220:	4152      	adcs	r2, r2
 8000222:	1a41      	subs	r1, r0, r1
 8000224:	d200      	bcs.n	8000228 <__udivsi3+0xf8>
 8000226:	4601      	mov	r1, r0
 8000228:	4152      	adcs	r2, r2
 800022a:	4610      	mov	r0, r2
 800022c:	4770      	bx	lr
 800022e:	e7ff      	b.n	8000230 <__udivsi3+0x100>
 8000230:	b501      	push	{r0, lr}
 8000232:	2000      	movs	r0, #0
 8000234:	f000 f8f0 	bl	8000418 <__aeabi_idiv0>
 8000238:	bd02      	pop	{r1, pc}
 800023a:	46c0      	nop			@ (mov r8, r8)

0800023c <__aeabi_uidivmod>:
 800023c:	2900      	cmp	r1, #0
 800023e:	d0f7      	beq.n	8000230 <__udivsi3+0x100>
 8000240:	e776      	b.n	8000130 <__udivsi3>
 8000242:	4770      	bx	lr

08000244 <__divsi3>:
 8000244:	4603      	mov	r3, r0
 8000246:	430b      	orrs	r3, r1
 8000248:	d47f      	bmi.n	800034a <__divsi3+0x106>
 800024a:	2200      	movs	r2, #0
 800024c:	0843      	lsrs	r3, r0, #1
 800024e:	428b      	cmp	r3, r1
 8000250:	d374      	bcc.n	800033c <__divsi3+0xf8>
 8000252:	0903      	lsrs	r3, r0, #4
 8000254:	428b      	cmp	r3, r1
 8000256:	d35f      	bcc.n	8000318 <__divsi3+0xd4>
 8000258:	0a03      	lsrs	r3, r0, #8
 800025a:	428b      	cmp	r3, r1
 800025c:	d344      	bcc.n	80002e8 <__divsi3+0xa4>
 800025e:	0b03      	lsrs	r3, r0, #12
 8000260:	428b      	cmp	r3, r1
 8000262:	d328      	bcc.n	80002b6 <__divsi3+0x72>
 8000264:	0c03      	lsrs	r3, r0, #16
 8000266:	428b      	cmp	r3, r1
 8000268:	d30d      	bcc.n	8000286 <__divsi3+0x42>
 800026a:	22ff      	movs	r2, #255	@ 0xff
 800026c:	0209      	lsls	r1, r1, #8
 800026e:	ba12      	rev	r2, r2
 8000270:	0c03      	lsrs	r3, r0, #16
 8000272:	428b      	cmp	r3, r1
 8000274:	d302      	bcc.n	800027c <__divsi3+0x38>
 8000276:	1212      	asrs	r2, r2, #8
 8000278:	0209      	lsls	r1, r1, #8
 800027a:	d065      	beq.n	8000348 <__divsi3+0x104>
 800027c:	0b03      	lsrs	r3, r0, #12
 800027e:	428b      	cmp	r3, r1
 8000280:	d319      	bcc.n	80002b6 <__divsi3+0x72>
 8000282:	e000      	b.n	8000286 <__divsi3+0x42>
 8000284:	0a09      	lsrs	r1, r1, #8
 8000286:	0bc3      	lsrs	r3, r0, #15
 8000288:	428b      	cmp	r3, r1
 800028a:	d301      	bcc.n	8000290 <__divsi3+0x4c>
 800028c:	03cb      	lsls	r3, r1, #15
 800028e:	1ac0      	subs	r0, r0, r3
 8000290:	4152      	adcs	r2, r2
 8000292:	0b83      	lsrs	r3, r0, #14
 8000294:	428b      	cmp	r3, r1
 8000296:	d301      	bcc.n	800029c <__divsi3+0x58>
 8000298:	038b      	lsls	r3, r1, #14
 800029a:	1ac0      	subs	r0, r0, r3
 800029c:	4152      	adcs	r2, r2
 800029e:	0b43      	lsrs	r3, r0, #13
 80002a0:	428b      	cmp	r3, r1
 80002a2:	d301      	bcc.n	80002a8 <__divsi3+0x64>
 80002a4:	034b      	lsls	r3, r1, #13
 80002a6:	1ac0      	subs	r0, r0, r3
 80002a8:	4152      	adcs	r2, r2
 80002aa:	0b03      	lsrs	r3, r0, #12
 80002ac:	428b      	cmp	r3, r1
 80002ae:	d301      	bcc.n	80002b4 <__divsi3+0x70>
 80002b0:	030b      	lsls	r3, r1, #12
 80002b2:	1ac0      	subs	r0, r0, r3
 80002b4:	4152      	adcs	r2, r2
 80002b6:	0ac3      	lsrs	r3, r0, #11
 80002b8:	428b      	cmp	r3, r1
 80002ba:	d301      	bcc.n	80002c0 <__divsi3+0x7c>
 80002bc:	02cb      	lsls	r3, r1, #11
 80002be:	1ac0      	subs	r0, r0, r3
 80002c0:	4152      	adcs	r2, r2
 80002c2:	0a83      	lsrs	r3, r0, #10
 80002c4:	428b      	cmp	r3, r1
 80002c6:	d301      	bcc.n	80002cc <__divsi3+0x88>
 80002c8:	028b      	lsls	r3, r1, #10
 80002ca:	1ac0      	subs	r0, r0, r3
 80002cc:	4152      	adcs	r2, r2
 80002ce:	0a43      	lsrs	r3, r0, #9
 80002d0:	428b      	cmp	r3, r1
 80002d2:	d301      	bcc.n	80002d8 <__divsi3+0x94>
 80002d4:	024b      	lsls	r3, r1, #9
 80002d6:	1ac0      	subs	r0, r0, r3
 80002d8:	4152      	adcs	r2, r2
 80002da:	0a03      	lsrs	r3, r0, #8
 80002dc:	428b      	cmp	r3, r1
 80002de:	d301      	bcc.n	80002e4 <__divsi3+0xa0>
 80002e0:	020b      	lsls	r3, r1, #8
 80002e2:	1ac0      	subs	r0, r0, r3
 80002e4:	4152      	adcs	r2, r2
 80002e6:	d2cd      	bcs.n	8000284 <__divsi3+0x40>
 80002e8:	09c3      	lsrs	r3, r0, #7
 80002ea:	428b      	cmp	r3, r1
 80002ec:	d301      	bcc.n	80002f2 <__divsi3+0xae>
 80002ee:	01cb      	lsls	r3, r1, #7
 80002f0:	1ac0      	subs	r0, r0, r3
 80002f2:	4152      	adcs	r2, r2
 80002f4:	0983      	lsrs	r3, r0, #6
 80002f6:	428b      	cmp	r3, r1
 80002f8:	d301      	bcc.n	80002fe <__divsi3+0xba>
 80002fa:	018b      	lsls	r3, r1, #6
 80002fc:	1ac0      	subs	r0, r0, r3
 80002fe:	4152      	adcs	r2, r2
 8000300:	0943      	lsrs	r3, r0, #5
 8000302:	428b      	cmp	r3, r1
 8000304:	d301      	bcc.n	800030a <__divsi3+0xc6>
 8000306:	014b      	lsls	r3, r1, #5
 8000308:	1ac0      	subs	r0, r0, r3
 800030a:	4152      	adcs	r2, r2
 800030c:	0903      	lsrs	r3, r0, #4
 800030e:	428b      	cmp	r3, r1
 8000310:	d301      	bcc.n	8000316 <__divsi3+0xd2>
 8000312:	010b      	lsls	r3, r1, #4
 8000314:	1ac0      	subs	r0, r0, r3
 8000316:	4152      	adcs	r2, r2
 8000318:	08c3      	lsrs	r3, r0, #3
 800031a:	428b      	cmp	r3, r1
 800031c:	d301      	bcc.n	8000322 <__divsi3+0xde>
 800031e:	00cb      	lsls	r3, r1, #3
 8000320:	1ac0      	subs	r0, r0, r3
 8000322:	4152      	adcs	r2, r2
 8000324:	0883      	lsrs	r3, r0, #2
 8000326:	428b      	cmp	r3, r1
 8000328:	d301      	bcc.n	800032e <__divsi3+0xea>
 800032a:	008b      	lsls	r3, r1, #2
 800032c:	1ac0      	subs	r0, r0, r3
 800032e:	4152      	adcs	r2, r2
 8000330:	0843      	lsrs	r3, r0, #1
 8000332:	428b      	cmp	r3, r1
 8000334:	d301      	bcc.n	800033a <__divsi3+0xf6>
 8000336:	004b      	lsls	r3, r1, #1
 8000338:	1ac0      	subs	r0, r0, r3
 800033a:	4152      	adcs	r2, r2
 800033c:	1a41      	subs	r1, r0, r1
 800033e:	d200      	bcs.n	8000342 <__divsi3+0xfe>
 8000340:	4601      	mov	r1, r0
 8000342:	4152      	adcs	r2, r2
 8000344:	4610      	mov	r0, r2
 8000346:	4770      	bx	lr
 8000348:	e05d      	b.n	8000406 <__divsi3+0x1c2>
 800034a:	0fca      	lsrs	r2, r1, #31
 800034c:	d000      	beq.n	8000350 <__divsi3+0x10c>
 800034e:	4249      	negs	r1, r1
 8000350:	1003      	asrs	r3, r0, #32
 8000352:	d300      	bcc.n	8000356 <__divsi3+0x112>
 8000354:	4240      	negs	r0, r0
 8000356:	4053      	eors	r3, r2
 8000358:	2200      	movs	r2, #0
 800035a:	469c      	mov	ip, r3
 800035c:	0903      	lsrs	r3, r0, #4
 800035e:	428b      	cmp	r3, r1
 8000360:	d32d      	bcc.n	80003be <__divsi3+0x17a>
 8000362:	0a03      	lsrs	r3, r0, #8
 8000364:	428b      	cmp	r3, r1
 8000366:	d312      	bcc.n	800038e <__divsi3+0x14a>
 8000368:	22fc      	movs	r2, #252	@ 0xfc
 800036a:	0189      	lsls	r1, r1, #6
 800036c:	ba12      	rev	r2, r2
 800036e:	0a03      	lsrs	r3, r0, #8
 8000370:	428b      	cmp	r3, r1
 8000372:	d30c      	bcc.n	800038e <__divsi3+0x14a>
 8000374:	0189      	lsls	r1, r1, #6
 8000376:	1192      	asrs	r2, r2, #6
 8000378:	428b      	cmp	r3, r1
 800037a:	d308      	bcc.n	800038e <__divsi3+0x14a>
 800037c:	0189      	lsls	r1, r1, #6
 800037e:	1192      	asrs	r2, r2, #6
 8000380:	428b      	cmp	r3, r1
 8000382:	d304      	bcc.n	800038e <__divsi3+0x14a>
 8000384:	0189      	lsls	r1, r1, #6
 8000386:	d03a      	beq.n	80003fe <__divsi3+0x1ba>
 8000388:	1192      	asrs	r2, r2, #6
 800038a:	e000      	b.n	800038e <__divsi3+0x14a>
 800038c:	0989      	lsrs	r1, r1, #6
 800038e:	09c3      	lsrs	r3, r0, #7
 8000390:	428b      	cmp	r3, r1
 8000392:	d301      	bcc.n	8000398 <__divsi3+0x154>
 8000394:	01cb      	lsls	r3, r1, #7
 8000396:	1ac0      	subs	r0, r0, r3
 8000398:	4152      	adcs	r2, r2
 800039a:	0983      	lsrs	r3, r0, #6
 800039c:	428b      	cmp	r3, r1
 800039e:	d301      	bcc.n	80003a4 <__divsi3+0x160>
 80003a0:	018b      	lsls	r3, r1, #6
 80003a2:	1ac0      	subs	r0, r0, r3
 80003a4:	4152      	adcs	r2, r2
 80003a6:	0943      	lsrs	r3, r0, #5
 80003a8:	428b      	cmp	r3, r1
 80003aa:	d301      	bcc.n	80003b0 <__divsi3+0x16c>
 80003ac:	014b      	lsls	r3, r1, #5
 80003ae:	1ac0      	subs	r0, r0, r3
 80003b0:	4152      	adcs	r2, r2
 80003b2:	0903      	lsrs	r3, r0, #4
 80003b4:	428b      	cmp	r3, r1
 80003b6:	d301      	bcc.n	80003bc <__divsi3+0x178>
 80003b8:	010b      	lsls	r3, r1, #4
 80003ba:	1ac0      	subs	r0, r0, r3
 80003bc:	4152      	adcs	r2, r2
 80003be:	08c3      	lsrs	r3, r0, #3
 80003c0:	428b      	cmp	r3, r1
 80003c2:	d301      	bcc.n	80003c8 <__divsi3+0x184>
 80003c4:	00cb      	lsls	r3, r1, #3
 80003c6:	1ac0      	subs	r0, r0, r3
 80003c8:	4152      	adcs	r2, r2
 80003ca:	0883      	lsrs	r3, r0, #2
 80003cc:	428b      	cmp	r3, r1
 80003ce:	d301      	bcc.n	80003d4 <__divsi3+0x190>
 80003d0:	008b      	lsls	r3, r1, #2
 80003d2:	1ac0      	subs	r0, r0, r3
 80003d4:	4152      	adcs	r2, r2
 80003d6:	d2d9      	bcs.n	800038c <__divsi3+0x148>
 80003d8:	0843      	lsrs	r3, r0, #1
 80003da:	428b      	cmp	r3, r1
 80003dc:	d301      	bcc.n	80003e2 <__divsi3+0x19e>
 80003de:	004b      	lsls	r3, r1, #1
 80003e0:	1ac0      	subs	r0, r0, r3
 80003e2:	4152      	adcs	r2, r2
 80003e4:	1a41      	subs	r1, r0, r1
 80003e6:	d200      	bcs.n	80003ea <__divsi3+0x1a6>
 80003e8:	4601      	mov	r1, r0
 80003ea:	4663      	mov	r3, ip
 80003ec:	4152      	adcs	r2, r2
 80003ee:	105b      	asrs	r3, r3, #1
 80003f0:	4610      	mov	r0, r2
 80003f2:	d301      	bcc.n	80003f8 <__divsi3+0x1b4>
 80003f4:	4240      	negs	r0, r0
 80003f6:	2b00      	cmp	r3, #0
 80003f8:	d500      	bpl.n	80003fc <__divsi3+0x1b8>
 80003fa:	4249      	negs	r1, r1
 80003fc:	4770      	bx	lr
 80003fe:	4663      	mov	r3, ip
 8000400:	105b      	asrs	r3, r3, #1
 8000402:	d300      	bcc.n	8000406 <__divsi3+0x1c2>
 8000404:	4240      	negs	r0, r0
 8000406:	b501      	push	{r0, lr}
 8000408:	2000      	movs	r0, #0
 800040a:	f000 f805 	bl	8000418 <__aeabi_idiv0>
 800040e:	bd02      	pop	{r1, pc}

08000410 <__aeabi_idivmod>:
 8000410:	2900      	cmp	r1, #0
 8000412:	d0f8      	beq.n	8000406 <__divsi3+0x1c2>
 8000414:	e716      	b.n	8000244 <__divsi3>
 8000416:	4770      	bx	lr

08000418 <__aeabi_idiv0>:
 8000418:	4770      	bx	lr
 800041a:	46c0      	nop			@ (mov r8, r8)

0800041c <MX_ADC1_Init>:
 800041c:	b51f      	push	{r0, r1, r2, r3, r4, lr}
 800041e:	220c      	movs	r2, #12
 8000420:	2100      	movs	r1, #0
 8000422:	a801      	add	r0, sp, #4
 8000424:	f004 faee 	bl	8004a04 <memset>
 8000428:	4c23      	ldr	r4, [pc, #140]	@ (80004b8 <MX_ADC1_Init+0x9c>)
 800042a:	4b24      	ldr	r3, [pc, #144]	@ (80004bc <MX_ADC1_Init+0xa0>)
 800042c:	2280      	movs	r2, #128	@ 0x80
 800042e:	6023      	str	r3, [r4, #0]
 8000430:	23c0      	movs	r3, #192	@ 0xc0
 8000432:	0612      	lsls	r2, r2, #24
 8000434:	061b      	lsls	r3, r3, #24
 8000436:	6122      	str	r2, [r4, #16]
 8000438:	2204      	movs	r2, #4
 800043a:	6063      	str	r3, [r4, #4]
 800043c:	2300      	movs	r3, #0
 800043e:	6162      	str	r2, [r4, #20]
 8000440:	1c62      	adds	r2, r4, #1
 8000442:	77d3      	strb	r3, [r2, #31]
 8000444:	0022      	movs	r2, r4
 8000446:	2101      	movs	r1, #1
 8000448:	322c      	adds	r2, #44	@ 0x2c
 800044a:	7011      	strb	r1, [r2, #0]
 800044c:	0022      	movs	r2, r4
 800044e:	0020      	movs	r0, r4
 8000450:	323c      	adds	r2, #60	@ 0x3c
 8000452:	60a3      	str	r3, [r4, #8]
 8000454:	60e3      	str	r3, [r4, #12]
 8000456:	8323      	strh	r3, [r4, #24]
 8000458:	76a3      	strb	r3, [r4, #26]
 800045a:	61e3      	str	r3, [r4, #28]
 800045c:	6263      	str	r3, [r4, #36]	@ 0x24
 800045e:	62a3      	str	r3, [r4, #40]	@ 0x28
 8000460:	6323      	str	r3, [r4, #48]	@ 0x30
 8000462:	6363      	str	r3, [r4, #52]	@ 0x34
 8000464:	7013      	strb	r3, [r2, #0]
 8000466:	64e3      	str	r3, [r4, #76]	@ 0x4c
 8000468:	f001 fa04 	bl	8001874 <HAL_ADC_Init>
 800046c:	2800      	cmp	r0, #0
 800046e:	d001      	beq.n	8000474 <MX_ADC1_Init+0x58>
 8000470:	f000 fbbb 	bl	8000bea <Error_Handler>
 8000474:	4b12      	ldr	r3, [pc, #72]	@ (80004c0 <MX_ADC1_Init+0xa4>)
 8000476:	0020      	movs	r0, r4
 8000478:	9301      	str	r3, [sp, #4]
 800047a:	2301      	movs	r3, #1
 800047c:	a901      	add	r1, sp, #4
 800047e:	9302      	str	r3, [sp, #8]
 8000480:	f001 fb5e 	bl	8001b40 <HAL_ADC_ConfigChannel>
 8000484:	2800      	cmp	r0, #0
 8000486:	d001      	beq.n	800048c <MX_ADC1_Init+0x70>
 8000488:	f000 fbaf 	bl	8000bea <Error_Handler>
 800048c:	4b0d      	ldr	r3, [pc, #52]	@ (80004c4 <MX_ADC1_Init+0xa8>)
 800048e:	0020      	movs	r0, r4
 8000490:	a901      	add	r1, sp, #4
 8000492:	9301      	str	r3, [sp, #4]
 8000494:	f001 fb54 	bl	8001b40 <HAL_ADC_ConfigChannel>
 8000498:	2800      	cmp	r0, #0
 800049a:	d001      	beq.n	80004a0 <MX_ADC1_Init+0x84>
 800049c:	f000 fba5 	bl	8000bea <Error_Handler>
 80004a0:	4b09      	ldr	r3, [pc, #36]	@ (80004c8 <MX_ADC1_Init+0xac>)
 80004a2:	0020      	movs	r0, r4
 80004a4:	a901      	add	r1, sp, #4
 80004a6:	9301      	str	r3, [sp, #4]
 80004a8:	f001 fb4a 	bl	8001b40 <HAL_ADC_ConfigChannel>
 80004ac:	2800      	cmp	r0, #0
 80004ae:	d001      	beq.n	80004b4 <MX_ADC1_Init+0x98>
 80004b0:	f000 fb9b 	bl	8000bea <Error_Handler>
 80004b4:	bd1f      	pop	{r0, r1, r2, r3, r4, pc}
 80004b6:	46c0      	nop			@ (mov r8, r8)
 80004b8:	2000013c 	.word	0x2000013c
 80004bc:	40012400 	.word	0x40012400
 80004c0:	04000002 	.word	0x04000002
 80004c4:	2c000800 	.word	0x2c000800
 80004c8:	30001000 	.word	0x30001000

080004cc <HAL_ADC_MspInit>:
 80004cc:	b570      	push	{r4, r5, r6, lr}
 80004ce:	2420      	movs	r4, #32
 80004d0:	0005      	movs	r5, r0
 80004d2:	b090      	sub	sp, #64	@ 0x40
 80004d4:	2214      	movs	r2, #20
 80004d6:	2100      	movs	r1, #0
 80004d8:	a803      	add	r0, sp, #12
 80004da:	f004 fa93 	bl	8004a04 <memset>
 80004de:	0022      	movs	r2, r4
 80004e0:	2100      	movs	r1, #0
 80004e2:	a808      	add	r0, sp, #32
 80004e4:	f004 fa8e 	bl	8004a04 <memset>
 80004e8:	4b2a      	ldr	r3, [pc, #168]	@ (8000594 <HAL_ADC_MspInit+0xc8>)
 80004ea:	682a      	ldr	r2, [r5, #0]
 80004ec:	429a      	cmp	r2, r3
 80004ee:	d14e      	bne.n	800058e <HAL_ADC_MspInit+0xc2>
 80004f0:	a808      	add	r0, sp, #32
 80004f2:	9408      	str	r4, [sp, #32]
 80004f4:	f003 fb5c 	bl	8003bb0 <HAL_RCCEx_PeriphCLKConfig>
 80004f8:	2800      	cmp	r0, #0
 80004fa:	d001      	beq.n	8000500 <HAL_ADC_MspInit+0x34>
 80004fc:	f000 fb75 	bl	8000bea <Error_Handler>
 8000500:	2180      	movs	r1, #128	@ 0x80
 8000502:	4b25      	ldr	r3, [pc, #148]	@ (8000598 <HAL_ADC_MspInit+0xcc>)
 8000504:	0349      	lsls	r1, r1, #13
 8000506:	6c1a      	ldr	r2, [r3, #64]	@ 0x40
 8000508:	20a0      	movs	r0, #160	@ 0xa0
 800050a:	430a      	orrs	r2, r1
 800050c:	641a      	str	r2, [r3, #64]	@ 0x40
 800050e:	6c1a      	ldr	r2, [r3, #64]	@ 0x40
 8000510:	2600      	movs	r6, #0
 8000512:	400a      	ands	r2, r1
 8000514:	2101      	movs	r1, #1
 8000516:	9200      	str	r2, [sp, #0]
 8000518:	9a00      	ldr	r2, [sp, #0]
 800051a:	6b5a      	ldr	r2, [r3, #52]	@ 0x34
 800051c:	2403      	movs	r4, #3
 800051e:	430a      	orrs	r2, r1
 8000520:	635a      	str	r2, [r3, #52]	@ 0x34
 8000522:	6b5a      	ldr	r2, [r3, #52]	@ 0x34
 8000524:	05c0      	lsls	r0, r0, #23
 8000526:	400a      	ands	r2, r1
 8000528:	9201      	str	r2, [sp, #4]
 800052a:	9a01      	ldr	r2, [sp, #4]
 800052c:	6b5a      	ldr	r2, [r3, #52]	@ 0x34
 800052e:	3103      	adds	r1, #3
 8000530:	430a      	orrs	r2, r1
 8000532:	635a      	str	r2, [r3, #52]	@ 0x34
 8000534:	6b5b      	ldr	r3, [r3, #52]	@ 0x34
 8000536:	9404      	str	r4, [sp, #16]
 8000538:	400b      	ands	r3, r1
 800053a:	9302      	str	r3, [sp, #8]
 800053c:	9b02      	ldr	r3, [sp, #8]
 800053e:	2302      	movs	r3, #2
 8000540:	a903      	add	r1, sp, #12
 8000542:	9303      	str	r3, [sp, #12]
 8000544:	9605      	str	r6, [sp, #20]
 8000546:	f001 fe81 	bl	800224c <HAL_GPIO_Init>
 800054a:	2330      	movs	r3, #48	@ 0x30
 800054c:	4813      	ldr	r0, [pc, #76]	@ (800059c <HAL_ADC_MspInit+0xd0>)
 800054e:	a903      	add	r1, sp, #12
 8000550:	9303      	str	r3, [sp, #12]
 8000552:	9404      	str	r4, [sp, #16]
 8000554:	9605      	str	r6, [sp, #20]
 8000556:	f001 fe79 	bl	800224c <HAL_GPIO_Init>
 800055a:	4c11      	ldr	r4, [pc, #68]	@ (80005a0 <HAL_ADC_MspInit+0xd4>)
 800055c:	4b11      	ldr	r3, [pc, #68]	@ (80005a4 <HAL_ADC_MspInit+0xd8>)
 800055e:	0020      	movs	r0, r4
 8000560:	6023      	str	r3, [r4, #0]
 8000562:	2305      	movs	r3, #5
 8000564:	6063      	str	r3, [r4, #4]
 8000566:	337b      	adds	r3, #123	@ 0x7b
 8000568:	6123      	str	r3, [r4, #16]
 800056a:	3380      	adds	r3, #128	@ 0x80
 800056c:	6163      	str	r3, [r4, #20]
 800056e:	2380      	movs	r3, #128	@ 0x80
 8000570:	00db      	lsls	r3, r3, #3
 8000572:	61a3      	str	r3, [r4, #24]
 8000574:	2320      	movs	r3, #32
 8000576:	60a6      	str	r6, [r4, #8]
 8000578:	60e6      	str	r6, [r4, #12]
 800057a:	61e3      	str	r3, [r4, #28]
 800057c:	6226      	str	r6, [r4, #32]
 800057e:	f001 fd2d 	bl	8001fdc <HAL_DMA_Init>
 8000582:	42b0      	cmp	r0, r6
 8000584:	d001      	beq.n	800058a <HAL_ADC_MspInit+0xbe>
 8000586:	f000 fb30 	bl	8000bea <Error_Handler>
 800058a:	652c      	str	r4, [r5, #80]	@ 0x50
 800058c:	62a5      	str	r5, [r4, #40]	@ 0x28
 800058e:	b010      	add	sp, #64	@ 0x40
 8000590:	bd70      	pop	{r4, r5, r6, pc}
 8000592:	46c0      	nop			@ (mov r8, r8)
 8000594:	40012400 	.word	0x40012400
 8000598:	40021000 	.word	0x40021000
 800059c:	50000800 	.word	0x50000800
 80005a0:	200000e0 	.word	0x200000e0
 80005a4:	40020008 	.word	0x40020008

080005a8 <adc_controller_update>:
 80005a8:	b510      	push	{r4, lr}
 80005aa:	2203      	movs	r2, #3
 80005ac:	4902      	ldr	r1, [pc, #8]	@ (80005b8 <adc_controller_update+0x10>)
 80005ae:	4803      	ldr	r0, [pc, #12]	@ (80005bc <adc_controller_update+0x14>)
 80005b0:	f001 fc32 	bl	8001e18 <HAL_ADC_Start_DMA>
 80005b4:	bd10      	pop	{r4, pc}
 80005b6:	46c0      	nop			@ (mov r8, r8)
 80005b8:	200001a0 	.word	0x200001a0
 80005bc:	2000013c 	.word	0x2000013c

080005c0 <get_adc_values>:
 80005c0:	4800      	ldr	r0, [pc, #0]	@ (80005c4 <get_adc_values+0x4>)
 80005c2:	4770      	bx	lr
 80005c4:	200001a0 	.word	0x200001a0

080005c8 <HAL_ADC_ConvCpltCallback>:
 80005c8:	4770      	bx	lr
	...

080005cc <app_main>:
 80005cc:	b5f0      	push	{r4, r5, r6, r7, lr}
 80005ce:	b085      	sub	sp, #20
 80005d0:	f001 f934 	bl	800183c <HAL_GetTick>
 80005d4:	4b31      	ldr	r3, [pc, #196]	@ (800069c <app_main+0xd0>)
 80005d6:	300a      	adds	r0, #10
 80005d8:	9302      	str	r3, [sp, #8]
 80005da:	6018      	str	r0, [r3, #0]
 80005dc:	f001 f92e 	bl	800183c <HAL_GetTick>
 80005e0:	4c2f      	ldr	r4, [pc, #188]	@ (80006a0 <app_main+0xd4>)
 80005e2:	3096      	adds	r0, #150	@ 0x96
 80005e4:	6020      	str	r0, [r4, #0]
 80005e6:	f001 f929 	bl	800183c <HAL_GetTick>
 80005ea:	4d2e      	ldr	r5, [pc, #184]	@ (80006a4 <app_main+0xd8>)
 80005ec:	30fa      	adds	r0, #250	@ 0xfa
 80005ee:	6028      	str	r0, [r5, #0]
 80005f0:	f001 f924 	bl	800183c <HAL_GetTick>
 80005f4:	4e2c      	ldr	r6, [pc, #176]	@ (80006a8 <app_main+0xdc>)
 80005f6:	30d8      	adds	r0, #216	@ 0xd8
 80005f8:	6030      	str	r0, [r6, #0]
 80005fa:	f001 f91f 	bl	800183c <HAL_GetTick>
 80005fe:	4f2b      	ldr	r7, [pc, #172]	@ (80006ac <app_main+0xe0>)
 8000600:	3064      	adds	r0, #100	@ 0x64
 8000602:	6038      	str	r0, [r7, #0]
 8000604:	f001 f91a 	bl	800183c <HAL_GetTick>
 8000608:	4b29      	ldr	r3, [pc, #164]	@ (80006b0 <app_main+0xe4>)
 800060a:	30a6      	adds	r0, #166	@ 0xa6
 800060c:	9303      	str	r3, [sp, #12]
 800060e:	6018      	str	r0, [r3, #0]
 8000610:	f000 fe36 	bl	8001280 <buttons_task_init>
 8000614:	f000 fe7e 	bl	8001314 <display_fsm_task_init>
 8000618:	f000 fe4a 	bl	80012b0 <buzzer_task_init>
 800061c:	f001 f90e 	bl	800183c <HAL_GetTick>
 8000620:	9b02      	ldr	r3, [sp, #8]
 8000622:	9001      	str	r0, [sp, #4]
 8000624:	681b      	ldr	r3, [r3, #0]
 8000626:	4283      	cmp	r3, r0
 8000628:	d206      	bcs.n	8000638 <app_main+0x6c>
 800062a:	f000 fe2d 	bl	8001288 <buttons_task_execute>
 800062e:	9b02      	ldr	r3, [sp, #8]
 8000630:	9a02      	ldr	r2, [sp, #8]
 8000632:	681b      	ldr	r3, [r3, #0]
 8000634:	330a      	adds	r3, #10
 8000636:	6013      	str	r3, [r2, #0]
 8000638:	6823      	ldr	r3, [r4, #0]
 800063a:	9a01      	ldr	r2, [sp, #4]
 800063c:	4293      	cmp	r3, r2
 800063e:	d204      	bcs.n	800064a <app_main+0x7e>
 8000640:	f000 ff28 	bl	8001494 <joystick_task_execute>
 8000644:	6823      	ldr	r3, [r4, #0]
 8000646:	3364      	adds	r3, #100	@ 0x64
 8000648:	6023      	str	r3, [r4, #0]
 800064a:	682b      	ldr	r3, [r5, #0]
 800064c:	9a01      	ldr	r2, [sp, #4]
 800064e:	4293      	cmp	r3, r2
 8000650:	d204      	bcs.n	800065c <app_main+0x90>
 8000652:	f000 ff23 	bl	800149c <uart_task_execute>
 8000656:	682b      	ldr	r3, [r5, #0]
 8000658:	33fa      	adds	r3, #250	@ 0xfa
 800065a:	602b      	str	r3, [r5, #0]
 800065c:	6833      	ldr	r3, [r6, #0]
 800065e:	9a01      	ldr	r2, [sp, #4]
 8000660:	4293      	cmp	r3, r2
 8000662:	d204      	bcs.n	800066e <app_main+0xa2>
 8000664:	f000 fe92 	bl	800138c <display_fsm_task_execute>
 8000668:	6833      	ldr	r3, [r6, #0]
 800066a:	33a6      	adds	r3, #166	@ 0xa6
 800066c:	6033      	str	r3, [r6, #0]
 800066e:	683b      	ldr	r3, [r7, #0]
 8000670:	9a01      	ldr	r2, [sp, #4]
 8000672:	4293      	cmp	r3, r2
 8000674:	d204      	bcs.n	8000680 <app_main+0xb4>
 8000676:	f000 fdff 	bl	8001278 <adc_task_execute>
 800067a:	683b      	ldr	r3, [r7, #0]
 800067c:	3364      	adds	r3, #100	@ 0x64
 800067e:	603b      	str	r3, [r7, #0]
 8000680:	9b03      	ldr	r3, [sp, #12]
 8000682:	9a01      	ldr	r2, [sp, #4]
 8000684:	681b      	ldr	r3, [r3, #0]
 8000686:	4293      	cmp	r3, r2
 8000688:	d2c8      	bcs.n	800061c <app_main+0x50>
 800068a:	f000 fe15 	bl	80012b8 <buzzer_task_execute>
 800068e:	9b03      	ldr	r3, [sp, #12]
 8000690:	9a03      	ldr	r2, [sp, #12]
 8000692:	681b      	ldr	r3, [r3, #0]
 8000694:	33a6      	adds	r3, #166	@ 0xa6
 8000696:	6013      	str	r3, [r2, #0]
 8000698:	e7c0      	b.n	800061c <app_main+0x50>
 800069a:	46c0      	nop			@ (mov r8, r8)
 800069c:	200001bc 	.word	0x200001bc
 80006a0:	200001b8 	.word	0x200001b8
 80006a4:	200001b4 	.word	0x200001b4
 80006a8:	200001b0 	.word	0x200001b0
 80006ac:	200001ac 	.word	0x200001ac
 80006b0:	200001a8 	.word	0x200001a8

080006b4 <buttons_init>:
 80006b4:	2200      	movs	r2, #0
 80006b6:	0011      	movs	r1, r2
 80006b8:	4b04      	ldr	r3, [pc, #16]	@ (80006cc <buttons_init+0x18>)
 80006ba:	7998      	ldrb	r0, [r3, #6]
 80006bc:	3201      	adds	r2, #1
 80006be:	7218      	strb	r0, [r3, #8]
 80006c0:	7419      	strb	r1, [r3, #16]
 80006c2:	7459      	strb	r1, [r3, #17]
 80006c4:	3314      	adds	r3, #20
 80006c6:	2a05      	cmp	r2, #5
 80006c8:	d1f7      	bne.n	80006ba <buttons_init+0x6>
 80006ca:	4770      	bx	lr
 80006cc:	20000000 	.word	0x20000000

080006d0 <buttons_update>:
 80006d0:	b5f8      	push	{r3, r4, r5, r6, r7, lr}
 80006d2:	2500      	movs	r5, #0
 80006d4:	2601      	movs	r6, #1
 80006d6:	4c2e      	ldr	r4, [pc, #184]	@ (8000790 <buttons_update+0xc0>)
 80006d8:	88a1      	ldrh	r1, [r4, #4]
 80006da:	6820      	ldr	r0, [r4, #0]
 80006dc:	f001 fe70 	bl	80023c0 <HAL_GPIO_ReadPin>
 80006e0:	7a23      	ldrb	r3, [r4, #8]
 80006e2:	4283      	cmp	r3, r0
 80006e4:	d007      	beq.n	80006f6 <buttons_update+0x26>
 80006e6:	7c23      	ldrb	r3, [r4, #16]
 80006e8:	3301      	adds	r3, #1
 80006ea:	b2db      	uxtb	r3, r3
 80006ec:	7423      	strb	r3, [r4, #16]
 80006ee:	2b02      	cmp	r3, #2
 80006f0:	d903      	bls.n	80006fa <buttons_update+0x2a>
 80006f2:	7220      	strb	r0, [r4, #8]
 80006f4:	7466      	strb	r6, [r4, #17]
 80006f6:	2300      	movs	r3, #0
 80006f8:	7423      	strb	r3, [r4, #16]
 80006fa:	79e3      	ldrb	r3, [r4, #7]
 80006fc:	2b00      	cmp	r3, #0
 80006fe:	d108      	bne.n	8000712 <buttons_update+0x42>
 8000700:	7c63      	ldrb	r3, [r4, #17]
 8000702:	2b00      	cmp	r3, #0
 8000704:	d019      	beq.n	800073a <buttons_update+0x6a>
 8000706:	7a22      	ldrb	r2, [r4, #8]
 8000708:	79a3      	ldrb	r3, [r4, #6]
 800070a:	429a      	cmp	r2, r3
 800070c:	d015      	beq.n	800073a <buttons_update+0x6a>
 800070e:	2301      	movs	r3, #1
 8000710:	e02d      	b.n	800076e <buttons_update+0x9e>
 8000712:	7a67      	ldrb	r7, [r4, #9]
 8000714:	2f04      	cmp	r7, #4
 8000716:	d015      	beq.n	8000744 <buttons_update+0x74>
 8000718:	2f05      	cmp	r7, #5
 800071a:	d02a      	beq.n	8000772 <buttons_update+0xa2>
 800071c:	2f00      	cmp	r7, #0
 800071e:	d10c      	bne.n	800073a <buttons_update+0x6a>
 8000720:	7c63      	ldrb	r3, [r4, #17]
 8000722:	2b00      	cmp	r3, #0
 8000724:	d009      	beq.n	800073a <buttons_update+0x6a>
 8000726:	7a22      	ldrb	r2, [r4, #8]
 8000728:	79a3      	ldrb	r3, [r4, #6]
 800072a:	429a      	cmp	r2, r3
 800072c:	d005      	beq.n	800073a <buttons_update+0x6a>
 800072e:	2304      	movs	r3, #4
 8000730:	7263      	strb	r3, [r4, #9]
 8000732:	f001 f883 	bl	800183c <HAL_GetTick>
 8000736:	7467      	strb	r7, [r4, #17]
 8000738:	60e0      	str	r0, [r4, #12]
 800073a:	3501      	adds	r5, #1
 800073c:	3414      	adds	r4, #20
 800073e:	2d05      	cmp	r5, #5
 8000740:	d1ca      	bne.n	80006d8 <buttons_update+0x8>
 8000742:	bdf8      	pop	{r3, r4, r5, r6, r7, pc}
 8000744:	7a22      	ldrb	r2, [r4, #8]
 8000746:	79a3      	ldrb	r3, [r4, #6]
 8000748:	429a      	cmp	r2, r3
 800074a:	d107      	bne.n	800075c <buttons_update+0x8c>
 800074c:	2305      	movs	r3, #5
 800074e:	7263      	strb	r3, [r4, #9]
 8000750:	f001 f874 	bl	800183c <HAL_GetTick>
 8000754:	60e0      	str	r0, [r4, #12]
 8000756:	2300      	movs	r3, #0
 8000758:	7463      	strb	r3, [r4, #17]
 800075a:	e7ee      	b.n	800073a <buttons_update+0x6a>
 800075c:	f001 f86e 	bl	800183c <HAL_GetTick>
 8000760:	22fa      	movs	r2, #250	@ 0xfa
 8000762:	68e3      	ldr	r3, [r4, #12]
 8000764:	0092      	lsls	r2, r2, #2
 8000766:	189b      	adds	r3, r3, r2
 8000768:	4298      	cmp	r0, r3
 800076a:	d9e6      	bls.n	800073a <buttons_update+0x6a>
 800076c:	2302      	movs	r3, #2
 800076e:	7263      	strb	r3, [r4, #9]
 8000770:	e7e3      	b.n	800073a <buttons_update+0x6a>
 8000772:	7a22      	ldrb	r2, [r4, #8]
 8000774:	79a3      	ldrb	r3, [r4, #6]
 8000776:	429a      	cmp	r2, r3
 8000778:	d002      	beq.n	8000780 <buttons_update+0xb0>
 800077a:	2303      	movs	r3, #3
 800077c:	7263      	strb	r3, [r4, #9]
 800077e:	e7ea      	b.n	8000756 <buttons_update+0x86>
 8000780:	f001 f85c 	bl	800183c <HAL_GetTick>
 8000784:	68e3      	ldr	r3, [r4, #12]
 8000786:	3396      	adds	r3, #150	@ 0x96
 8000788:	4298      	cmp	r0, r3
 800078a:	d9d6      	bls.n	800073a <buttons_update+0x6a>
 800078c:	e7bf      	b.n	800070e <buttons_update+0x3e>
 800078e:	46c0      	nop			@ (mov r8, r8)
 8000790:	20000000 	.word	0x20000000

08000794 <buttons_checkButton>:
 8000794:	2214      	movs	r2, #20
 8000796:	4342      	muls	r2, r0
 8000798:	4b06      	ldr	r3, [pc, #24]	@ (80007b4 <buttons_checkButton+0x20>)
 800079a:	189b      	adds	r3, r3, r2
 800079c:	7a58      	ldrb	r0, [r3, #9]
 800079e:	2800      	cmp	r0, #0
 80007a0:	d005      	beq.n	80007ae <buttons_checkButton+0x1a>
 80007a2:	1f01      	subs	r1, r0, #4
 80007a4:	2200      	movs	r2, #0
 80007a6:	2901      	cmp	r1, #1
 80007a8:	d902      	bls.n	80007b0 <buttons_checkButton+0x1c>
 80007aa:	745a      	strb	r2, [r3, #17]
 80007ac:	725a      	strb	r2, [r3, #9]
 80007ae:	4770      	bx	lr
 80007b0:	0010      	movs	r0, r2
 80007b2:	e7fc      	b.n	80007ae <buttons_checkButton+0x1a>
 80007b4:	20000000 	.word	0x20000000

080007b8 <buzzer_init>:
 80007b8:	b510      	push	{r4, lr}
 80007ba:	2100      	movs	r1, #0
 80007bc:	4801      	ldr	r0, [pc, #4]	@ (80007c4 <buzzer_init+0xc>)
 80007be:	f003 fd91 	bl	80042e4 <HAL_TIM_PWM_Start>
 80007c2:	bd10      	pop	{r4, pc}
 80007c4:	200006f4 	.word	0x200006f4

080007c8 <set_buzzer>:
 80007c8:	4b01      	ldr	r3, [pc, #4]	@ (80007d0 <set_buzzer+0x8>)
 80007ca:	681b      	ldr	r3, [r3, #0]
 80007cc:	6358      	str	r0, [r3, #52]	@ 0x34
 80007ce:	4770      	bx	lr
 80007d0:	200006f4 	.word	0x200006f4

080007d4 <MX_DMA_Init>:
 80007d4:	b507      	push	{r0, r1, r2, lr}
 80007d6:	2101      	movs	r1, #1
 80007d8:	4b0c      	ldr	r3, [pc, #48]	@ (800080c <MX_DMA_Init+0x38>)
 80007da:	2009      	movs	r0, #9
 80007dc:	6b9a      	ldr	r2, [r3, #56]	@ 0x38
 80007de:	430a      	orrs	r2, r1
 80007e0:	639a      	str	r2, [r3, #56]	@ 0x38
 80007e2:	2200      	movs	r2, #0
 80007e4:	6b9b      	ldr	r3, [r3, #56]	@ 0x38
 80007e6:	400b      	ands	r3, r1
 80007e8:	9301      	str	r3, [sp, #4]
 80007ea:	0011      	movs	r1, r2
 80007ec:	9b01      	ldr	r3, [sp, #4]
 80007ee:	f001 fb6b 	bl	8001ec8 <HAL_NVIC_SetPriority>
 80007f2:	2009      	movs	r0, #9
 80007f4:	f001 fb92 	bl	8001f1c <HAL_NVIC_EnableIRQ>
 80007f8:	2200      	movs	r2, #0
 80007fa:	200a      	movs	r0, #10
 80007fc:	0011      	movs	r1, r2
 80007fe:	f001 fb63 	bl	8001ec8 <HAL_NVIC_SetPriority>
 8000802:	200a      	movs	r0, #10
 8000804:	f001 fb8a 	bl	8001f1c <HAL_NVIC_EnableIRQ>
 8000808:	bd07      	pop	{r0, r1, r2, pc}
 800080a:	46c0      	nop			@ (mov r8, r8)
 800080c:	40021000 	.word	0x40021000

08000810 <MX_GPIO_Init>:
 8000810:	b5f0      	push	{r4, r5, r6, r7, lr}
 8000812:	b08b      	sub	sp, #44	@ 0x2c
 8000814:	2214      	movs	r2, #20
 8000816:	2100      	movs	r1, #0
 8000818:	a805      	add	r0, sp, #20
 800081a:	f004 f8f3 	bl	8004a04 <memset>
 800081e:	2104      	movs	r1, #4
 8000820:	2501      	movs	r5, #1
 8000822:	2702      	movs	r7, #2
 8000824:	4b4b      	ldr	r3, [pc, #300]	@ (8000954 <MX_GPIO_Init+0x144>)
 8000826:	2008      	movs	r0, #8
 8000828:	6b5a      	ldr	r2, [r3, #52]	@ 0x34
 800082a:	4e4b      	ldr	r6, [pc, #300]	@ (8000958 <MX_GPIO_Init+0x148>)
 800082c:	430a      	orrs	r2, r1
 800082e:	635a      	str	r2, [r3, #52]	@ 0x34
 8000830:	6b5a      	ldr	r2, [r3, #52]	@ 0x34
 8000832:	2400      	movs	r4, #0
 8000834:	400a      	ands	r2, r1
 8000836:	9200      	str	r2, [sp, #0]
 8000838:	9a00      	ldr	r2, [sp, #0]
 800083a:	6b5a      	ldr	r2, [r3, #52]	@ 0x34
 800083c:	311c      	adds	r1, #28
 800083e:	430a      	orrs	r2, r1
 8000840:	635a      	str	r2, [r3, #52]	@ 0x34
 8000842:	6b5a      	ldr	r2, [r3, #52]	@ 0x34
 8000844:	400a      	ands	r2, r1
 8000846:	9201      	str	r2, [sp, #4]
 8000848:	9a01      	ldr	r2, [sp, #4]
 800084a:	6b5a      	ldr	r2, [r3, #52]	@ 0x34
 800084c:	4943      	ldr	r1, [pc, #268]	@ (800095c <MX_GPIO_Init+0x14c>)
 800084e:	432a      	orrs	r2, r5
 8000850:	635a      	str	r2, [r3, #52]	@ 0x34
 8000852:	6b5a      	ldr	r2, [r3, #52]	@ 0x34
 8000854:	402a      	ands	r2, r5
 8000856:	9202      	str	r2, [sp, #8]
 8000858:	9a02      	ldr	r2, [sp, #8]
 800085a:	6b5a      	ldr	r2, [r3, #52]	@ 0x34
 800085c:	433a      	orrs	r2, r7
 800085e:	635a      	str	r2, [r3, #52]	@ 0x34
 8000860:	6b5a      	ldr	r2, [r3, #52]	@ 0x34
 8000862:	403a      	ands	r2, r7
 8000864:	9203      	str	r2, [sp, #12]
 8000866:	9a03      	ldr	r2, [sp, #12]
 8000868:	6b5a      	ldr	r2, [r3, #52]	@ 0x34
 800086a:	4302      	orrs	r2, r0
 800086c:	635a      	str	r2, [r3, #52]	@ 0x34
 800086e:	6b5b      	ldr	r3, [r3, #52]	@ 0x34
 8000870:	002a      	movs	r2, r5
 8000872:	4003      	ands	r3, r0
 8000874:	9304      	str	r3, [sp, #16]
 8000876:	0030      	movs	r0, r6
 8000878:	9b04      	ldr	r3, [sp, #16]
 800087a:	f001 fda7 	bl	80023cc <HAL_GPIO_WritePin>
 800087e:	002a      	movs	r2, r5
 8000880:	2108      	movs	r1, #8
 8000882:	4837      	ldr	r0, [pc, #220]	@ (8000960 <MX_GPIO_Init+0x150>)
 8000884:	f001 fda2 	bl	80023cc <HAL_GPIO_WritePin>
 8000888:	20a0      	movs	r0, #160	@ 0xa0
 800088a:	2200      	movs	r2, #0
 800088c:	2120      	movs	r1, #32
 800088e:	05c0      	lsls	r0, r0, #23
 8000890:	f001 fd9c 	bl	80023cc <HAL_GPIO_WritePin>
 8000894:	2180      	movs	r1, #128	@ 0x80
 8000896:	0030      	movs	r0, r6
 8000898:	40b9      	lsls	r1, r7
 800089a:	2200      	movs	r2, #0
 800089c:	f001 fd96 	bl	80023cc <HAL_GPIO_WritePin>
 80008a0:	2200      	movs	r2, #0
 80008a2:	211c      	movs	r1, #28
 80008a4:	482f      	ldr	r0, [pc, #188]	@ (8000964 <MX_GPIO_Init+0x154>)
 80008a6:	f001 fd91 	bl	80023cc <HAL_GPIO_WritePin>
 80008aa:	4b2f      	ldr	r3, [pc, #188]	@ (8000968 <MX_GPIO_Init+0x158>)
 80008ac:	0030      	movs	r0, r6
 80008ae:	9305      	str	r3, [sp, #20]
 80008b0:	ab05      	add	r3, sp, #20
 80008b2:	0019      	movs	r1, r3
 80008b4:	9406      	str	r4, [sp, #24]
 80008b6:	9707      	str	r7, [sp, #28]
 80008b8:	f001 fcc8 	bl	800224c <HAL_GPIO_Init>
 80008bc:	4b2b      	ldr	r3, [pc, #172]	@ (800096c <MX_GPIO_Init+0x15c>)
 80008be:	0030      	movs	r0, r6
 80008c0:	9305      	str	r3, [sp, #20]
 80008c2:	ab05      	add	r3, sp, #20
 80008c4:	0019      	movs	r1, r3
 80008c6:	9506      	str	r5, [sp, #24]
 80008c8:	9407      	str	r4, [sp, #28]
 80008ca:	9408      	str	r4, [sp, #32]
 80008cc:	f001 fcbe 	bl	800224c <HAL_GPIO_Init>
 80008d0:	2380      	movs	r3, #128	@ 0x80
 80008d2:	019b      	lsls	r3, r3, #6
 80008d4:	9305      	str	r3, [sp, #20]
 80008d6:	ab05      	add	r3, sp, #20
 80008d8:	0019      	movs	r1, r3
 80008da:	0030      	movs	r0, r6
 80008dc:	9406      	str	r4, [sp, #24]
 80008de:	9507      	str	r5, [sp, #28]
 80008e0:	f001 fcb4 	bl	800224c <HAL_GPIO_Init>
 80008e4:	2008      	movs	r0, #8
 80008e6:	ab05      	add	r3, sp, #20
 80008e8:	0019      	movs	r1, r3
 80008ea:	9005      	str	r0, [sp, #20]
 80008ec:	481c      	ldr	r0, [pc, #112]	@ (8000960 <MX_GPIO_Init+0x150>)
 80008ee:	9506      	str	r5, [sp, #24]
 80008f0:	9407      	str	r4, [sp, #28]
 80008f2:	9408      	str	r4, [sp, #32]
 80008f4:	f001 fcaa 	bl	800224c <HAL_GPIO_Init>
 80008f8:	2120      	movs	r1, #32
 80008fa:	20a0      	movs	r0, #160	@ 0xa0
 80008fc:	9105      	str	r1, [sp, #20]
 80008fe:	05c0      	lsls	r0, r0, #23
 8000900:	a905      	add	r1, sp, #20
 8000902:	9506      	str	r5, [sp, #24]
 8000904:	9407      	str	r4, [sp, #28]
 8000906:	9408      	str	r4, [sp, #32]
 8000908:	f001 fca0 	bl	800224c <HAL_GPIO_Init>
 800090c:	a905      	add	r1, sp, #20
 800090e:	4818      	ldr	r0, [pc, #96]	@ (8000970 <MX_GPIO_Init+0x160>)
 8000910:	9705      	str	r7, [sp, #20]
 8000912:	9406      	str	r4, [sp, #24]
 8000914:	9707      	str	r7, [sp, #28]
 8000916:	f001 fc99 	bl	800224c <HAL_GPIO_Init>
 800091a:	231c      	movs	r3, #28
 800091c:	a905      	add	r1, sp, #20
 800091e:	4811      	ldr	r0, [pc, #68]	@ (8000964 <MX_GPIO_Init+0x154>)
 8000920:	9305      	str	r3, [sp, #20]
 8000922:	9506      	str	r5, [sp, #24]
 8000924:	9407      	str	r4, [sp, #28]
 8000926:	9408      	str	r4, [sp, #32]
 8000928:	f001 fc90 	bl	800224c <HAL_GPIO_Init>
 800092c:	2380      	movs	r3, #128	@ 0x80
 800092e:	00db      	lsls	r3, r3, #3
 8000930:	9305      	str	r3, [sp, #20]
 8000932:	4b10      	ldr	r3, [pc, #64]	@ (8000974 <MX_GPIO_Init+0x164>)
 8000934:	0030      	movs	r0, r6
 8000936:	a905      	add	r1, sp, #20
 8000938:	9306      	str	r3, [sp, #24]
 800093a:	9707      	str	r7, [sp, #28]
 800093c:	f001 fc86 	bl	800224c <HAL_GPIO_Init>
 8000940:	0022      	movs	r2, r4
 8000942:	0021      	movs	r1, r4
 8000944:	2007      	movs	r0, #7
 8000946:	f001 fabf 	bl	8001ec8 <HAL_NVIC_SetPriority>
 800094a:	2007      	movs	r0, #7
 800094c:	f001 fae6 	bl	8001f1c <HAL_NVIC_EnableIRQ>
 8000950:	b00b      	add	sp, #44	@ 0x2c
 8000952:	bdf0      	pop	{r4, r5, r6, r7, pc}
 8000954:	40021000 	.word	0x40021000
 8000958:	50000800 	.word	0x50000800
 800095c:	00001004 	.word	0x00001004
 8000960:	50001400 	.word	0x50001400
 8000964:	50000c00 	.word	0x50000c00
 8000968:	00000802 	.word	0x00000802
 800096c:	00001204 	.word	0x00001204
 8000970:	50000400 	.word	0x50000400
 8000974:	10110000 	.word	0x10110000

08000978 <MX_I2C1_Init>:
 8000978:	b510      	push	{r4, lr}
 800097a:	4b13      	ldr	r3, [pc, #76]	@ (80009c8 <MX_I2C1_Init+0x50>)
 800097c:	4c13      	ldr	r4, [pc, #76]	@ (80009cc <MX_I2C1_Init+0x54>)
 800097e:	2201      	movs	r2, #1
 8000980:	6023      	str	r3, [r4, #0]
 8000982:	4b13      	ldr	r3, [pc, #76]	@ (80009d0 <MX_I2C1_Init+0x58>)
 8000984:	0020      	movs	r0, r4
 8000986:	6063      	str	r3, [r4, #4]
 8000988:	2300      	movs	r3, #0
 800098a:	60e2      	str	r2, [r4, #12]
 800098c:	60a3      	str	r3, [r4, #8]
 800098e:	6123      	str	r3, [r4, #16]
 8000990:	6163      	str	r3, [r4, #20]
 8000992:	61a3      	str	r3, [r4, #24]
 8000994:	61e3      	str	r3, [r4, #28]
 8000996:	6223      	str	r3, [r4, #32]
 8000998:	f001 feca 	bl	8002730 <HAL_I2C_Init>
 800099c:	2800      	cmp	r0, #0
 800099e:	d001      	beq.n	80009a4 <MX_I2C1_Init+0x2c>
 80009a0:	f000 f923 	bl	8000bea <Error_Handler>
 80009a4:	2100      	movs	r1, #0
 80009a6:	0020      	movs	r0, r4
 80009a8:	f002 fe36 	bl	8003618 <HAL_I2CEx_ConfigAnalogFilter>
 80009ac:	2800      	cmp	r0, #0
 80009ae:	d001      	beq.n	80009b4 <MX_I2C1_Init+0x3c>
 80009b0:	f000 f91b 	bl	8000bea <Error_Handler>
 80009b4:	2100      	movs	r1, #0
 80009b6:	0020      	movs	r0, r4
 80009b8:	f002 fe54 	bl	8003664 <HAL_I2CEx_ConfigDigitalFilter>
 80009bc:	2800      	cmp	r0, #0
 80009be:	d001      	beq.n	80009c4 <MX_I2C1_Init+0x4c>
 80009c0:	f000 f913 	bl	8000bea <Error_Handler>
 80009c4:	bd10      	pop	{r4, pc}
 80009c6:	46c0      	nop			@ (mov r8, r8)
 80009c8:	40005400 	.word	0x40005400
 80009cc:	2000021c 	.word	0x2000021c
 80009d0:	00402d41 	.word	0x00402d41

080009d4 <HAL_I2C_MspInit>:
 80009d4:	b570      	push	{r4, r5, r6, lr}
 80009d6:	0006      	movs	r6, r0
 80009d8:	b090      	sub	sp, #64	@ 0x40
 80009da:	2214      	movs	r2, #20
 80009dc:	2100      	movs	r1, #0
 80009de:	a803      	add	r0, sp, #12
 80009e0:	f004 f810 	bl	8004a04 <memset>
 80009e4:	2220      	movs	r2, #32
 80009e6:	2100      	movs	r1, #0
 80009e8:	a808      	add	r0, sp, #32
 80009ea:	f004 f80b 	bl	8004a04 <memset>
 80009ee:	4b26      	ldr	r3, [pc, #152]	@ (8000a88 <HAL_I2C_MspInit+0xb4>)
 80009f0:	6832      	ldr	r2, [r6, #0]
 80009f2:	429a      	cmp	r2, r3
 80009f4:	d146      	bne.n	8000a84 <HAL_I2C_MspInit+0xb0>
 80009f6:	2502      	movs	r5, #2
 80009f8:	a808      	add	r0, sp, #32
 80009fa:	9508      	str	r5, [sp, #32]
 80009fc:	f003 f8d8 	bl	8003bb0 <HAL_RCCEx_PeriphCLKConfig>
 8000a00:	2800      	cmp	r0, #0
 8000a02:	d001      	beq.n	8000a08 <HAL_I2C_MspInit+0x34>
 8000a04:	f000 f8f1 	bl	8000bea <Error_Handler>
 8000a08:	4c20      	ldr	r4, [pc, #128]	@ (8000a8c <HAL_I2C_MspInit+0xb8>)
 8000a0a:	4821      	ldr	r0, [pc, #132]	@ (8000a90 <HAL_I2C_MspInit+0xbc>)
 8000a0c:	6b63      	ldr	r3, [r4, #52]	@ 0x34
 8000a0e:	a903      	add	r1, sp, #12
 8000a10:	432b      	orrs	r3, r5
 8000a12:	6363      	str	r3, [r4, #52]	@ 0x34
 8000a14:	6b63      	ldr	r3, [r4, #52]	@ 0x34
 8000a16:	402b      	ands	r3, r5
 8000a18:	9301      	str	r3, [sp, #4]
 8000a1a:	9b01      	ldr	r3, [sp, #4]
 8000a1c:	23c0      	movs	r3, #192	@ 0xc0
 8000a1e:	009b      	lsls	r3, r3, #2
 8000a20:	9303      	str	r3, [sp, #12]
 8000a22:	2312      	movs	r3, #18
 8000a24:	2500      	movs	r5, #0
 8000a26:	9304      	str	r3, [sp, #16]
 8000a28:	3b0c      	subs	r3, #12
 8000a2a:	9307      	str	r3, [sp, #28]
 8000a2c:	9505      	str	r5, [sp, #20]
 8000a2e:	9506      	str	r5, [sp, #24]
 8000a30:	f001 fc0c 	bl	800224c <HAL_GPIO_Init>
 8000a34:	2280      	movs	r2, #128	@ 0x80
 8000a36:	6be3      	ldr	r3, [r4, #60]	@ 0x3c
 8000a38:	0392      	lsls	r2, r2, #14
 8000a3a:	4313      	orrs	r3, r2
 8000a3c:	63e3      	str	r3, [r4, #60]	@ 0x3c
 8000a3e:	6be3      	ldr	r3, [r4, #60]	@ 0x3c
 8000a40:	4c14      	ldr	r4, [pc, #80]	@ (8000a94 <HAL_I2C_MspInit+0xc0>)
 8000a42:	4013      	ands	r3, r2
 8000a44:	9302      	str	r3, [sp, #8]
 8000a46:	9b02      	ldr	r3, [sp, #8]
 8000a48:	4b13      	ldr	r3, [pc, #76]	@ (8000a98 <HAL_I2C_MspInit+0xc4>)
 8000a4a:	0020      	movs	r0, r4
 8000a4c:	6023      	str	r3, [r4, #0]
 8000a4e:	230b      	movs	r3, #11
 8000a50:	6063      	str	r3, [r4, #4]
 8000a52:	3305      	adds	r3, #5
 8000a54:	60a3      	str	r3, [r4, #8]
 8000a56:	3370      	adds	r3, #112	@ 0x70
 8000a58:	60e5      	str	r5, [r4, #12]
 8000a5a:	6123      	str	r3, [r4, #16]
 8000a5c:	6165      	str	r5, [r4, #20]
 8000a5e:	61a5      	str	r5, [r4, #24]
 8000a60:	61e5      	str	r5, [r4, #28]
 8000a62:	6225      	str	r5, [r4, #32]
 8000a64:	f001 faba 	bl	8001fdc <HAL_DMA_Init>
 8000a68:	42a8      	cmp	r0, r5
 8000a6a:	d001      	beq.n	8000a70 <HAL_I2C_MspInit+0x9c>
 8000a6c:	f000 f8bd 	bl	8000bea <Error_Handler>
 8000a70:	2200      	movs	r2, #0
 8000a72:	2017      	movs	r0, #23
 8000a74:	0011      	movs	r1, r2
 8000a76:	63b4      	str	r4, [r6, #56]	@ 0x38
 8000a78:	62a6      	str	r6, [r4, #40]	@ 0x28
 8000a7a:	f001 fa25 	bl	8001ec8 <HAL_NVIC_SetPriority>
 8000a7e:	2017      	movs	r0, #23
 8000a80:	f001 fa4c 	bl	8001f1c <HAL_NVIC_EnableIRQ>
 8000a84:	b010      	add	sp, #64	@ 0x40
 8000a86:	bd70      	pop	{r4, r5, r6, pc}
 8000a88:	40005400 	.word	0x40005400
 8000a8c:	40021000 	.word	0x40021000
 8000a90:	50000400 	.word	0x50000400
 8000a94:	200001c0 	.word	0x200001c0
 8000a98:	4002001c 	.word	0x4002001c

08000a9c <get_percentage_coordinates>:
 8000a9c:	b5f7      	push	{r0, r1, r2, r4, r5, r6, r7, lr}
 8000a9e:	f7ff fd8f 	bl	80005c0 <get_adc_values>
 8000aa2:	2564      	movs	r5, #100	@ 0x64
 8000aa4:	0006      	movs	r6, r0
 8000aa6:	4f12      	ldr	r7, [pc, #72]	@ (8000af0 <get_percentage_coordinates+0x54>)
 8000aa8:	2304      	movs	r3, #4
 8000aaa:	5ec0      	ldrsh	r0, [r0, r3]
 8000aac:	4911      	ldr	r1, [pc, #68]	@ (8000af4 <get_percentage_coordinates+0x58>)
 8000aae:	19c0      	adds	r0, r0, r7
 8000ab0:	4368      	muls	r0, r5
 8000ab2:	f7ff fbc7 	bl	8000244 <__divsi3>
 8000ab6:	0004      	movs	r4, r0
 8000ab8:	2302      	movs	r3, #2
 8000aba:	5ef0      	ldrsh	r0, [r6, r3]
 8000abc:	490d      	ldr	r1, [pc, #52]	@ (8000af4 <get_percentage_coordinates+0x58>)
 8000abe:	19c0      	adds	r0, r0, r7
 8000ac0:	4368      	muls	r0, r5
 8000ac2:	f7ff fbbf 	bl	8000244 <__divsi3>
 8000ac6:	0022      	movs	r2, r4
 8000ac8:	3213      	adds	r2, #19
 8000aca:	b2d2      	uxtb	r2, r2
 8000acc:	0003      	movs	r3, r0
 8000ace:	2a26      	cmp	r2, #38	@ 0x26
 8000ad0:	d800      	bhi.n	8000ad4 <get_percentage_coordinates+0x38>
 8000ad2:	2400      	movs	r4, #0
 8000ad4:	001a      	movs	r2, r3
 8000ad6:	3213      	adds	r2, #19
 8000ad8:	b2d2      	uxtb	r2, r2
 8000ada:	b260      	sxtb	r0, r4
 8000adc:	2a26      	cmp	r2, #38	@ 0x26
 8000ade:	d800      	bhi.n	8000ae2 <get_percentage_coordinates+0x46>
 8000ae0:	2300      	movs	r3, #0
 8000ae2:	22ff      	movs	r2, #255	@ 0xff
 8000ae4:	4013      	ands	r3, r2
 8000ae6:	4010      	ands	r0, r2
 8000ae8:	021b      	lsls	r3, r3, #8
 8000aea:	4318      	orrs	r0, r3
 8000aec:	bdfe      	pop	{r1, r2, r3, r4, r5, r6, r7, pc}
 8000aee:	46c0      	nop			@ (mov r8, r8)
 8000af0:	fffff801 	.word	0xfffff801
 8000af4:	000007ff 	.word	0x000007ff

08000af8 <update_joystick>:
 8000af8:	b507      	push	{r0, r1, r2, lr}
 8000afa:	f7ff ffcf 	bl	8000a9c <get_percentage_coordinates>
 8000afe:	0403      	lsls	r3, r0, #16
 8000b00:	b240      	sxtb	r0, r0
 8000b02:	161b      	asrs	r3, r3, #24
 8000b04:	281e      	cmp	r0, #30
 8000b06:	dd08      	ble.n	8000b1a <update_joystick+0x22>
 8000b08:	2101      	movs	r1, #1
 8000b0a:	4a0a      	ldr	r2, [pc, #40]	@ (8000b34 <update_joystick+0x3c>)
 8000b0c:	7011      	strb	r1, [r2, #0]
 8000b0e:	2b1e      	cmp	r3, #30
 8000b10:	dd09      	ble.n	8000b26 <update_joystick+0x2e>
 8000b12:	2201      	movs	r2, #1
 8000b14:	4b07      	ldr	r3, [pc, #28]	@ (8000b34 <update_joystick+0x3c>)
 8000b16:	70da      	strb	r2, [r3, #3]
 8000b18:	bd07      	pop	{r0, r1, r2, pc}
 8000b1a:	301e      	adds	r0, #30
 8000b1c:	daf7      	bge.n	8000b0e <update_joystick+0x16>
 8000b1e:	2101      	movs	r1, #1
 8000b20:	4a04      	ldr	r2, [pc, #16]	@ (8000b34 <update_joystick+0x3c>)
 8000b22:	7051      	strb	r1, [r2, #1]
 8000b24:	e7f3      	b.n	8000b0e <update_joystick+0x16>
 8000b26:	331e      	adds	r3, #30
 8000b28:	daf6      	bge.n	8000b18 <update_joystick+0x20>
 8000b2a:	2201      	movs	r2, #1
 8000b2c:	4b01      	ldr	r3, [pc, #4]	@ (8000b34 <update_joystick+0x3c>)
 8000b2e:	709a      	strb	r2, [r3, #2]
 8000b30:	e7f2      	b.n	8000b18 <update_joystick+0x20>
 8000b32:	46c0      	nop			@ (mov r8, r8)
 8000b34:	20000270 	.word	0x20000270

08000b38 <get_joystick_flags>:
 8000b38:	b537      	push	{r0, r1, r2, r4, r5, lr}
 8000b3a:	2500      	movs	r5, #0
 8000b3c:	4b09      	ldr	r3, [pc, #36]	@ (8000b64 <get_joystick_flags+0x2c>)
 8000b3e:	7818      	ldrb	r0, [r3, #0]
 8000b40:	7859      	ldrb	r1, [r3, #1]
 8000b42:	789a      	ldrb	r2, [r3, #2]
 8000b44:	78dc      	ldrb	r4, [r3, #3]
 8000b46:	701d      	strb	r5, [r3, #0]
 8000b48:	705d      	strb	r5, [r3, #1]
 8000b4a:	709d      	strb	r5, [r3, #2]
 8000b4c:	70dd      	strb	r5, [r3, #3]
 8000b4e:	23ff      	movs	r3, #255	@ 0xff
 8000b50:	4019      	ands	r1, r3
 8000b52:	4018      	ands	r0, r3
 8000b54:	0209      	lsls	r1, r1, #8
 8000b56:	4013      	ands	r3, r2
 8000b58:	041b      	lsls	r3, r3, #16
 8000b5a:	4308      	orrs	r0, r1
 8000b5c:	0624      	lsls	r4, r4, #24
 8000b5e:	4318      	orrs	r0, r3
 8000b60:	4320      	orrs	r0, r4
 8000b62:	bd3e      	pop	{r1, r2, r3, r4, r5, pc}
 8000b64:	20000270 	.word	0x20000270

08000b68 <SystemClock_Config>:
 8000b68:	b500      	push	{lr}
 8000b6a:	b08f      	sub	sp, #60	@ 0x3c
 8000b6c:	221c      	movs	r2, #28
 8000b6e:	2100      	movs	r1, #0
 8000b70:	a807      	add	r0, sp, #28
 8000b72:	f003 ff47 	bl	8004a04 <memset>
 8000b76:	2100      	movs	r1, #0
 8000b78:	2214      	movs	r2, #20
 8000b7a:	a801      	add	r0, sp, #4
 8000b7c:	f003 ff42 	bl	8004a04 <memset>
 8000b80:	2302      	movs	r3, #2
 8000b82:	9306      	str	r3, [sp, #24]
 8000b84:	33fe      	adds	r3, #254	@ 0xfe
 8000b86:	9309      	str	r3, [sp, #36]	@ 0x24
 8000b88:	2380      	movs	r3, #128	@ 0x80
 8000b8a:	015b      	lsls	r3, r3, #5
 8000b8c:	930a      	str	r3, [sp, #40]	@ 0x28
 8000b8e:	2340      	movs	r3, #64	@ 0x40
 8000b90:	a806      	add	r0, sp, #24
 8000b92:	930b      	str	r3, [sp, #44]	@ 0x2c
 8000b94:	f002 fd8a 	bl	80036ac <HAL_RCC_OscConfig>
 8000b98:	1e01      	subs	r1, r0, #0
 8000b9a:	d001      	beq.n	8000ba0 <SystemClock_Config+0x38>
 8000b9c:	b672      	cpsid	i
 8000b9e:	e7fe      	b.n	8000b9e <SystemClock_Config+0x36>
 8000ba0:	2307      	movs	r3, #7
 8000ba2:	9002      	str	r0, [sp, #8]
 8000ba4:	9003      	str	r0, [sp, #12]
 8000ba6:	9004      	str	r0, [sp, #16]
 8000ba8:	9005      	str	r0, [sp, #20]
 8000baa:	a801      	add	r0, sp, #4
 8000bac:	9301      	str	r3, [sp, #4]
 8000bae:	f002 ff1f 	bl	80039f0 <HAL_RCC_ClockConfig>
 8000bb2:	2800      	cmp	r0, #0
 8000bb4:	d001      	beq.n	8000bba <SystemClock_Config+0x52>
 8000bb6:	b672      	cpsid	i
 8000bb8:	e7fe      	b.n	8000bb8 <SystemClock_Config+0x50>
 8000bba:	b00f      	add	sp, #60	@ 0x3c
 8000bbc:	bd00      	pop	{pc}

08000bbe <main>:
 8000bbe:	b510      	push	{r4, lr}
 8000bc0:	f000 fe24 	bl	800180c <HAL_Init>
 8000bc4:	f7ff ffd0 	bl	8000b68 <SystemClock_Config>
 8000bc8:	f7ff fe22 	bl	8000810 <MX_GPIO_Init>
 8000bcc:	f7ff fe02 	bl	80007d4 <MX_DMA_Init>
 8000bd0:	f7ff fc24 	bl	800041c <MX_ADC1_Init>
 8000bd4:	f7ff fed0 	bl	8000978 <MX_I2C1_Init>
 8000bd8:	f000 fd62 	bl	80016a0 <MX_USART2_UART_Init>
 8000bdc:	f000 fcc8 	bl	8001570 <MX_TIM2_Init>
 8000be0:	f000 fd0a 	bl	80015f8 <MX_TIM16_Init>
 8000be4:	f7ff fcf2 	bl	80005cc <app_main>
 8000be8:	e7fc      	b.n	8000be4 <main+0x26>

08000bea <Error_Handler>:
 8000bea:	b672      	cpsid	i
 8000bec:	e7fe      	b.n	8000bec <Error_Handler+0x2>
	...

08000bf0 <get_scaled_pot_value>:
 8000bf0:	b510      	push	{r4, lr}
 8000bf2:	f7ff fce5 	bl	80005c0 <get_adc_values>
 8000bf6:	8803      	ldrh	r3, [r0, #0]
 8000bf8:	480b      	ldr	r0, [pc, #44]	@ (8000c28 <get_scaled_pot_value+0x38>)
 8000bfa:	3b8b      	subs	r3, #139	@ 0x8b
 8000bfc:	4358      	muls	r0, r3
 8000bfe:	490b      	ldr	r1, [pc, #44]	@ (8000c2c <get_scaled_pot_value+0x3c>)
 8000c00:	f7ff fb20 	bl	8000244 <__divsi3>
 8000c04:	30f5      	adds	r0, #245	@ 0xf5
 8000c06:	30ff      	adds	r0, #255	@ 0xff
 8000c08:	2164      	movs	r1, #100	@ 0x64
 8000c0a:	b280      	uxth	r0, r0
 8000c0c:	f7ff fa90 	bl	8000130 <__udivsi3>
 8000c10:	2364      	movs	r3, #100	@ 0x64
 8000c12:	22fa      	movs	r2, #250	@ 0xfa
 8000c14:	b280      	uxth	r0, r0
 8000c16:	4343      	muls	r3, r0
 8000c18:	1c18      	adds	r0, r3, #0
 8000c1a:	b29b      	uxth	r3, r3
 8000c1c:	0052      	lsls	r2, r2, #1
 8000c1e:	4293      	cmp	r3, r2
 8000c20:	d200      	bcs.n	8000c24 <get_scaled_pot_value+0x34>
 8000c22:	1c10      	adds	r0, r2, #0
 8000c24:	b280      	uxth	r0, r0
 8000c26:	bd10      	pop	{r4, pc}
 8000c28:	000038a4 	.word	0x000038a4
 8000c2c:	00000f74 	.word	0x00000f74

08000c30 <ssd1306_WriteCommand>:
 8000c30:	b57f      	push	{r0, r1, r2, r3, r4, r5, r6, lr}
 8000c32:	2217      	movs	r2, #23
 8000c34:	2301      	movs	r3, #1
 8000c36:	446a      	add	r2, sp
 8000c38:	425b      	negs	r3, r3
 8000c3a:	7010      	strb	r0, [r2, #0]
 8000c3c:	9302      	str	r3, [sp, #8]
 8000c3e:	3302      	adds	r3, #2
 8000c40:	9200      	str	r2, [sp, #0]
 8000c42:	2178      	movs	r1, #120	@ 0x78
 8000c44:	2200      	movs	r2, #0
 8000c46:	9301      	str	r3, [sp, #4]
 8000c48:	4802      	ldr	r0, [pc, #8]	@ (8000c54 <ssd1306_WriteCommand+0x24>)
 8000c4a:	f001 fdcf 	bl	80027ec <HAL_I2C_Mem_Write>
 8000c4e:	b007      	add	sp, #28
 8000c50:	bd00      	pop	{pc}
 8000c52:	46c0      	nop			@ (mov r8, r8)
 8000c54:	2000021c 	.word	0x2000021c

08000c58 <ssd1306_WriteData>:
 8000c58:	b513      	push	{r0, r1, r4, lr}
 8000c5a:	4c05      	ldr	r4, [pc, #20]	@ (8000c70 <ssd1306_WriteData+0x18>)
 8000c5c:	b289      	uxth	r1, r1
 8000c5e:	9101      	str	r1, [sp, #4]
 8000c60:	9000      	str	r0, [sp, #0]
 8000c62:	2301      	movs	r3, #1
 8000c64:	2240      	movs	r2, #64	@ 0x40
 8000c66:	2178      	movs	r1, #120	@ 0x78
 8000c68:	0020      	movs	r0, r4
 8000c6a:	f001 fe99 	bl	80029a0 <HAL_I2C_Mem_Write_DMA>
 8000c6e:	bd13      	pop	{r0, r1, r4, pc}
 8000c70:	2000021c 	.word	0x2000021c

08000c74 <ssd1306_UpdatePage>:
 8000c74:	b510      	push	{r4, lr}
 8000c76:	0004      	movs	r4, r0
 8000c78:	3850      	subs	r0, #80	@ 0x50
 8000c7a:	b2c0      	uxtb	r0, r0
 8000c7c:	f7ff ffd8 	bl	8000c30 <ssd1306_WriteCommand>
 8000c80:	2000      	movs	r0, #0
 8000c82:	f7ff ffd5 	bl	8000c30 <ssd1306_WriteCommand>
 8000c86:	2010      	movs	r0, #16
 8000c88:	f7ff ffd2 	bl	8000c30 <ssd1306_WriteCommand>
 8000c8c:	4b03      	ldr	r3, [pc, #12]	@ (8000c9c <ssd1306_UpdatePage+0x28>)
 8000c8e:	01e0      	lsls	r0, r4, #7
 8000c90:	2180      	movs	r1, #128	@ 0x80
 8000c92:	18c0      	adds	r0, r0, r3
 8000c94:	f7ff ffe0 	bl	8000c58 <ssd1306_WriteData>
 8000c98:	bd10      	pop	{r4, pc}
 8000c9a:	46c0      	nop			@ (mov r8, r8)
 8000c9c:	2000027c 	.word	0x2000027c

08000ca0 <ssd1306_UpdateScreen>:
 8000ca0:	2000      	movs	r0, #0
 8000ca2:	b510      	push	{r4, lr}
 8000ca4:	4b02      	ldr	r3, [pc, #8]	@ (8000cb0 <ssd1306_UpdateScreen+0x10>)
 8000ca6:	7018      	strb	r0, [r3, #0]
 8000ca8:	f7ff ffe4 	bl	8000c74 <ssd1306_UpdatePage>
 8000cac:	bd10      	pop	{r4, pc}
 8000cae:	46c0      	nop			@ (mov r8, r8)
 8000cb0:	20000274 	.word	0x20000274

08000cb4 <HAL_I2C_MemTxCpltCallback>:
 8000cb4:	4b06      	ldr	r3, [pc, #24]	@ (8000cd0 <HAL_I2C_MemTxCpltCallback+0x1c>)
 8000cb6:	b510      	push	{r4, lr}
 8000cb8:	4283      	cmp	r3, r0
 8000cba:	d108      	bne.n	8000cce <HAL_I2C_MemTxCpltCallback+0x1a>
 8000cbc:	4b05      	ldr	r3, [pc, #20]	@ (8000cd4 <HAL_I2C_MemTxCpltCallback+0x20>)
 8000cbe:	7818      	ldrb	r0, [r3, #0]
 8000cc0:	3001      	adds	r0, #1
 8000cc2:	b2c0      	uxtb	r0, r0
 8000cc4:	7018      	strb	r0, [r3, #0]
 8000cc6:	2807      	cmp	r0, #7
 8000cc8:	d801      	bhi.n	8000cce <HAL_I2C_MemTxCpltCallback+0x1a>
 8000cca:	f7ff ffd3 	bl	8000c74 <ssd1306_UpdatePage>
 8000cce:	bd10      	pop	{r4, pc}
 8000cd0:	2000021c 	.word	0x2000021c
 8000cd4:	20000274 	.word	0x20000274

08000cd8 <ssd1306_Fill>:
 8000cd8:	1e43      	subs	r3, r0, #1
 8000cda:	4198      	sbcs	r0, r3
 8000cdc:	2280      	movs	r2, #128	@ 0x80
 8000cde:	b510      	push	{r4, lr}
 8000ce0:	4241      	negs	r1, r0
 8000ce2:	b2c9      	uxtb	r1, r1
 8000ce4:	4802      	ldr	r0, [pc, #8]	@ (8000cf0 <ssd1306_Fill+0x18>)
 8000ce6:	00d2      	lsls	r2, r2, #3
 8000ce8:	f003 fe8c 	bl	8004a04 <memset>
 8000cec:	bd10      	pop	{r4, pc}
 8000cee:	46c0      	nop			@ (mov r8, r8)
 8000cf0:	2000027c 	.word	0x2000027c

08000cf4 <ssd1306_DrawPixel>:
 8000cf4:	b243      	sxtb	r3, r0
 8000cf6:	b530      	push	{r4, r5, lr}
 8000cf8:	2b00      	cmp	r3, #0
 8000cfa:	db0e      	blt.n	8000d1a <ssd1306_DrawPixel+0x26>
 8000cfc:	293f      	cmp	r1, #63	@ 0x3f
 8000cfe:	d80c      	bhi.n	8000d1a <ssd1306_DrawPixel+0x26>
 8000d00:	2407      	movs	r4, #7
 8000d02:	08cb      	lsrs	r3, r1, #3
 8000d04:	01db      	lsls	r3, r3, #7
 8000d06:	4d06      	ldr	r5, [pc, #24]	@ (8000d20 <ssd1306_DrawPixel+0x2c>)
 8000d08:	4021      	ands	r1, r4
 8000d0a:	1818      	adds	r0, r3, r0
 8000d0c:	3c06      	subs	r4, #6
 8000d0e:	408c      	lsls	r4, r1
 8000d10:	5c2b      	ldrb	r3, [r5, r0]
 8000d12:	2a01      	cmp	r2, #1
 8000d14:	d102      	bne.n	8000d1c <ssd1306_DrawPixel+0x28>
 8000d16:	4323      	orrs	r3, r4
 8000d18:	542b      	strb	r3, [r5, r0]
 8000d1a:	bd30      	pop	{r4, r5, pc}
 8000d1c:	43a3      	bics	r3, r4
 8000d1e:	e7fb      	b.n	8000d18 <ssd1306_DrawPixel+0x24>
 8000d20:	2000027c 	.word	0x2000027c

08000d24 <ssd1306_WriteChar>:
 8000d24:	b5f0      	push	{r4, r5, r6, r7, lr}
 8000d26:	0004      	movs	r4, r0
 8000d28:	b08d      	sub	sp, #52	@ 0x34
 8000d2a:	930b      	str	r3, [sp, #44]	@ 0x2c
 8000d2c:	ab12      	add	r3, sp, #72	@ 0x48
 8000d2e:	781b      	ldrb	r3, [r3, #0]
 8000d30:	a809      	add	r0, sp, #36	@ 0x24
 8000d32:	9307      	str	r3, [sp, #28]
 8000d34:	0023      	movs	r3, r4
 8000d36:	3b20      	subs	r3, #32
 8000d38:	9304      	str	r3, [sp, #16]
 8000d3a:	466b      	mov	r3, sp
 8000d3c:	7c1b      	ldrb	r3, [r3, #16]
 8000d3e:	9109      	str	r1, [sp, #36]	@ 0x24
 8000d40:	920a      	str	r2, [sp, #40]	@ 0x28
 8000d42:	2b5e      	cmp	r3, #94	@ 0x5e
 8000d44:	d848      	bhi.n	8000dd8 <ssd1306_WriteChar+0xb4>
 8000d46:	7803      	ldrb	r3, [r0, #0]
 8000d48:	9303      	str	r3, [sp, #12]
 8000d4a:	4b24      	ldr	r3, [pc, #144]	@ (8000ddc <ssd1306_WriteChar+0xb8>)
 8000d4c:	9903      	ldr	r1, [sp, #12]
 8000d4e:	881a      	ldrh	r2, [r3, #0]
 8000d50:	9201      	str	r2, [sp, #4]
 8000d52:	1852      	adds	r2, r2, r1
 8000d54:	2a80      	cmp	r2, #128	@ 0x80
 8000d56:	dc3f      	bgt.n	8000dd8 <ssd1306_WriteChar+0xb4>
 8000d58:	7847      	ldrb	r7, [r0, #1]
 8000d5a:	885b      	ldrh	r3, [r3, #2]
 8000d5c:	9305      	str	r3, [sp, #20]
 8000d5e:	19db      	adds	r3, r3, r7
 8000d60:	2b40      	cmp	r3, #64	@ 0x40
 8000d62:	dc39      	bgt.n	8000dd8 <ssd1306_WriteChar+0xb4>
 8000d64:	2600      	movs	r6, #0
 8000d66:	9b0b      	ldr	r3, [sp, #44]	@ 0x2c
 8000d68:	9306      	str	r3, [sp, #24]
 8000d6a:	9b04      	ldr	r3, [sp, #16]
 8000d6c:	437b      	muls	r3, r7
 8000d6e:	005b      	lsls	r3, r3, #1
 8000d70:	9302      	str	r3, [sp, #8]
 8000d72:	42b7      	cmp	r7, r6
 8000d74:	d80d      	bhi.n	8000d92 <ssd1306_WriteChar+0x6e>
 8000d76:	9a06      	ldr	r2, [sp, #24]
 8000d78:	9b03      	ldr	r3, [sp, #12]
 8000d7a:	2a00      	cmp	r2, #0
 8000d7c:	d002      	beq.n	8000d84 <ssd1306_WriteChar+0x60>
 8000d7e:	0013      	movs	r3, r2
 8000d80:	9a04      	ldr	r2, [sp, #16]
 8000d82:	5c9b      	ldrb	r3, [r3, r2]
 8000d84:	9901      	ldr	r1, [sp, #4]
 8000d86:	4a15      	ldr	r2, [pc, #84]	@ (8000ddc <ssd1306_WriteChar+0xb8>)
 8000d88:	18cb      	adds	r3, r1, r3
 8000d8a:	8013      	strh	r3, [r2, #0]
 8000d8c:	0020      	movs	r0, r4
 8000d8e:	b00d      	add	sp, #52	@ 0x34
 8000d90:	bdf0      	pop	{r4, r5, r6, r7, pc}
 8000d92:	2500      	movs	r5, #0
 8000d94:	9b0a      	ldr	r3, [sp, #40]	@ 0x28
 8000d96:	9a02      	ldr	r2, [sp, #8]
 8000d98:	5a9b      	ldrh	r3, [r3, r2]
 8000d9a:	9308      	str	r3, [sp, #32]
 8000d9c:	9b03      	ldr	r3, [sp, #12]
 8000d9e:	42ab      	cmp	r3, r5
 8000da0:	d804      	bhi.n	8000dac <ssd1306_WriteChar+0x88>
 8000da2:	9b02      	ldr	r3, [sp, #8]
 8000da4:	3601      	adds	r6, #1
 8000da6:	3302      	adds	r3, #2
 8000da8:	9302      	str	r3, [sp, #8]
 8000daa:	e7e2      	b.n	8000d72 <ssd1306_WriteChar+0x4e>
 8000dac:	9b01      	ldr	r3, [sp, #4]
 8000dae:	2280      	movs	r2, #128	@ 0x80
 8000db0:	18e8      	adds	r0, r5, r3
 8000db2:	9b05      	ldr	r3, [sp, #20]
 8000db4:	0212      	lsls	r2, r2, #8
 8000db6:	18f1      	adds	r1, r6, r3
 8000db8:	9b08      	ldr	r3, [sp, #32]
 8000dba:	b2c0      	uxtb	r0, r0
 8000dbc:	40ab      	lsls	r3, r5
 8000dbe:	b2c9      	uxtb	r1, r1
 8000dc0:	4213      	tst	r3, r2
 8000dc2:	d004      	beq.n	8000dce <ssd1306_WriteChar+0xaa>
 8000dc4:	9a07      	ldr	r2, [sp, #28]
 8000dc6:	f7ff ff95 	bl	8000cf4 <ssd1306_DrawPixel>
 8000dca:	3501      	adds	r5, #1
 8000dcc:	e7e6      	b.n	8000d9c <ssd1306_WriteChar+0x78>
 8000dce:	9b07      	ldr	r3, [sp, #28]
 8000dd0:	425a      	negs	r2, r3
 8000dd2:	415a      	adcs	r2, r3
 8000dd4:	b2d2      	uxtb	r2, r2
 8000dd6:	e7f6      	b.n	8000dc6 <ssd1306_WriteChar+0xa2>
 8000dd8:	2400      	movs	r4, #0
 8000dda:	e7d7      	b.n	8000d8c <ssd1306_WriteChar+0x68>
 8000ddc:	20000276 	.word	0x20000276

08000de0 <ssd1306_WriteString>:
 8000de0:	b530      	push	{r4, r5, lr}
 8000de2:	0004      	movs	r4, r0
 8000de4:	b087      	sub	sp, #28
 8000de6:	9305      	str	r3, [sp, #20]
 8000de8:	ab0a      	add	r3, sp, #40	@ 0x28
 8000dea:	781d      	ldrb	r5, [r3, #0]
 8000dec:	9103      	str	r1, [sp, #12]
 8000dee:	9204      	str	r2, [sp, #16]
 8000df0:	7820      	ldrb	r0, [r4, #0]
 8000df2:	2800      	cmp	r0, #0
 8000df4:	d101      	bne.n	8000dfa <ssd1306_WriteString+0x1a>
 8000df6:	b007      	add	sp, #28
 8000df8:	bd30      	pop	{r4, r5, pc}
 8000dfa:	9b05      	ldr	r3, [sp, #20]
 8000dfc:	9903      	ldr	r1, [sp, #12]
 8000dfe:	9a04      	ldr	r2, [sp, #16]
 8000e00:	9500      	str	r5, [sp, #0]
 8000e02:	f7ff ff8f 	bl	8000d24 <ssd1306_WriteChar>
 8000e06:	0003      	movs	r3, r0
 8000e08:	7820      	ldrb	r0, [r4, #0]
 8000e0a:	4283      	cmp	r3, r0
 8000e0c:	d1f3      	bne.n	8000df6 <ssd1306_WriteString+0x16>
 8000e0e:	3401      	adds	r4, #1
 8000e10:	e7ee      	b.n	8000df0 <ssd1306_WriteString+0x10>
	...

08000e14 <ssd1306_SetCursor>:
 8000e14:	4b01      	ldr	r3, [pc, #4]	@ (8000e1c <ssd1306_SetCursor+0x8>)
 8000e16:	8018      	strh	r0, [r3, #0]
 8000e18:	8059      	strh	r1, [r3, #2]
 8000e1a:	4770      	bx	lr
 8000e1c:	20000276 	.word	0x20000276

08000e20 <ssd1306_SetContrast>:
 8000e20:	b510      	push	{r4, lr}
 8000e22:	0004      	movs	r4, r0
 8000e24:	2081      	movs	r0, #129	@ 0x81
 8000e26:	f7ff ff03 	bl	8000c30 <ssd1306_WriteCommand>
 8000e2a:	0020      	movs	r0, r4
 8000e2c:	f7ff ff00 	bl	8000c30 <ssd1306_WriteCommand>
 8000e30:	bd10      	pop	{r4, pc}
	...

08000e34 <ssd1306_SetDisplayOn>:
 8000e34:	0003      	movs	r3, r0
 8000e36:	b510      	push	{r4, lr}
 8000e38:	20ae      	movs	r0, #174	@ 0xae
 8000e3a:	2b00      	cmp	r3, #0
 8000e3c:	d001      	beq.n	8000e42 <ssd1306_SetDisplayOn+0xe>
 8000e3e:	2301      	movs	r3, #1
 8000e40:	18c0      	adds	r0, r0, r3
 8000e42:	4a02      	ldr	r2, [pc, #8]	@ (8000e4c <ssd1306_SetDisplayOn+0x18>)
 8000e44:	7153      	strb	r3, [r2, #5]
 8000e46:	f7ff fef3 	bl	8000c30 <ssd1306_WriteCommand>
 8000e4a:	bd10      	pop	{r4, pc}
 8000e4c:	20000276 	.word	0x20000276

08000e50 <ssd1306_Init>:
 8000e50:	b510      	push	{r4, lr}
 8000e52:	2064      	movs	r0, #100	@ 0x64
 8000e54:	f000 fcf8 	bl	8001848 <HAL_Delay>
 8000e58:	2000      	movs	r0, #0
 8000e5a:	f7ff ffeb 	bl	8000e34 <ssd1306_SetDisplayOn>
 8000e5e:	2020      	movs	r0, #32
 8000e60:	f7ff fee6 	bl	8000c30 <ssd1306_WriteCommand>
 8000e64:	2000      	movs	r0, #0
 8000e66:	f7ff fee3 	bl	8000c30 <ssd1306_WriteCommand>
 8000e6a:	20b0      	movs	r0, #176	@ 0xb0
 8000e6c:	f7ff fee0 	bl	8000c30 <ssd1306_WriteCommand>
 8000e70:	20c0      	movs	r0, #192	@ 0xc0
 8000e72:	f7ff fedd 	bl	8000c30 <ssd1306_WriteCommand>
 8000e76:	2000      	movs	r0, #0
 8000e78:	f7ff feda 	bl	8000c30 <ssd1306_WriteCommand>
 8000e7c:	2010      	movs	r0, #16
 8000e7e:	f7ff fed7 	bl	8000c30 <ssd1306_WriteCommand>
 8000e82:	2040      	movs	r0, #64	@ 0x40
 8000e84:	f7ff fed4 	bl	8000c30 <ssd1306_WriteCommand>
 8000e88:	20ff      	movs	r0, #255	@ 0xff
 8000e8a:	f7ff ffc9 	bl	8000e20 <ssd1306_SetContrast>
 8000e8e:	20a0      	movs	r0, #160	@ 0xa0
 8000e90:	f7ff fece 	bl	8000c30 <ssd1306_WriteCommand>
 8000e94:	20a6      	movs	r0, #166	@ 0xa6
 8000e96:	f7ff fecb 	bl	8000c30 <ssd1306_WriteCommand>
 8000e9a:	20a8      	movs	r0, #168	@ 0xa8
 8000e9c:	f7ff fec8 	bl	8000c30 <ssd1306_WriteCommand>
 8000ea0:	203f      	movs	r0, #63	@ 0x3f
 8000ea2:	f7ff fec5 	bl	8000c30 <ssd1306_WriteCommand>
 8000ea6:	20a4      	movs	r0, #164	@ 0xa4
 8000ea8:	f7ff fec2 	bl	8000c30 <ssd1306_WriteCommand>
 8000eac:	20d3      	movs	r0, #211	@ 0xd3
 8000eae:	f7ff febf 	bl	8000c30 <ssd1306_WriteCommand>
 8000eb2:	2000      	movs	r0, #0
 8000eb4:	f7ff febc 	bl	8000c30 <ssd1306_WriteCommand>
 8000eb8:	20d5      	movs	r0, #213	@ 0xd5
 8000eba:	f7ff feb9 	bl	8000c30 <ssd1306_WriteCommand>
 8000ebe:	20f0      	movs	r0, #240	@ 0xf0
 8000ec0:	f7ff feb6 	bl	8000c30 <ssd1306_WriteCommand>
 8000ec4:	20d9      	movs	r0, #217	@ 0xd9
 8000ec6:	f7ff feb3 	bl	8000c30 <ssd1306_WriteCommand>
 8000eca:	2022      	movs	r0, #34	@ 0x22
 8000ecc:	f7ff feb0 	bl	8000c30 <ssd1306_WriteCommand>
 8000ed0:	20da      	movs	r0, #218	@ 0xda
 8000ed2:	f7ff fead 	bl	8000c30 <ssd1306_WriteCommand>
 8000ed6:	2012      	movs	r0, #18
 8000ed8:	f7ff feaa 	bl	8000c30 <ssd1306_WriteCommand>
 8000edc:	20db      	movs	r0, #219	@ 0xdb
 8000ede:	f7ff fea7 	bl	8000c30 <ssd1306_WriteCommand>
 8000ee2:	2020      	movs	r0, #32
 8000ee4:	f7ff fea4 	bl	8000c30 <ssd1306_WriteCommand>
 8000ee8:	208d      	movs	r0, #141	@ 0x8d
 8000eea:	f7ff fea1 	bl	8000c30 <ssd1306_WriteCommand>
 8000eee:	2014      	movs	r0, #20
 8000ef0:	f7ff fe9e 	bl	8000c30 <ssd1306_WriteCommand>
 8000ef4:	2001      	movs	r0, #1
 8000ef6:	f7ff ff9d 	bl	8000e34 <ssd1306_SetDisplayOn>
 8000efa:	2000      	movs	r0, #0
 8000efc:	f7ff feec 	bl	8000cd8 <ssd1306_Fill>
 8000f00:	f7ff fece 	bl	8000ca0 <ssd1306_UpdateScreen>
 8000f04:	2200      	movs	r2, #0
 8000f06:	4b03      	ldr	r3, [pc, #12]	@ (8000f14 <ssd1306_Init+0xc4>)
 8000f08:	801a      	strh	r2, [r3, #0]
 8000f0a:	805a      	strh	r2, [r3, #2]
 8000f0c:	3201      	adds	r2, #1
 8000f0e:	711a      	strb	r2, [r3, #4]
 8000f10:	bd10      	pop	{r4, pc}
 8000f12:	46c0      	nop			@ (mov r8, r8)
 8000f14:	20000276 	.word	0x20000276

08000f18 <increment_steps>:
 8000f18:	4b02      	ldr	r3, [pc, #8]	@ (8000f24 <increment_steps+0xc>)
 8000f1a:	881a      	ldrh	r2, [r3, #0]
 8000f1c:	1880      	adds	r0, r0, r2
 8000f1e:	8018      	strh	r0, [r3, #0]
 8000f20:	4770      	bx	lr
 8000f22:	46c0      	nop			@ (mov r8, r8)
 8000f24:	20000690 	.word	0x20000690

08000f28 <set_step_count>:
 8000f28:	4b01      	ldr	r3, [pc, #4]	@ (8000f30 <set_step_count+0x8>)
 8000f2a:	8018      	strh	r0, [r3, #0]
 8000f2c:	4770      	bx	lr
 8000f2e:	46c0      	nop			@ (mov r8, r8)
 8000f30:	20000690 	.word	0x20000690

08000f34 <get_step_count>:
 8000f34:	4b01      	ldr	r3, [pc, #4]	@ (8000f3c <get_step_count+0x8>)
 8000f36:	8818      	ldrh	r0, [r3, #0]
 8000f38:	4770      	bx	lr
 8000f3a:	46c0      	nop			@ (mov r8, r8)
 8000f3c:	20000690 	.word	0x20000690

08000f40 <toggle_step_unit>:
 8000f40:	2301      	movs	r3, #1
 8000f42:	4a02      	ldr	r2, [pc, #8]	@ (8000f4c <toggle_step_unit+0xc>)
 8000f44:	7811      	ldrb	r1, [r2, #0]
 8000f46:	404b      	eors	r3, r1
 8000f48:	7013      	strb	r3, [r2, #0]
 8000f4a:	4770      	bx	lr
 8000f4c:	2000068f 	.word	0x2000068f

08000f50 <steps_state_task_execute>:
 8000f50:	4b0f      	ldr	r3, [pc, #60]	@ (8000f90 <steps_state_task_execute+0x40>)
 8000f52:	b537      	push	{r0, r1, r2, r4, r5, lr}
 8000f54:	881d      	ldrh	r5, [r3, #0]
 8000f56:	4b0f      	ldr	r3, [pc, #60]	@ (8000f94 <steps_state_task_execute+0x44>)
 8000f58:	4c0f      	ldr	r4, [pc, #60]	@ (8000f98 <steps_state_task_execute+0x48>)
 8000f5a:	781b      	ldrb	r3, [r3, #0]
 8000f5c:	2b00      	cmp	r3, #0
 8000f5e:	d014      	beq.n	8000f8a <steps_state_task_execute+0x3a>
 8000f60:	f000 f86e 	bl	8001040 <get_step_goal>
 8000f64:	0001      	movs	r1, r0
 8000f66:	2064      	movs	r0, #100	@ 0x64
 8000f68:	4368      	muls	r0, r5
 8000f6a:	f7ff f96b 	bl	8000244 <__divsi3>
 8000f6e:	4a0b      	ldr	r2, [pc, #44]	@ (8000f9c <steps_state_task_execute+0x4c>)
 8000f70:	b283      	uxth	r3, r0
 8000f72:	2113      	movs	r1, #19
 8000f74:	0020      	movs	r0, r4
 8000f76:	f003 fd11 	bl	800499c <sniprintf>
 8000f7a:	2201      	movs	r2, #1
 8000f7c:	4b08      	ldr	r3, [pc, #32]	@ (8000fa0 <steps_state_task_execute+0x50>)
 8000f7e:	9200      	str	r2, [sp, #0]
 8000f80:	0020      	movs	r0, r4
 8000f82:	cb0e      	ldmia	r3, {r1, r2, r3}
 8000f84:	f7ff ff2c 	bl	8000de0 <ssd1306_WriteString>
 8000f88:	bd37      	pop	{r0, r1, r2, r4, r5, pc}
 8000f8a:	002b      	movs	r3, r5
 8000f8c:	4a05      	ldr	r2, [pc, #20]	@ (8000fa4 <steps_state_task_execute+0x54>)
 8000f8e:	e7f0      	b.n	8000f72 <steps_state_task_execute+0x22>
 8000f90:	20000690 	.word	0x20000690
 8000f94:	2000068f 	.word	0x2000068f
 8000f98:	2000067c 	.word	0x2000067c
 8000f9c:	08005a90 	.word	0x08005a90
 8000fa0:	08005318 	.word	0x08005318
 8000fa4:	08005aa3 	.word	0x08005aa3

08000fa8 <toggle_distance_unit>:
 8000fa8:	2301      	movs	r3, #1
 8000faa:	4a02      	ldr	r2, [pc, #8]	@ (8000fb4 <toggle_distance_unit+0xc>)
 8000fac:	7811      	ldrb	r1, [r2, #0]
 8000fae:	404b      	eors	r3, r1
 8000fb0:	7013      	strb	r3, [r2, #0]
 8000fb2:	4770      	bx	lr
 8000fb4:	200006a5 	.word	0x200006a5

08000fb8 <distance_state_task_execute>:
 8000fb8:	b5f7      	push	{r0, r1, r2, r4, r5, r6, r7, lr}
 8000fba:	f7ff ffbb 	bl	8000f34 <get_step_count>
 8000fbe:	2350      	movs	r3, #80	@ 0x50
 8000fc0:	2164      	movs	r1, #100	@ 0x64
 8000fc2:	4358      	muls	r0, r3
 8000fc4:	f7ff f8b4 	bl	8000130 <__udivsi3>
 8000fc8:	4b17      	ldr	r3, [pc, #92]	@ (8001028 <distance_state_task_execute+0x70>)
 8000fca:	4d18      	ldr	r5, [pc, #96]	@ (800102c <distance_state_task_execute+0x74>)
 8000fcc:	781b      	ldrb	r3, [r3, #0]
 8000fce:	2b00      	cmp	r3, #0
 8000fd0:	d013      	beq.n	8000ffa <distance_state_task_execute+0x42>
 8000fd2:	21fa      	movs	r1, #250	@ 0xfa
 8000fd4:	4b16      	ldr	r3, [pc, #88]	@ (8001030 <distance_state_task_execute+0x78>)
 8000fd6:	0089      	lsls	r1, r1, #2
 8000fd8:	4358      	muls	r0, r3
 8000fda:	f7ff f8a9 	bl	8000130 <__udivsi3>
 8000fde:	2113      	movs	r1, #19
 8000fe0:	0003      	movs	r3, r0
 8000fe2:	4a14      	ldr	r2, [pc, #80]	@ (8001034 <distance_state_task_execute+0x7c>)
 8000fe4:	0028      	movs	r0, r5
 8000fe6:	f003 fcd9 	bl	800499c <sniprintf>
 8000fea:	2201      	movs	r2, #1
 8000fec:	4b12      	ldr	r3, [pc, #72]	@ (8001038 <distance_state_task_execute+0x80>)
 8000fee:	0028      	movs	r0, r5
 8000ff0:	9200      	str	r2, [sp, #0]
 8000ff2:	cb0e      	ldmia	r3, {r1, r2, r3}
 8000ff4:	f7ff fef4 	bl	8000de0 <ssd1306_WriteString>
 8000ff8:	bdf7      	pop	{r0, r1, r2, r4, r5, r6, r7, pc}
 8000ffa:	21fa      	movs	r1, #250	@ 0xfa
 8000ffc:	b284      	uxth	r4, r0
 8000ffe:	0020      	movs	r0, r4
 8001000:	0089      	lsls	r1, r1, #2
 8001002:	f7ff f895 	bl	8000130 <__udivsi3>
 8001006:	21fa      	movs	r1, #250	@ 0xfa
 8001008:	b287      	uxth	r7, r0
 800100a:	0089      	lsls	r1, r1, #2
 800100c:	0020      	movs	r0, r4
 800100e:	f7ff f915 	bl	800023c <__aeabi_uidivmod>
 8001012:	4e0a      	ldr	r6, [pc, #40]	@ (800103c <distance_state_task_execute+0x84>)
 8001014:	b289      	uxth	r1, r1
 8001016:	9100      	str	r1, [sp, #0]
 8001018:	003b      	movs	r3, r7
 800101a:	0032      	movs	r2, r6
 800101c:	2113      	movs	r1, #19
 800101e:	0028      	movs	r0, r5
 8001020:	f003 fcbc 	bl	800499c <sniprintf>
 8001024:	e7e1      	b.n	8000fea <distance_state_task_execute+0x32>
 8001026:	46c0      	nop			@ (mov r8, r8)
 8001028:	200006a5 	.word	0x200006a5
 800102c:	20000692 	.word	0x20000692
 8001030:	00000445 	.word	0x00000445
 8001034:	08005ab6 	.word	0x08005ab6
 8001038:	08005318 	.word	0x08005318
 800103c:	08005acb 	.word	0x08005acb

08001040 <get_step_goal>:
 8001040:	4b01      	ldr	r3, [pc, #4]	@ (8001048 <get_step_goal+0x8>)
 8001042:	8818      	ldrh	r0, [r3, #0]
 8001044:	4770      	bx	lr
 8001046:	46c0      	nop			@ (mov r8, r8)
 8001048:	20000064 	.word	0x20000064

0800104c <update_step_goal>:
 800104c:	4a02      	ldr	r2, [pc, #8]	@ (8001058 <update_step_goal+0xc>)
 800104e:	4b03      	ldr	r3, [pc, #12]	@ (800105c <update_step_goal+0x10>)
 8001050:	8812      	ldrh	r2, [r2, #0]
 8001052:	801a      	strh	r2, [r3, #0]
 8001054:	4770      	bx	lr
 8001056:	46c0      	nop			@ (mov r8, r8)
 8001058:	200006cc 	.word	0x200006cc
 800105c:	20000064 	.word	0x20000064

08001060 <modify_state_task_execute>:
 8001060:	b513      	push	{r0, r1, r4, lr}
 8001062:	f7ff fdc5 	bl	8000bf0 <get_scaled_pot_value>
 8001066:	4c08      	ldr	r4, [pc, #32]	@ (8001088 <modify_state_task_execute+0x28>)
 8001068:	4a08      	ldr	r2, [pc, #32]	@ (800108c <modify_state_task_execute+0x2c>)
 800106a:	0003      	movs	r3, r0
 800106c:	8010      	strh	r0, [r2, #0]
 800106e:	2113      	movs	r1, #19
 8001070:	0020      	movs	r0, r4
 8001072:	4a07      	ldr	r2, [pc, #28]	@ (8001090 <modify_state_task_execute+0x30>)
 8001074:	f003 fc92 	bl	800499c <sniprintf>
 8001078:	2201      	movs	r2, #1
 800107a:	4b06      	ldr	r3, [pc, #24]	@ (8001094 <modify_state_task_execute+0x34>)
 800107c:	9200      	str	r2, [sp, #0]
 800107e:	0020      	movs	r0, r4
 8001080:	cb0e      	ldmia	r3, {r1, r2, r3}
 8001082:	f7ff fead 	bl	8000de0 <ssd1306_WriteString>
 8001086:	bd13      	pop	{r0, r1, r4, pc}
 8001088:	200006b9 	.word	0x200006b9
 800108c:	200006cc 	.word	0x200006cc
 8001090:	08005ae1 	.word	0x08005ae1
 8001094:	08005318 	.word	0x08005318

08001098 <goal_state_task_execute>:
 8001098:	b537      	push	{r0, r1, r2, r4, r5, lr}
 800109a:	f7ff ff4b 	bl	8000f34 <get_step_count>
 800109e:	4b0b      	ldr	r3, [pc, #44]	@ (80010cc <goal_state_task_execute+0x34>)
 80010a0:	881d      	ldrh	r5, [r3, #0]
 80010a2:	2364      	movs	r3, #100	@ 0x64
 80010a4:	0029      	movs	r1, r5
 80010a6:	4358      	muls	r0, r3
 80010a8:	f7ff f8cc 	bl	8000244 <__divsi3>
 80010ac:	4c08      	ldr	r4, [pc, #32]	@ (80010d0 <goal_state_task_execute+0x38>)
 80010ae:	b283      	uxth	r3, r0
 80010b0:	9500      	str	r5, [sp, #0]
 80010b2:	2113      	movs	r1, #19
 80010b4:	0020      	movs	r0, r4
 80010b6:	4a07      	ldr	r2, [pc, #28]	@ (80010d4 <goal_state_task_execute+0x3c>)
 80010b8:	f003 fc70 	bl	800499c <sniprintf>
 80010bc:	2201      	movs	r2, #1
 80010be:	4b06      	ldr	r3, [pc, #24]	@ (80010d8 <goal_state_task_execute+0x40>)
 80010c0:	9200      	str	r2, [sp, #0]
 80010c2:	0020      	movs	r0, r4
 80010c4:	cb0e      	ldmia	r3, {r1, r2, r3}
 80010c6:	f7ff fe8b 	bl	8000de0 <ssd1306_WriteString>
 80010ca:	bd37      	pop	{r0, r1, r2, r4, r5, pc}
 80010cc:	20000064 	.word	0x20000064
 80010d0:	200006a6 	.word	0x200006a6
 80010d4:	08005af6 	.word	0x08005af6
 80010d8:	08005318 	.word	0x08005318

080010dc <test_state_task_execute>:
 80010dc:	b5f0      	push	{r4, r5, r6, r7, lr}
 80010de:	b085      	sub	sp, #20
 80010e0:	f7ff fcdc 	bl	8000a9c <get_percentage_coordinates>
 80010e4:	0404      	lsls	r4, r0, #16
 80010e6:	1624      	asrs	r4, r4, #24
 80010e8:	0023      	movs	r3, r4
 80010ea:	3327      	adds	r3, #39	@ 0x27
 80010ec:	2b4e      	cmp	r3, #78	@ 0x4e
 80010ee:	d809      	bhi.n	8001104 <test_state_task_execute+0x28>
 80010f0:	4b26      	ldr	r3, [pc, #152]	@ (800118c <test_state_task_execute+0xb0>)
 80010f2:	781a      	ldrb	r2, [r3, #0]
 80010f4:	2a00      	cmp	r2, #0
 80010f6:	d003      	beq.n	8001100 <test_state_task_execute+0x24>
 80010f8:	2200      	movs	r2, #0
 80010fa:	701a      	strb	r2, [r3, #0]
 80010fc:	b005      	add	sp, #20
 80010fe:	bdf0      	pop	{r4, r5, r6, r7, pc}
 8001100:	2201      	movs	r2, #1
 8001102:	701a      	strb	r2, [r3, #0]
 8001104:	f7ff ff9c 	bl	8001040 <get_step_goal>
 8001108:	0006      	movs	r6, r0
 800110a:	f7ff ff13 	bl	8000f34 <get_step_count>
 800110e:	21fa      	movs	r1, #250	@ 0xfa
 8001110:	0005      	movs	r5, r0
 8001112:	0089      	lsls	r1, r1, #2
 8001114:	0030      	movs	r0, r6
 8001116:	f7ff f80b 	bl	8000130 <__udivsi3>
 800111a:	b283      	uxth	r3, r0
 800111c:	0020      	movs	r0, r4
 800111e:	4360      	muls	r0, r4
 8001120:	2146      	movs	r1, #70	@ 0x46
 8001122:	4358      	muls	r0, r3
 8001124:	f7ff f88e 	bl	8000244 <__divsi3>
 8001128:	2c00      	cmp	r4, #0
 800112a:	dd21      	ble.n	8001170 <test_state_task_execute+0x94>
 800112c:	1a28      	subs	r0, r5, r0
 800112e:	b280      	uxth	r0, r0
 8001130:	210a      	movs	r1, #10
 8001132:	f7fe fffd 	bl	8000130 <__udivsi3>
 8001136:	270a      	movs	r7, #10
 8001138:	b280      	uxth	r0, r0
 800113a:	4347      	muls	r7, r0
 800113c:	b2bf      	uxth	r7, r7
 800113e:	2c00      	cmp	r4, #0
 8001140:	da1e      	bge.n	8001180 <test_state_task_execute+0xa4>
 8001142:	1c33      	adds	r3, r6, #0
 8001144:	42be      	cmp	r6, r7
 8001146:	d900      	bls.n	800114a <test_state_task_execute+0x6e>
 8001148:	1c3b      	adds	r3, r7, #0
 800114a:	b29f      	uxth	r7, r3
 800114c:	0038      	movs	r0, r7
 800114e:	f7ff feeb 	bl	8000f28 <set_step_count>
 8001152:	4c0f      	ldr	r4, [pc, #60]	@ (8001190 <test_state_task_execute+0xb4>)
 8001154:	003b      	movs	r3, r7
 8001156:	2113      	movs	r1, #19
 8001158:	0020      	movs	r0, r4
 800115a:	4a0e      	ldr	r2, [pc, #56]	@ (8001194 <test_state_task_execute+0xb8>)
 800115c:	f003 fc1e 	bl	800499c <sniprintf>
 8001160:	2201      	movs	r2, #1
 8001162:	4b0d      	ldr	r3, [pc, #52]	@ (8001198 <test_state_task_execute+0xbc>)
 8001164:	9200      	str	r2, [sp, #0]
 8001166:	0020      	movs	r0, r4
 8001168:	cb0e      	ldmia	r3, {r1, r2, r3}
 800116a:	f7ff fe39 	bl	8000de0 <ssd1306_WriteString>
 800116e:	e7c5      	b.n	80010fc <test_state_task_execute+0x20>
 8001170:	2c00      	cmp	r4, #0
 8001172:	d003      	beq.n	800117c <test_state_task_execute+0xa0>
 8001174:	42ae      	cmp	r6, r5
 8001176:	d3c1      	bcc.n	80010fc <test_state_task_execute+0x20>
 8001178:	1828      	adds	r0, r5, r0
 800117a:	e7d8      	b.n	800112e <test_state_task_execute+0x52>
 800117c:	0028      	movs	r0, r5
 800117e:	e7d7      	b.n	8001130 <test_state_task_execute+0x54>
 8001180:	2c00      	cmp	r4, #0
 8001182:	d0e3      	beq.n	800114c <test_state_task_execute+0x70>
 8001184:	42bd      	cmp	r5, r7
 8001186:	d2e1      	bcs.n	800114c <test_state_task_execute+0x70>
 8001188:	2700      	movs	r7, #0
 800118a:	e7df      	b.n	800114c <test_state_task_execute+0x70>
 800118c:	200006e1 	.word	0x200006e1
 8001190:	200006ce 	.word	0x200006ce
 8001194:	08005b0b 	.word	0x08005b0b
 8001198:	08005318 	.word	0x08005318

0800119c <HAL_MspInit>:
 800119c:	2101      	movs	r1, #1
 800119e:	4b0a      	ldr	r3, [pc, #40]	@ (80011c8 <HAL_MspInit+0x2c>)
 80011a0:	b082      	sub	sp, #8
 80011a2:	6c1a      	ldr	r2, [r3, #64]	@ 0x40
 80011a4:	430a      	orrs	r2, r1
 80011a6:	641a      	str	r2, [r3, #64]	@ 0x40
 80011a8:	6c1a      	ldr	r2, [r3, #64]	@ 0x40
 80011aa:	400a      	ands	r2, r1
 80011ac:	2180      	movs	r1, #128	@ 0x80
 80011ae:	9200      	str	r2, [sp, #0]
 80011b0:	9a00      	ldr	r2, [sp, #0]
 80011b2:	6bda      	ldr	r2, [r3, #60]	@ 0x3c
 80011b4:	0549      	lsls	r1, r1, #21
 80011b6:	430a      	orrs	r2, r1
 80011b8:	63da      	str	r2, [r3, #60]	@ 0x3c
 80011ba:	6bdb      	ldr	r3, [r3, #60]	@ 0x3c
 80011bc:	400b      	ands	r3, r1
 80011be:	9301      	str	r3, [sp, #4]
 80011c0:	9b01      	ldr	r3, [sp, #4]
 80011c2:	b002      	add	sp, #8
 80011c4:	4770      	bx	lr
 80011c6:	46c0      	nop			@ (mov r8, r8)
 80011c8:	40021000 	.word	0x40021000

080011cc <NMI_Handler>:
 80011cc:	e7fe      	b.n	80011cc <NMI_Handler>

080011ce <HardFault_Handler>:
 80011ce:	e7fe      	b.n	80011ce <HardFault_Handler>

080011d0 <SVC_Handler>:
 80011d0:	4770      	bx	lr

080011d2 <PendSV_Handler>:
 80011d2:	4770      	bx	lr

080011d4 <SysTick_Handler>:
 80011d4:	b510      	push	{r4, lr}
 80011d6:	f000 fb25 	bl	8001824 <HAL_IncTick>
 80011da:	bd10      	pop	{r4, pc}

080011dc <EXTI4_15_IRQHandler>:
 80011dc:	2080      	movs	r0, #128	@ 0x80
 80011de:	b510      	push	{r4, lr}
 80011e0:	00c0      	lsls	r0, r0, #3
 80011e2:	f001 f8fb 	bl	80023dc <HAL_GPIO_EXTI_IRQHandler>
 80011e6:	bd10      	pop	{r4, pc}

080011e8 <DMA1_Channel1_IRQHandler>:
 80011e8:	b510      	push	{r4, lr}
 80011ea:	4802      	ldr	r0, [pc, #8]	@ (80011f4 <DMA1_Channel1_IRQHandler+0xc>)
 80011ec:	f000 ffd6 	bl	800219c <HAL_DMA_IRQHandler>
 80011f0:	bd10      	pop	{r4, pc}
 80011f2:	46c0      	nop			@ (mov r8, r8)
 80011f4:	200000e0 	.word	0x200000e0

080011f8 <DMA1_Channel2_3_IRQHandler>:
 80011f8:	b510      	push	{r4, lr}
 80011fa:	4802      	ldr	r0, [pc, #8]	@ (8001204 <DMA1_Channel2_3_IRQHandler+0xc>)
 80011fc:	f000 ffce 	bl	800219c <HAL_DMA_IRQHandler>
 8001200:	bd10      	pop	{r4, pc}
 8001202:	46c0      	nop			@ (mov r8, r8)
 8001204:	200001c0 	.word	0x200001c0

08001208 <I2C1_IRQHandler>:
 8001208:	4806      	ldr	r0, [pc, #24]	@ (8001224 <I2C1_IRQHandler+0x1c>)
 800120a:	b510      	push	{r4, lr}
 800120c:	6803      	ldr	r3, [r0, #0]
 800120e:	699a      	ldr	r2, [r3, #24]
 8001210:	23e0      	movs	r3, #224	@ 0xe0
 8001212:	00db      	lsls	r3, r3, #3
 8001214:	421a      	tst	r2, r3
 8001216:	d002      	beq.n	800121e <I2C1_IRQHandler+0x16>
 8001218:	f001 ffc8 	bl	80031ac <HAL_I2C_ER_IRQHandler>
 800121c:	bd10      	pop	{r4, pc}
 800121e:	f001 fc53 	bl	8002ac8 <HAL_I2C_EV_IRQHandler>
 8001222:	e7fb      	b.n	800121c <I2C1_IRQHandler+0x14>
 8001224:	2000021c 	.word	0x2000021c

08001228 <_sbrk>:
 8001228:	490b      	ldr	r1, [pc, #44]	@ (8001258 <_sbrk+0x30>)
 800122a:	4a0c      	ldr	r2, [pc, #48]	@ (800125c <_sbrk+0x34>)
 800122c:	0003      	movs	r3, r0
 800122e:	1a52      	subs	r2, r2, r1
 8001230:	490b      	ldr	r1, [pc, #44]	@ (8001260 <_sbrk+0x38>)
 8001232:	b510      	push	{r4, lr}
 8001234:	6808      	ldr	r0, [r1, #0]
 8001236:	2800      	cmp	r0, #0
 8001238:	d101      	bne.n	800123e <_sbrk+0x16>
 800123a:	480a      	ldr	r0, [pc, #40]	@ (8001264 <_sbrk+0x3c>)
 800123c:	6008      	str	r0, [r1, #0]
 800123e:	6808      	ldr	r0, [r1, #0]
 8001240:	18c3      	adds	r3, r0, r3
 8001242:	4293      	cmp	r3, r2
 8001244:	d906      	bls.n	8001254 <_sbrk+0x2c>
 8001246:	f003 fbe5 	bl	8004a14 <__errno>
 800124a:	230c      	movs	r3, #12
 800124c:	6003      	str	r3, [r0, #0]
 800124e:	2001      	movs	r0, #1
 8001250:	4240      	negs	r0, r0
 8001252:	bd10      	pop	{r4, pc}
 8001254:	600b      	str	r3, [r1, #0]
 8001256:	e7fc      	b.n	8001252 <_sbrk+0x2a>
 8001258:	00000400 	.word	0x00000400
 800125c:	20006000 	.word	0x20006000
 8001260:	200006e4 	.word	0x200006e4
 8001264:	20000970 	.word	0x20000970

08001268 <SystemInit>:
 8001268:	2280      	movs	r2, #128	@ 0x80
 800126a:	4b02      	ldr	r3, [pc, #8]	@ (8001274 <SystemInit+0xc>)
 800126c:	0512      	lsls	r2, r2, #20
 800126e:	609a      	str	r2, [r3, #8]
 8001270:	4770      	bx	lr
 8001272:	46c0      	nop			@ (mov r8, r8)
 8001274:	e000ed00 	.word	0xe000ed00

08001278 <adc_task_execute>:
 8001278:	b510      	push	{r4, lr}
 800127a:	f7ff f995 	bl	80005a8 <adc_controller_update>
 800127e:	bd10      	pop	{r4, pc}

08001280 <buttons_task_init>:
 8001280:	b510      	push	{r4, lr}
 8001282:	f7ff fa17 	bl	80006b4 <buttons_init>
 8001286:	bd10      	pop	{r4, pc}

08001288 <buttons_task_execute>:
 8001288:	b510      	push	{r4, lr}
 800128a:	f7ff fa21 	bl	80006d0 <buttons_update>
 800128e:	f000 f857 	bl	8001340 <get_display_state>
 8001292:	2803      	cmp	r0, #3
 8001294:	d008      	beq.n	80012a8 <buttons_task_execute+0x20>
 8001296:	2000      	movs	r0, #0
 8001298:	f7ff fa7c 	bl	8000794 <buttons_checkButton>
 800129c:	2801      	cmp	r0, #1
 800129e:	d102      	bne.n	80012a6 <buttons_task_execute+0x1e>
 80012a0:	304f      	adds	r0, #79	@ 0x4f
 80012a2:	f7ff fe39 	bl	8000f18 <increment_steps>
 80012a6:	bd10      	pop	{r4, pc}
 80012a8:	2000      	movs	r0, #0
 80012aa:	f7ff fa73 	bl	8000794 <buttons_checkButton>
 80012ae:	e7fa      	b.n	80012a6 <buttons_task_execute+0x1e>

080012b0 <buzzer_task_init>:
 80012b0:	b510      	push	{r4, lr}
 80012b2:	f7ff fa81 	bl	80007b8 <buzzer_init>
 80012b6:	bd10      	pop	{r4, pc}

080012b8 <buzzer_task_execute>:
 80012b8:	b570      	push	{r4, r5, r6, lr}
 80012ba:	f7ff fe3b 	bl	8000f34 <get_step_count>
 80012be:	0006      	movs	r6, r0
 80012c0:	f7ff febe 	bl	8001040 <get_step_goal>
 80012c4:	4c10      	ldr	r4, [pc, #64]	@ (8001308 <buzzer_task_execute+0x50>)
 80012c6:	4d11      	ldr	r5, [pc, #68]	@ (800130c <buzzer_task_execute+0x54>)
 80012c8:	4286      	cmp	r6, r0
 80012ca:	d31b      	bcc.n	8001304 <buzzer_task_execute+0x4c>
 80012cc:	7823      	ldrb	r3, [r4, #0]
 80012ce:	2b00      	cmp	r3, #0
 80012d0:	d007      	beq.n	80012e2 <buzzer_task_execute+0x2a>
 80012d2:	20fa      	movs	r0, #250	@ 0xfa
 80012d4:	2301      	movs	r3, #1
 80012d6:	0040      	lsls	r0, r0, #1
 80012d8:	702b      	strb	r3, [r5, #0]
 80012da:	f7ff fa75 	bl	80007c8 <set_buzzer>
 80012de:	2300      	movs	r3, #0
 80012e0:	7023      	strb	r3, [r4, #0]
 80012e2:	782b      	ldrb	r3, [r5, #0]
 80012e4:	2b00      	cmp	r3, #0
 80012e6:	d00c      	beq.n	8001302 <buzzer_task_execute+0x4a>
 80012e8:	4c09      	ldr	r4, [pc, #36]	@ (8001310 <buzzer_task_execute+0x58>)
 80012ea:	7823      	ldrb	r3, [r4, #0]
 80012ec:	3301      	adds	r3, #1
 80012ee:	b2db      	uxtb	r3, r3
 80012f0:	7023      	strb	r3, [r4, #0]
 80012f2:	2b0a      	cmp	r3, #10
 80012f4:	d905      	bls.n	8001302 <buzzer_task_execute+0x4a>
 80012f6:	2600      	movs	r6, #0
 80012f8:	0030      	movs	r0, r6
 80012fa:	702e      	strb	r6, [r5, #0]
 80012fc:	f7ff fa64 	bl	80007c8 <set_buzzer>
 8001300:	7026      	strb	r6, [r4, #0]
 8001302:	bd70      	pop	{r4, r5, r6, pc}
 8001304:	2301      	movs	r3, #1
 8001306:	e7eb      	b.n	80012e0 <buzzer_task_execute+0x28>
 8001308:	2000006c 	.word	0x2000006c
 800130c:	200006e8 	.word	0x200006e8
 8001310:	200006e9 	.word	0x200006e9

08001314 <display_fsm_task_init>:
 8001314:	b507      	push	{r0, r1, r2, lr}
 8001316:	f7ff fd9b 	bl	8000e50 <ssd1306_Init>
 800131a:	2000      	movs	r0, #0
 800131c:	f7ff fcdc 	bl	8000cd8 <ssd1306_Fill>
 8001320:	2100      	movs	r1, #0
 8001322:	0008      	movs	r0, r1
 8001324:	f7ff fd76 	bl	8000e14 <ssd1306_SetCursor>
 8001328:	2201      	movs	r2, #1
 800132a:	4b03      	ldr	r3, [pc, #12]	@ (8001338 <display_fsm_task_init+0x24>)
 800132c:	9200      	str	r2, [sp, #0]
 800132e:	4803      	ldr	r0, [pc, #12]	@ (800133c <display_fsm_task_init+0x28>)
 8001330:	cb0e      	ldmia	r3, {r1, r2, r3}
 8001332:	f7ff fd55 	bl	8000de0 <ssd1306_WriteString>
 8001336:	bd07      	pop	{r0, r1, r2, pc}
 8001338:	08005318 	.word	0x08005318
 800133c:	08005b80 	.word	0x08005b80

08001340 <get_display_state>:
 8001340:	4b01      	ldr	r3, [pc, #4]	@ (8001348 <get_display_state+0x8>)
 8001342:	7818      	ldrb	r0, [r3, #0]
 8001344:	4770      	bx	lr
 8001346:	46c0      	nop			@ (mov r8, r8)
 8001348:	200006f1 	.word	0x200006f1

0800134c <update_fsm_display>:
 800134c:	b510      	push	{r4, lr}
 800134e:	210d      	movs	r1, #13
 8001350:	0004      	movs	r4, r0
 8001352:	2000      	movs	r0, #0
 8001354:	f7ff fd5e 	bl	8000e14 <ssd1306_SetCursor>
 8001358:	2c04      	cmp	r4, #4
 800135a:	d807      	bhi.n	800136c <update_fsm_display+0x20>
 800135c:	0020      	movs	r0, r4
 800135e:	f7fe fed3 	bl	8000108 <__gnu_thumb1_case_uqi>
 8001362:	0803      	.short	0x0803
 8001364:	0e0b      	.short	0x0e0b
 8001366:	11          	.byte	0x11
 8001367:	00          	.byte	0x00
 8001368:	f7ff fdf2 	bl	8000f50 <steps_state_task_execute>
 800136c:	f7ff fc98 	bl	8000ca0 <ssd1306_UpdateScreen>
 8001370:	bd10      	pop	{r4, pc}
 8001372:	f7ff fe21 	bl	8000fb8 <distance_state_task_execute>
 8001376:	e7f9      	b.n	800136c <update_fsm_display+0x20>
 8001378:	f7ff fe8e 	bl	8001098 <goal_state_task_execute>
 800137c:	e7f6      	b.n	800136c <update_fsm_display+0x20>
 800137e:	f7ff fe6f 	bl	8001060 <modify_state_task_execute>
 8001382:	e7f3      	b.n	800136c <update_fsm_display+0x20>
 8001384:	f7ff feaa 	bl	80010dc <test_state_task_execute>
 8001388:	e7f0      	b.n	800136c <update_fsm_display+0x20>
	...

0800138c <display_fsm_task_execute>:
 800138c:	b5f0      	push	{r4, r5, r6, r7, lr}
 800138e:	b087      	sub	sp, #28
 8001390:	f7ff fbd2 	bl	8000b38 <get_joystick_flags>
 8001394:	0a02      	lsrs	r2, r0, #8
 8001396:	0c03      	lsrs	r3, r0, #16
 8001398:	b2db      	uxtb	r3, r3
 800139a:	b2d2      	uxtb	r2, r2
 800139c:	b2c5      	uxtb	r5, r0
 800139e:	2004      	movs	r0, #4
 80013a0:	9303      	str	r3, [sp, #12]
 80013a2:	9202      	str	r2, [sp, #8]
 80013a4:	f7ff f9f6 	bl	8000794 <buttons_checkButton>
 80013a8:	0006      	movs	r6, r0
 80013aa:	2001      	movs	r0, #1
 80013ac:	f7ff f9f2 	bl	8000794 <buttons_checkButton>
 80013b0:	9001      	str	r0, [sp, #4]
 80013b2:	f000 fa43 	bl	800183c <HAL_GetTick>
 80013b6:	4f34      	ldr	r7, [pc, #208]	@ (8001488 <display_fsm_task_execute+0xfc>)
 80013b8:	683b      	ldr	r3, [r7, #0]
 80013ba:	4298      	cmp	r0, r3
 80013bc:	d329      	bcc.n	8001412 <display_fsm_task_execute+0x86>
 80013be:	4c33      	ldr	r4, [pc, #204]	@ (800148c <display_fsm_task_execute+0x100>)
 80013c0:	7820      	ldrb	r0, [r4, #0]
 80013c2:	2804      	cmp	r0, #4
 80013c4:	d816      	bhi.n	80013f4 <display_fsm_task_execute+0x68>
 80013c6:	f7fe fe9f 	bl	8000108 <__gnu_thumb1_case_uqi>
 80013ca:	2b03      	.short	0x2b03
 80013cc:	503e      	.short	0x503e
 80013ce:	5a          	.byte	0x5a
 80013cf:	00          	.byte	0x00
 80013d0:	2301      	movs	r3, #1
 80013d2:	2d00      	cmp	r5, #0
 80013d4:	d103      	bne.n	80013de <display_fsm_task_execute+0x52>
 80013d6:	9b02      	ldr	r3, [sp, #8]
 80013d8:	2b00      	cmp	r3, #0
 80013da:	d01c      	beq.n	8001416 <display_fsm_task_execute+0x8a>
 80013dc:	2302      	movs	r3, #2
 80013de:	7023      	strb	r3, [r4, #0]
 80013e0:	9b03      	ldr	r3, [sp, #12]
 80013e2:	2b00      	cmp	r3, #0
 80013e4:	d006      	beq.n	80013f4 <display_fsm_task_execute+0x68>
 80013e6:	f7ff fdab 	bl	8000f40 <toggle_step_unit>
 80013ea:	f000 fa27 	bl	800183c <HAL_GetTick>
 80013ee:	3091      	adds	r0, #145	@ 0x91
 80013f0:	30ff      	adds	r0, #255	@ 0xff
 80013f2:	6038      	str	r0, [r7, #0]
 80013f4:	4d26      	ldr	r5, [pc, #152]	@ (8001490 <display_fsm_task_execute+0x104>)
 80013f6:	7822      	ldrb	r2, [r4, #0]
 80013f8:	782b      	ldrb	r3, [r5, #0]
 80013fa:	429a      	cmp	r2, r3
 80013fc:	d006      	beq.n	800140c <display_fsm_task_execute+0x80>
 80013fe:	f000 fa1d 	bl	800183c <HAL_GetTick>
 8001402:	7823      	ldrb	r3, [r4, #0]
 8001404:	3091      	adds	r0, #145	@ 0x91
 8001406:	30ff      	adds	r0, #255	@ 0xff
 8001408:	6038      	str	r0, [r7, #0]
 800140a:	702b      	strb	r3, [r5, #0]
 800140c:	7820      	ldrb	r0, [r4, #0]
 800140e:	f7ff ff9d 	bl	800134c <update_fsm_display>
 8001412:	b007      	add	sp, #28
 8001414:	bdf0      	pop	{r4, r5, r6, r7, pc}
 8001416:	9b01      	ldr	r3, [sp, #4]
 8001418:	2b03      	cmp	r3, #3
 800141a:	d1e1      	bne.n	80013e0 <display_fsm_task_execute+0x54>
 800141c:	3301      	adds	r3, #1
 800141e:	e7de      	b.n	80013de <display_fsm_task_execute+0x52>
 8001420:	2302      	movs	r3, #2
 8001422:	2d00      	cmp	r5, #0
 8001424:	d10d      	bne.n	8001442 <display_fsm_task_execute+0xb6>
 8001426:	9b02      	ldr	r3, [sp, #8]
 8001428:	2b00      	cmp	r3, #0
 800142a:	d006      	beq.n	800143a <display_fsm_task_execute+0xae>
 800142c:	7025      	strb	r5, [r4, #0]
 800142e:	9b03      	ldr	r3, [sp, #12]
 8001430:	2b00      	cmp	r3, #0
 8001432:	d0df      	beq.n	80013f4 <display_fsm_task_execute+0x68>
 8001434:	f7ff fdb8 	bl	8000fa8 <toggle_distance_unit>
 8001438:	e7d7      	b.n	80013ea <display_fsm_task_execute+0x5e>
 800143a:	9b01      	ldr	r3, [sp, #4]
 800143c:	2b03      	cmp	r3, #3
 800143e:	d1f6      	bne.n	800142e <display_fsm_task_execute+0xa2>
 8001440:	3301      	adds	r3, #1
 8001442:	7023      	strb	r3, [r4, #0]
 8001444:	e7f3      	b.n	800142e <display_fsm_task_execute+0xa2>
 8001446:	2303      	movs	r3, #3
 8001448:	2e02      	cmp	r6, #2
 800144a:	d002      	beq.n	8001452 <display_fsm_task_execute+0xc6>
 800144c:	2d00      	cmp	r5, #0
 800144e:	d002      	beq.n	8001456 <display_fsm_task_execute+0xca>
 8001450:	2300      	movs	r3, #0
 8001452:	7023      	strb	r3, [r4, #0]
 8001454:	e7ce      	b.n	80013f4 <display_fsm_task_execute+0x68>
 8001456:	9b02      	ldr	r3, [sp, #8]
 8001458:	2b00      	cmp	r3, #0
 800145a:	d001      	beq.n	8001460 <display_fsm_task_execute+0xd4>
 800145c:	2301      	movs	r3, #1
 800145e:	e7f8      	b.n	8001452 <display_fsm_task_execute+0xc6>
 8001460:	9b01      	ldr	r3, [sp, #4]
 8001462:	2b03      	cmp	r3, #3
 8001464:	d1c6      	bne.n	80013f4 <display_fsm_task_execute+0x68>
 8001466:	3301      	adds	r3, #1
 8001468:	e7f3      	b.n	8001452 <display_fsm_task_execute+0xc6>
 800146a:	2e02      	cmp	r6, #2
 800146c:	d103      	bne.n	8001476 <display_fsm_task_execute+0xea>
 800146e:	7026      	strb	r6, [r4, #0]
 8001470:	f7ff fdec 	bl	800104c <update_step_goal>
 8001474:	e7be      	b.n	80013f4 <display_fsm_task_execute+0x68>
 8001476:	2302      	movs	r3, #2
 8001478:	2e01      	cmp	r6, #1
 800147a:	d1bb      	bne.n	80013f4 <display_fsm_task_execute+0x68>
 800147c:	e7e9      	b.n	8001452 <display_fsm_task_execute+0xc6>
 800147e:	9b01      	ldr	r3, [sp, #4]
 8001480:	2b03      	cmp	r3, #3
 8001482:	d1b7      	bne.n	80013f4 <display_fsm_task_execute+0x68>
 8001484:	e7e4      	b.n	8001450 <display_fsm_task_execute+0xc4>
 8001486:	46c0      	nop			@ (mov r8, r8)
 8001488:	200006ec 	.word	0x200006ec
 800148c:	200006f1 	.word	0x200006f1
 8001490:	200006f0 	.word	0x200006f0

08001494 <joystick_task_execute>:
 8001494:	b510      	push	{r4, lr}
 8001496:	f7ff fb2f 	bl	8000af8 <update_joystick>
 800149a:	bd10      	pop	{r4, pc}

0800149c <uart_task_execute>:
 800149c:	4770      	bx	lr
	...

080014a0 <HAL_TIM_PWM_MspInit>:
 80014a0:	2380      	movs	r3, #128	@ 0x80
 80014a2:	6802      	ldr	r2, [r0, #0]
 80014a4:	b082      	sub	sp, #8
 80014a6:	05db      	lsls	r3, r3, #23
 80014a8:	429a      	cmp	r2, r3
 80014aa:	d108      	bne.n	80014be <HAL_TIM_PWM_MspInit+0x1e>
 80014ac:	2101      	movs	r1, #1
 80014ae:	4b05      	ldr	r3, [pc, #20]	@ (80014c4 <HAL_TIM_PWM_MspInit+0x24>)
 80014b0:	6bda      	ldr	r2, [r3, #60]	@ 0x3c
 80014b2:	430a      	orrs	r2, r1
 80014b4:	63da      	str	r2, [r3, #60]	@ 0x3c
 80014b6:	6bdb      	ldr	r3, [r3, #60]	@ 0x3c
 80014b8:	400b      	ands	r3, r1
 80014ba:	9301      	str	r3, [sp, #4]
 80014bc:	9b01      	ldr	r3, [sp, #4]
 80014be:	b002      	add	sp, #8
 80014c0:	4770      	bx	lr
 80014c2:	46c0      	nop			@ (mov r8, r8)
 80014c4:	40021000 	.word	0x40021000

080014c8 <HAL_TIM_Base_MspInit>:
 80014c8:	4b08      	ldr	r3, [pc, #32]	@ (80014ec <HAL_TIM_Base_MspInit+0x24>)
 80014ca:	6802      	ldr	r2, [r0, #0]
 80014cc:	b082      	sub	sp, #8
 80014ce:	429a      	cmp	r2, r3
 80014d0:	d109      	bne.n	80014e6 <HAL_TIM_Base_MspInit+0x1e>
 80014d2:	2180      	movs	r1, #128	@ 0x80
 80014d4:	4b06      	ldr	r3, [pc, #24]	@ (80014f0 <HAL_TIM_Base_MspInit+0x28>)
 80014d6:	0289      	lsls	r1, r1, #10
 80014d8:	6c1a      	ldr	r2, [r3, #64]	@ 0x40
 80014da:	430a      	orrs	r2, r1
 80014dc:	641a      	str	r2, [r3, #64]	@ 0x40
 80014de:	6c1b      	ldr	r3, [r3, #64]	@ 0x40
 80014e0:	400b      	ands	r3, r1
 80014e2:	9301      	str	r3, [sp, #4]
 80014e4:	9b01      	ldr	r3, [sp, #4]
 80014e6:	b002      	add	sp, #8
 80014e8:	4770      	bx	lr
 80014ea:	46c0      	nop			@ (mov r8, r8)
 80014ec:	40014400 	.word	0x40014400
 80014f0:	40021000 	.word	0x40021000

080014f4 <HAL_TIM_MspPostInit>:
 80014f4:	b510      	push	{r4, lr}
 80014f6:	0004      	movs	r4, r0
 80014f8:	b088      	sub	sp, #32
 80014fa:	2214      	movs	r2, #20
 80014fc:	2100      	movs	r1, #0
 80014fe:	a803      	add	r0, sp, #12
 8001500:	f003 fa80 	bl	8004a04 <memset>
 8001504:	2280      	movs	r2, #128	@ 0x80
 8001506:	6823      	ldr	r3, [r4, #0]
 8001508:	05d2      	lsls	r2, r2, #23
 800150a:	4293      	cmp	r3, r2
 800150c:	d114      	bne.n	8001538 <HAL_TIM_MspPostInit+0x44>
 800150e:	2104      	movs	r1, #4
 8001510:	4b13      	ldr	r3, [pc, #76]	@ (8001560 <HAL_TIM_MspPostInit+0x6c>)
 8001512:	4814      	ldr	r0, [pc, #80]	@ (8001564 <HAL_TIM_MspPostInit+0x70>)
 8001514:	6b5a      	ldr	r2, [r3, #52]	@ 0x34
 8001516:	430a      	orrs	r2, r1
 8001518:	635a      	str	r2, [r3, #52]	@ 0x34
 800151a:	6b5b      	ldr	r3, [r3, #52]	@ 0x34
 800151c:	400b      	ands	r3, r1
 800151e:	9301      	str	r3, [sp, #4]
 8001520:	9b01      	ldr	r3, [sp, #4]
 8001522:	2340      	movs	r3, #64	@ 0x40
 8001524:	9303      	str	r3, [sp, #12]
 8001526:	3b3e      	subs	r3, #62	@ 0x3e
 8001528:	9304      	str	r3, [sp, #16]
 800152a:	3301      	adds	r3, #1
 800152c:	9307      	str	r3, [sp, #28]
 800152e:	a903      	add	r1, sp, #12
 8001530:	f000 fe8c 	bl	800224c <HAL_GPIO_Init>
 8001534:	b008      	add	sp, #32
 8001536:	bd10      	pop	{r4, pc}
 8001538:	4a0b      	ldr	r2, [pc, #44]	@ (8001568 <HAL_TIM_MspPostInit+0x74>)
 800153a:	4293      	cmp	r3, r2
 800153c:	d1fa      	bne.n	8001534 <HAL_TIM_MspPostInit+0x40>
 800153e:	2108      	movs	r1, #8
 8001540:	4b07      	ldr	r3, [pc, #28]	@ (8001560 <HAL_TIM_MspPostInit+0x6c>)
 8001542:	480a      	ldr	r0, [pc, #40]	@ (800156c <HAL_TIM_MspPostInit+0x78>)
 8001544:	6b5a      	ldr	r2, [r3, #52]	@ 0x34
 8001546:	430a      	orrs	r2, r1
 8001548:	635a      	str	r2, [r3, #52]	@ 0x34
 800154a:	6b5b      	ldr	r3, [r3, #52]	@ 0x34
 800154c:	400b      	ands	r3, r1
 800154e:	9302      	str	r3, [sp, #8]
 8001550:	9b02      	ldr	r3, [sp, #8]
 8001552:	2301      	movs	r3, #1
 8001554:	9303      	str	r3, [sp, #12]
 8001556:	18db      	adds	r3, r3, r3
 8001558:	9304      	str	r3, [sp, #16]
 800155a:	9307      	str	r3, [sp, #28]
 800155c:	a903      	add	r1, sp, #12
 800155e:	e7e7      	b.n	8001530 <HAL_TIM_MspPostInit+0x3c>
 8001560:	40021000 	.word	0x40021000
 8001564:	50000800 	.word	0x50000800
 8001568:	40014400 	.word	0x40014400
 800156c:	50000c00 	.word	0x50000c00

08001570 <MX_TIM2_Init>:
 8001570:	b530      	push	{r4, r5, lr}
 8001572:	b08b      	sub	sp, #44	@ 0x2c
 8001574:	220c      	movs	r2, #12
 8001576:	2100      	movs	r1, #0
 8001578:	4668      	mov	r0, sp
 800157a:	f003 fa43 	bl	8004a04 <memset>
 800157e:	221c      	movs	r2, #28
 8001580:	2100      	movs	r1, #0
 8001582:	a803      	add	r0, sp, #12
 8001584:	f003 fa3e 	bl	8004a04 <memset>
 8001588:	2380      	movs	r3, #128	@ 0x80
 800158a:	2500      	movs	r5, #0
 800158c:	4c17      	ldr	r4, [pc, #92]	@ (80015ec <MX_TIM2_Init+0x7c>)
 800158e:	05db      	lsls	r3, r3, #23
 8001590:	6023      	str	r3, [r4, #0]
 8001592:	4b17      	ldr	r3, [pc, #92]	@ (80015f0 <MX_TIM2_Init+0x80>)
 8001594:	0020      	movs	r0, r4
 8001596:	6065      	str	r5, [r4, #4]
 8001598:	60a5      	str	r5, [r4, #8]
 800159a:	60e3      	str	r3, [r4, #12]
 800159c:	6125      	str	r5, [r4, #16]
 800159e:	61a5      	str	r5, [r4, #24]
 80015a0:	f002 fd28 	bl	8003ff4 <HAL_TIM_PWM_Init>
 80015a4:	42a8      	cmp	r0, r5
 80015a6:	d001      	beq.n	80015ac <MX_TIM2_Init+0x3c>
 80015a8:	f7ff fb1f 	bl	8000bea <Error_Handler>
 80015ac:	4669      	mov	r1, sp
 80015ae:	0020      	movs	r0, r4
 80015b0:	9500      	str	r5, [sp, #0]
 80015b2:	9502      	str	r5, [sp, #8]
 80015b4:	f002 fe9a 	bl	80042ec <HAL_TIMEx_MasterConfigSynchronization>
 80015b8:	2800      	cmp	r0, #0
 80015ba:	d001      	beq.n	80015c0 <MX_TIM2_Init+0x50>
 80015bc:	f7ff fb15 	bl	8000bea <Error_Handler>
 80015c0:	2360      	movs	r3, #96	@ 0x60
 80015c2:	9303      	str	r3, [sp, #12]
 80015c4:	4b0b      	ldr	r3, [pc, #44]	@ (80015f4 <MX_TIM2_Init+0x84>)
 80015c6:	2208      	movs	r2, #8
 80015c8:	9304      	str	r3, [sp, #16]
 80015ca:	2302      	movs	r3, #2
 80015cc:	9305      	str	r3, [sp, #20]
 80015ce:	2300      	movs	r3, #0
 80015d0:	0020      	movs	r0, r4
 80015d2:	a903      	add	r1, sp, #12
 80015d4:	9307      	str	r3, [sp, #28]
 80015d6:	f002 fd73 	bl	80040c0 <HAL_TIM_PWM_ConfigChannel>
 80015da:	2800      	cmp	r0, #0
 80015dc:	d001      	beq.n	80015e2 <MX_TIM2_Init+0x72>
 80015de:	f7ff fb04 	bl	8000bea <Error_Handler>
 80015e2:	0020      	movs	r0, r4
 80015e4:	f7ff ff86 	bl	80014f4 <HAL_TIM_MspPostInit>
 80015e8:	b00b      	add	sp, #44	@ 0x2c
 80015ea:	bd30      	pop	{r4, r5, pc}
 80015ec:	20000740 	.word	0x20000740
 80015f0:	000186a0 	.word	0x000186a0
 80015f4:	00003a98 	.word	0x00003a98

080015f8 <MX_TIM16_Init>:
 80015f8:	b530      	push	{r4, r5, lr}
 80015fa:	b095      	sub	sp, #84	@ 0x54
 80015fc:	221c      	movs	r2, #28
 80015fe:	2100      	movs	r1, #0
 8001600:	4668      	mov	r0, sp
 8001602:	f003 f9ff 	bl	8004a04 <memset>
 8001606:	2234      	movs	r2, #52	@ 0x34
 8001608:	2100      	movs	r1, #0
 800160a:	a807      	add	r0, sp, #28
 800160c:	f003 f9fa 	bl	8004a04 <memset>
 8001610:	4d20      	ldr	r5, [pc, #128]	@ (8001694 <MX_TIM16_Init+0x9c>)
 8001612:	4b21      	ldr	r3, [pc, #132]	@ (8001698 <MX_TIM16_Init+0xa0>)
 8001614:	4a21      	ldr	r2, [pc, #132]	@ (800169c <MX_TIM16_Init+0xa4>)
 8001616:	602b      	str	r3, [r5, #0]
 8001618:	2300      	movs	r3, #0
 800161a:	0028      	movs	r0, r5
 800161c:	606b      	str	r3, [r5, #4]
 800161e:	60ab      	str	r3, [r5, #8]
 8001620:	60ea      	str	r2, [r5, #12]
 8001622:	612b      	str	r3, [r5, #16]
 8001624:	616b      	str	r3, [r5, #20]
 8001626:	61ab      	str	r3, [r5, #24]
 8001628:	f002 fcba 	bl	8003fa0 <HAL_TIM_Base_Init>
 800162c:	2800      	cmp	r0, #0
 800162e:	d001      	beq.n	8001634 <MX_TIM16_Init+0x3c>
 8001630:	f7ff fadb 	bl	8000bea <Error_Handler>
 8001634:	0028      	movs	r0, r5
 8001636:	f002 fcdd 	bl	8003ff4 <HAL_TIM_PWM_Init>
 800163a:	2800      	cmp	r0, #0
 800163c:	d001      	beq.n	8001642 <MX_TIM16_Init+0x4a>
 800163e:	f7ff fad4 	bl	8000bea <Error_Handler>
 8001642:	2400      	movs	r4, #0
 8001644:	2360      	movs	r3, #96	@ 0x60
 8001646:	0022      	movs	r2, r4
 8001648:	4669      	mov	r1, sp
 800164a:	0028      	movs	r0, r5
 800164c:	9300      	str	r3, [sp, #0]
 800164e:	9401      	str	r4, [sp, #4]
 8001650:	9402      	str	r4, [sp, #8]
 8001652:	9403      	str	r4, [sp, #12]
 8001654:	9404      	str	r4, [sp, #16]
 8001656:	9405      	str	r4, [sp, #20]
 8001658:	9406      	str	r4, [sp, #24]
 800165a:	f002 fd31 	bl	80040c0 <HAL_TIM_PWM_ConfigChannel>
 800165e:	42a0      	cmp	r0, r4
 8001660:	d001      	beq.n	8001666 <MX_TIM16_Init+0x6e>
 8001662:	f7ff fac2 	bl	8000bea <Error_Handler>
 8001666:	2380      	movs	r3, #128	@ 0x80
 8001668:	0028      	movs	r0, r5
 800166a:	019b      	lsls	r3, r3, #6
 800166c:	a907      	add	r1, sp, #28
 800166e:	9407      	str	r4, [sp, #28]
 8001670:	9408      	str	r4, [sp, #32]
 8001672:	9409      	str	r4, [sp, #36]	@ 0x24
 8001674:	940a      	str	r4, [sp, #40]	@ 0x28
 8001676:	940b      	str	r4, [sp, #44]	@ 0x2c
 8001678:	930c      	str	r3, [sp, #48]	@ 0x30
 800167a:	940d      	str	r4, [sp, #52]	@ 0x34
 800167c:	9413      	str	r4, [sp, #76]	@ 0x4c
 800167e:	f002 fe69 	bl	8004354 <HAL_TIMEx_ConfigBreakDeadTime>
 8001682:	2800      	cmp	r0, #0
 8001684:	d001      	beq.n	800168a <MX_TIM16_Init+0x92>
 8001686:	f7ff fab0 	bl	8000bea <Error_Handler>
 800168a:	0028      	movs	r0, r5
 800168c:	f7ff ff32 	bl	80014f4 <HAL_TIM_MspPostInit>
 8001690:	b015      	add	sp, #84	@ 0x54
 8001692:	bd30      	pop	{r4, r5, pc}
 8001694:	200006f4 	.word	0x200006f4
 8001698:	40014400 	.word	0x40014400
 800169c:	0000ffff 	.word	0x0000ffff

080016a0 <MX_USART2_UART_Init>:
 80016a0:	b510      	push	{r4, lr}
 80016a2:	4b18      	ldr	r3, [pc, #96]	@ (8001704 <MX_USART2_UART_Init+0x64>)
 80016a4:	4c18      	ldr	r4, [pc, #96]	@ (8001708 <MX_USART2_UART_Init+0x68>)
 80016a6:	220c      	movs	r2, #12
 80016a8:	6023      	str	r3, [r4, #0]
 80016aa:	23e1      	movs	r3, #225	@ 0xe1
 80016ac:	025b      	lsls	r3, r3, #9
 80016ae:	6063      	str	r3, [r4, #4]
 80016b0:	2300      	movs	r3, #0
 80016b2:	0020      	movs	r0, r4
 80016b4:	60a3      	str	r3, [r4, #8]
 80016b6:	60e3      	str	r3, [r4, #12]
 80016b8:	6123      	str	r3, [r4, #16]
 80016ba:	6162      	str	r2, [r4, #20]
 80016bc:	61a3      	str	r3, [r4, #24]
 80016be:	61e3      	str	r3, [r4, #28]
 80016c0:	6223      	str	r3, [r4, #32]
 80016c2:	6263      	str	r3, [r4, #36]	@ 0x24
 80016c4:	62a3      	str	r3, [r4, #40]	@ 0x28
 80016c6:	f003 f8ad 	bl	8004824 <HAL_UART_Init>
 80016ca:	2800      	cmp	r0, #0
 80016cc:	d001      	beq.n	80016d2 <MX_USART2_UART_Init+0x32>
 80016ce:	f7ff fa8c 	bl	8000bea <Error_Handler>
 80016d2:	2100      	movs	r1, #0
 80016d4:	0020      	movs	r0, r4
 80016d6:	f003 f91f 	bl	8004918 <HAL_UARTEx_SetTxFifoThreshold>
 80016da:	2800      	cmp	r0, #0
 80016dc:	d001      	beq.n	80016e2 <MX_USART2_UART_Init+0x42>
 80016de:	f7ff fa84 	bl	8000bea <Error_Handler>
 80016e2:	2100      	movs	r1, #0
 80016e4:	0020      	movs	r0, r4
 80016e6:	f003 f937 	bl	8004958 <HAL_UARTEx_SetRxFifoThreshold>
 80016ea:	2800      	cmp	r0, #0
 80016ec:	d001      	beq.n	80016f2 <MX_USART2_UART_Init+0x52>
 80016ee:	f7ff fa7c 	bl	8000bea <Error_Handler>
 80016f2:	0020      	movs	r0, r4
 80016f4:	f003 f8f2 	bl	80048dc <HAL_UARTEx_DisableFifoMode>
 80016f8:	2800      	cmp	r0, #0
 80016fa:	d001      	beq.n	8001700 <MX_USART2_UART_Init+0x60>
 80016fc:	f7ff fa75 	bl	8000bea <Error_Handler>
 8001700:	bd10      	pop	{r4, pc}
 8001702:	46c0      	nop			@ (mov r8, r8)
 8001704:	40004400 	.word	0x40004400
 8001708:	2000078c 	.word	0x2000078c

0800170c <HAL_UART_MspInit>:
 800170c:	b510      	push	{r4, lr}
 800170e:	0004      	movs	r4, r0
 8001710:	b088      	sub	sp, #32
 8001712:	2214      	movs	r2, #20
 8001714:	2100      	movs	r1, #0
 8001716:	a803      	add	r0, sp, #12
 8001718:	f003 f974 	bl	8004a04 <memset>
 800171c:	4b10      	ldr	r3, [pc, #64]	@ (8001760 <HAL_UART_MspInit+0x54>)
 800171e:	6822      	ldr	r2, [r4, #0]
 8001720:	429a      	cmp	r2, r3
 8001722:	d11b      	bne.n	800175c <HAL_UART_MspInit+0x50>
 8001724:	2180      	movs	r1, #128	@ 0x80
 8001726:	4b0f      	ldr	r3, [pc, #60]	@ (8001764 <HAL_UART_MspInit+0x58>)
 8001728:	0289      	lsls	r1, r1, #10
 800172a:	6bda      	ldr	r2, [r3, #60]	@ 0x3c
 800172c:	20a0      	movs	r0, #160	@ 0xa0
 800172e:	430a      	orrs	r2, r1
 8001730:	63da      	str	r2, [r3, #60]	@ 0x3c
 8001732:	6bda      	ldr	r2, [r3, #60]	@ 0x3c
 8001734:	05c0      	lsls	r0, r0, #23
 8001736:	400a      	ands	r2, r1
 8001738:	9201      	str	r2, [sp, #4]
 800173a:	9a01      	ldr	r2, [sp, #4]
 800173c:	2201      	movs	r2, #1
 800173e:	6b59      	ldr	r1, [r3, #52]	@ 0x34
 8001740:	4311      	orrs	r1, r2
 8001742:	6359      	str	r1, [r3, #52]	@ 0x34
 8001744:	6b5b      	ldr	r3, [r3, #52]	@ 0x34
 8001746:	a903      	add	r1, sp, #12
 8001748:	4013      	ands	r3, r2
 800174a:	9302      	str	r3, [sp, #8]
 800174c:	9b02      	ldr	r3, [sp, #8]
 800174e:	230c      	movs	r3, #12
 8001750:	9303      	str	r3, [sp, #12]
 8001752:	3b0a      	subs	r3, #10
 8001754:	9304      	str	r3, [sp, #16]
 8001756:	9207      	str	r2, [sp, #28]
 8001758:	f000 fd78 	bl	800224c <HAL_GPIO_Init>
 800175c:	b008      	add	sp, #32
 800175e:	bd10      	pop	{r4, pc}
 8001760:	40004400 	.word	0x40004400
 8001764:	40021000 	.word	0x40021000

08001768 <Reset_Handler>:
 8001768:	480d      	ldr	r0, [pc, #52]	@ (80017a0 <LoopForever+0x2>)
 800176a:	4685      	mov	sp, r0
 800176c:	f7ff fd7c 	bl	8001268 <SystemInit>
 8001770:	2100      	movs	r1, #0
 8001772:	e003      	b.n	800177c <LoopCopyDataInit>

08001774 <CopyDataInit>:
 8001774:	4b0b      	ldr	r3, [pc, #44]	@ (80017a4 <LoopForever+0x6>)
 8001776:	585b      	ldr	r3, [r3, r1]
 8001778:	5043      	str	r3, [r0, r1]
 800177a:	3104      	adds	r1, #4

0800177c <LoopCopyDataInit>:
 800177c:	480a      	ldr	r0, [pc, #40]	@ (80017a8 <LoopForever+0xa>)
 800177e:	4b0b      	ldr	r3, [pc, #44]	@ (80017ac <LoopForever+0xe>)
 8001780:	1842      	adds	r2, r0, r1
 8001782:	429a      	cmp	r2, r3
 8001784:	d3f6      	bcc.n	8001774 <CopyDataInit>
 8001786:	4a0a      	ldr	r2, [pc, #40]	@ (80017b0 <LoopForever+0x12>)
 8001788:	e002      	b.n	8001790 <LoopFillZerobss>

0800178a <FillZerobss>:
 800178a:	2300      	movs	r3, #0
 800178c:	6013      	str	r3, [r2, #0]
 800178e:	3204      	adds	r2, #4

08001790 <LoopFillZerobss>:
 8001790:	4b08      	ldr	r3, [pc, #32]	@ (80017b4 <LoopForever+0x16>)
 8001792:	429a      	cmp	r2, r3
 8001794:	d3f9      	bcc.n	800178a <FillZerobss>
 8001796:	f003 f943 	bl	8004a20 <__libc_init_array>
 800179a:	f7ff fa10 	bl	8000bbe <main>

0800179e <LoopForever>:
 800179e:	e7fe      	b.n	800179e <LoopForever>
 80017a0:	20006000 	.word	0x20006000
 80017a4:	08005bfc 	.word	0x08005bfc
 80017a8:	20000000 	.word	0x20000000
 80017ac:	200000c4 	.word	0x200000c4
 80017b0:	200000c4 	.word	0x200000c4
 80017b4:	2000096c 	.word	0x2000096c

080017b8 <ADC1_IRQHandler>:
 80017b8:	e7fe      	b.n	80017b8 <ADC1_IRQHandler>
	...

080017bc <HAL_InitTick>:
 80017bc:	b570      	push	{r4, r5, r6, lr}
 80017be:	4b10      	ldr	r3, [pc, #64]	@ (8001800 <HAL_InitTick+0x44>)
 80017c0:	0005      	movs	r5, r0
 80017c2:	7819      	ldrb	r1, [r3, #0]
 80017c4:	2900      	cmp	r1, #0
 80017c6:	d101      	bne.n	80017cc <HAL_InitTick+0x10>
 80017c8:	2001      	movs	r0, #1
 80017ca:	bd70      	pop	{r4, r5, r6, pc}
 80017cc:	20fa      	movs	r0, #250	@ 0xfa
 80017ce:	0080      	lsls	r0, r0, #2
 80017d0:	f7fe fcae 	bl	8000130 <__udivsi3>
 80017d4:	4c0b      	ldr	r4, [pc, #44]	@ (8001804 <HAL_InitTick+0x48>)
 80017d6:	0001      	movs	r1, r0
 80017d8:	6820      	ldr	r0, [r4, #0]
 80017da:	f7fe fca9 	bl	8000130 <__udivsi3>
 80017de:	f000 fba9 	bl	8001f34 <HAL_SYSTICK_Config>
 80017e2:	1e04      	subs	r4, r0, #0
 80017e4:	d1f0      	bne.n	80017c8 <HAL_InitTick+0xc>
 80017e6:	2d03      	cmp	r5, #3
 80017e8:	d8ee      	bhi.n	80017c8 <HAL_InitTick+0xc>
 80017ea:	0002      	movs	r2, r0
 80017ec:	2001      	movs	r0, #1
 80017ee:	0029      	movs	r1, r5
 80017f0:	4240      	negs	r0, r0
 80017f2:	f000 fb69 	bl	8001ec8 <HAL_NVIC_SetPriority>
 80017f6:	4b04      	ldr	r3, [pc, #16]	@ (8001808 <HAL_InitTick+0x4c>)
 80017f8:	0020      	movs	r0, r4
 80017fa:	601d      	str	r5, [r3, #0]
 80017fc:	e7e5      	b.n	80017ca <HAL_InitTick+0xe>
 80017fe:	46c0      	nop			@ (mov r8, r8)
 8001800:	2000006d 	.word	0x2000006d
 8001804:	20000068 	.word	0x20000068
 8001808:	20000070 	.word	0x20000070

0800180c <HAL_Init>:
 800180c:	b510      	push	{r4, lr}
 800180e:	2003      	movs	r0, #3
 8001810:	f7ff ffd4 	bl	80017bc <HAL_InitTick>
 8001814:	1e04      	subs	r4, r0, #0
 8001816:	d103      	bne.n	8001820 <HAL_Init+0x14>
 8001818:	f7ff fcc0 	bl	800119c <HAL_MspInit>
 800181c:	0020      	movs	r0, r4
 800181e:	bd10      	pop	{r4, pc}
 8001820:	2401      	movs	r4, #1
 8001822:	e7fb      	b.n	800181c <HAL_Init+0x10>

08001824 <HAL_IncTick>:
 8001824:	4a03      	ldr	r2, [pc, #12]	@ (8001834 <HAL_IncTick+0x10>)
 8001826:	4b04      	ldr	r3, [pc, #16]	@ (8001838 <HAL_IncTick+0x14>)
 8001828:	6811      	ldr	r1, [r2, #0]
 800182a:	781b      	ldrb	r3, [r3, #0]
 800182c:	185b      	adds	r3, r3, r1
 800182e:	6013      	str	r3, [r2, #0]
 8001830:	4770      	bx	lr
 8001832:	46c0      	nop			@ (mov r8, r8)
 8001834:	20000820 	.word	0x20000820
 8001838:	2000006d 	.word	0x2000006d

0800183c <HAL_GetTick>:
 800183c:	4b01      	ldr	r3, [pc, #4]	@ (8001844 <HAL_GetTick+0x8>)
 800183e:	6818      	ldr	r0, [r3, #0]
 8001840:	4770      	bx	lr
 8001842:	46c0      	nop			@ (mov r8, r8)
 8001844:	20000820 	.word	0x20000820

08001848 <HAL_Delay>:
 8001848:	b570      	push	{r4, r5, r6, lr}
 800184a:	0004      	movs	r4, r0
 800184c:	f7ff fff6 	bl	800183c <HAL_GetTick>
 8001850:	0005      	movs	r5, r0
 8001852:	1c63      	adds	r3, r4, #1
 8001854:	d002      	beq.n	800185c <HAL_Delay+0x14>
 8001856:	4b04      	ldr	r3, [pc, #16]	@ (8001868 <HAL_Delay+0x20>)
 8001858:	781b      	ldrb	r3, [r3, #0]
 800185a:	18e4      	adds	r4, r4, r3
 800185c:	f7ff ffee 	bl	800183c <HAL_GetTick>
 8001860:	1b40      	subs	r0, r0, r5
 8001862:	42a0      	cmp	r0, r4
 8001864:	d3fa      	bcc.n	800185c <HAL_Delay+0x14>
 8001866:	bd70      	pop	{r4, r5, r6, pc}
 8001868:	2000006d 	.word	0x2000006d

0800186c <LL_ADC_REG_IsConversionOngoing>:
 800186c:	6880      	ldr	r0, [r0, #8]
 800186e:	0740      	lsls	r0, r0, #29
 8001870:	0fc0      	lsrs	r0, r0, #31
 8001872:	4770      	bx	lr

08001874 <HAL_ADC_Init>:
 8001874:	2300      	movs	r3, #0
 8001876:	b5f0      	push	{r4, r5, r6, r7, lr}
 8001878:	b085      	sub	sp, #20
 800187a:	0004      	movs	r4, r0
 800187c:	9303      	str	r3, [sp, #12]
 800187e:	4298      	cmp	r0, r3
 8001880:	d100      	bne.n	8001884 <HAL_ADC_Init+0x10>
 8001882:	e0ef      	b.n	8001a64 <HAL_ADC_Init+0x1f0>
 8001884:	6d85      	ldr	r5, [r0, #88]	@ 0x58
 8001886:	429d      	cmp	r5, r3
 8001888:	d105      	bne.n	8001896 <HAL_ADC_Init+0x22>
 800188a:	f7fe fe1f 	bl	80004cc <HAL_ADC_MspInit>
 800188e:	0023      	movs	r3, r4
 8001890:	3354      	adds	r3, #84	@ 0x54
 8001892:	65e5      	str	r5, [r4, #92]	@ 0x5c
 8001894:	701d      	strb	r5, [r3, #0]
 8001896:	2380      	movs	r3, #128	@ 0x80
 8001898:	6825      	ldr	r5, [r4, #0]
 800189a:	055b      	lsls	r3, r3, #21
 800189c:	68aa      	ldr	r2, [r5, #8]
 800189e:	421a      	tst	r2, r3
 80018a0:	d100      	bne.n	80018a4 <HAL_ADC_Init+0x30>
 80018a2:	e0a7      	b.n	80019f4 <HAL_ADC_Init+0x180>
 80018a4:	2200      	movs	r2, #0
 80018a6:	68ab      	ldr	r3, [r5, #8]
 80018a8:	9201      	str	r2, [sp, #4]
 80018aa:	00db      	lsls	r3, r3, #3
 80018ac:	d408      	bmi.n	80018c0 <HAL_ADC_Init+0x4c>
 80018ae:	2310      	movs	r3, #16
 80018b0:	2601      	movs	r6, #1
 80018b2:	6da2      	ldr	r2, [r4, #88]	@ 0x58
 80018b4:	9601      	str	r6, [sp, #4]
 80018b6:	4313      	orrs	r3, r2
 80018b8:	65a3      	str	r3, [r4, #88]	@ 0x58
 80018ba:	6de3      	ldr	r3, [r4, #92]	@ 0x5c
 80018bc:	4333      	orrs	r3, r6
 80018be:	65e3      	str	r3, [r4, #92]	@ 0x5c
 80018c0:	0028      	movs	r0, r5
 80018c2:	f7ff ffd3 	bl	800186c <LL_ADC_REG_IsConversionOngoing>
 80018c6:	2210      	movs	r2, #16
 80018c8:	6da3      	ldr	r3, [r4, #88]	@ 0x58
 80018ca:	4013      	ands	r3, r2
 80018cc:	4303      	orrs	r3, r0
 80018ce:	d000      	beq.n	80018d2 <HAL_ADC_Init+0x5e>
 80018d0:	e0cb      	b.n	8001a6a <HAL_ADC_Init+0x1f6>
 80018d2:	6da2      	ldr	r2, [r4, #88]	@ 0x58
 80018d4:	4b67      	ldr	r3, [pc, #412]	@ (8001a74 <HAL_ADC_Init+0x200>)
 80018d6:	6920      	ldr	r0, [r4, #16]
 80018d8:	401a      	ands	r2, r3
 80018da:	3306      	adds	r3, #6
 80018dc:	33ff      	adds	r3, #255	@ 0xff
 80018de:	4313      	orrs	r3, r2
 80018e0:	65a3      	str	r3, [r4, #88]	@ 0x58
 80018e2:	68ab      	ldr	r3, [r5, #8]
 80018e4:	07db      	lsls	r3, r3, #31
 80018e6:	d461      	bmi.n	80019ac <HAL_ADC_Init+0x138>
 80018e8:	6b27      	ldr	r7, [r4, #48]	@ 0x30
 80018ea:	68e1      	ldr	r1, [r4, #12]
 80018ec:	1e7b      	subs	r3, r7, #1
 80018ee:	419f      	sbcs	r7, r3
 80018f0:	68a3      	ldr	r3, [r4, #8]
 80018f2:	7ea2      	ldrb	r2, [r4, #26]
 80018f4:	430b      	orrs	r3, r1
 80018f6:	7e21      	ldrb	r1, [r4, #24]
 80018f8:	033f      	lsls	r7, r7, #12
 80018fa:	0389      	lsls	r1, r1, #14
 80018fc:	430b      	orrs	r3, r1
 80018fe:	7e61      	ldrb	r1, [r4, #25]
 8001900:	03c9      	lsls	r1, r1, #15
 8001902:	430b      	orrs	r3, r1
 8001904:	0351      	lsls	r1, r2, #13
 8001906:	430b      	orrs	r3, r1
 8001908:	469c      	mov	ip, r3
 800190a:	2800      	cmp	r0, #0
 800190c:	db00      	blt.n	8001910 <HAL_ADC_Init+0x9c>
 800190e:	e085      	b.n	8001a1c <HAL_ADC_Init+0x1a8>
 8001910:	0041      	lsls	r1, r0, #1
 8001912:	0849      	lsrs	r1, r1, #1
 8001914:	0023      	movs	r3, r4
 8001916:	4666      	mov	r6, ip
 8001918:	332c      	adds	r3, #44	@ 0x2c
 800191a:	781b      	ldrb	r3, [r3, #0]
 800191c:	005b      	lsls	r3, r3, #1
 800191e:	4333      	orrs	r3, r6
 8001920:	433b      	orrs	r3, r7
 8001922:	430b      	orrs	r3, r1
 8001924:	1c61      	adds	r1, r4, #1
 8001926:	7fc9      	ldrb	r1, [r1, #31]
 8001928:	2901      	cmp	r1, #1
 800192a:	d105      	bne.n	8001938 <HAL_ADC_Init+0xc4>
 800192c:	2a00      	cmp	r2, #0
 800192e:	d000      	beq.n	8001932 <HAL_ADC_Init+0xbe>
 8001930:	e077      	b.n	8001a22 <HAL_ADC_Init+0x1ae>
 8001932:	2280      	movs	r2, #128	@ 0x80
 8001934:	0252      	lsls	r2, r2, #9
 8001936:	4313      	orrs	r3, r2
 8001938:	6a62      	ldr	r2, [r4, #36]	@ 0x24
 800193a:	2a00      	cmp	r2, #0
 800193c:	d005      	beq.n	800194a <HAL_ADC_Init+0xd6>
 800193e:	21e0      	movs	r1, #224	@ 0xe0
 8001940:	0049      	lsls	r1, r1, #1
 8001942:	400a      	ands	r2, r1
 8001944:	6aa1      	ldr	r1, [r4, #40]	@ 0x28
 8001946:	430a      	orrs	r2, r1
 8001948:	4313      	orrs	r3, r2
 800194a:	68ea      	ldr	r2, [r5, #12]
 800194c:	494a      	ldr	r1, [pc, #296]	@ (8001a78 <HAL_ADC_Init+0x204>)
 800194e:	400a      	ands	r2, r1
 8001950:	4313      	orrs	r3, r2
 8001952:	60eb      	str	r3, [r5, #12]
 8001954:	0023      	movs	r3, r4
 8001956:	6862      	ldr	r2, [r4, #4]
 8001958:	333c      	adds	r3, #60	@ 0x3c
 800195a:	6ce1      	ldr	r1, [r4, #76]	@ 0x4c
 800195c:	781b      	ldrb	r3, [r3, #0]
 800195e:	0f97      	lsrs	r7, r2, #30
 8001960:	07bf      	lsls	r7, r7, #30
 8001962:	469c      	mov	ip, r3
 8001964:	4339      	orrs	r1, r7
 8001966:	2b01      	cmp	r3, #1
 8001968:	d108      	bne.n	800197c <HAL_ADC_Init+0x108>
 800196a:	6c23      	ldr	r3, [r4, #64]	@ 0x40
 800196c:	6c66      	ldr	r6, [r4, #68]	@ 0x44
 800196e:	4333      	orrs	r3, r6
 8001970:	430b      	orrs	r3, r1
 8001972:	6ca1      	ldr	r1, [r4, #72]	@ 0x48
 8001974:	430b      	orrs	r3, r1
 8001976:	4661      	mov	r1, ip
 8001978:	433b      	orrs	r3, r7
 800197a:	4319      	orrs	r1, r3
 800197c:	692b      	ldr	r3, [r5, #16]
 800197e:	4f3f      	ldr	r7, [pc, #252]	@ (8001a7c <HAL_ADC_Init+0x208>)
 8001980:	403b      	ands	r3, r7
 8001982:	430b      	orrs	r3, r1
 8001984:	2180      	movs	r1, #128	@ 0x80
 8001986:	612b      	str	r3, [r5, #16]
 8001988:	0053      	lsls	r3, r2, #1
 800198a:	085b      	lsrs	r3, r3, #1
 800198c:	05c9      	lsls	r1, r1, #23
 800198e:	428b      	cmp	r3, r1
 8001990:	d00c      	beq.n	80019ac <HAL_ADC_Init+0x138>
 8001992:	2380      	movs	r3, #128	@ 0x80
 8001994:	061b      	lsls	r3, r3, #24
 8001996:	429a      	cmp	r2, r3
 8001998:	d008      	beq.n	80019ac <HAL_ADC_Init+0x138>
 800199a:	4939      	ldr	r1, [pc, #228]	@ (8001a80 <HAL_ADC_Init+0x20c>)
 800199c:	4f39      	ldr	r7, [pc, #228]	@ (8001a84 <HAL_ADC_Init+0x210>)
 800199e:	680b      	ldr	r3, [r1, #0]
 80019a0:	403b      	ands	r3, r7
 80019a2:	27f0      	movs	r7, #240	@ 0xf0
 80019a4:	03bf      	lsls	r7, r7, #14
 80019a6:	403a      	ands	r2, r7
 80019a8:	4313      	orrs	r3, r2
 80019aa:	600b      	str	r3, [r1, #0]
 80019ac:	2107      	movs	r1, #7
 80019ae:	2770      	movs	r7, #112	@ 0x70
 80019b0:	696b      	ldr	r3, [r5, #20]
 80019b2:	6b62      	ldr	r2, [r4, #52]	@ 0x34
 80019b4:	438b      	bics	r3, r1
 80019b6:	4313      	orrs	r3, r2
 80019b8:	616b      	str	r3, [r5, #20]
 80019ba:	6969      	ldr	r1, [r5, #20]
 80019bc:	6ba3      	ldr	r3, [r4, #56]	@ 0x38
 80019be:	43b9      	bics	r1, r7
 80019c0:	011b      	lsls	r3, r3, #4
 80019c2:	430b      	orrs	r3, r1
 80019c4:	616b      	str	r3, [r5, #20]
 80019c6:	2800      	cmp	r0, #0
 80019c8:	d133      	bne.n	8001a32 <HAL_ADC_Init+0x1be>
 80019ca:	2310      	movs	r3, #16
 80019cc:	6aa9      	ldr	r1, [r5, #40]	@ 0x28
 80019ce:	425b      	negs	r3, r3
 80019d0:	430b      	orrs	r3, r1
 80019d2:	62ab      	str	r3, [r5, #40]	@ 0x28
 80019d4:	2107      	movs	r1, #7
 80019d6:	696b      	ldr	r3, [r5, #20]
 80019d8:	400b      	ands	r3, r1
 80019da:	429a      	cmp	r2, r3
 80019dc:	d138      	bne.n	8001a50 <HAL_ADC_Init+0x1dc>
 80019de:	2300      	movs	r3, #0
 80019e0:	65e3      	str	r3, [r4, #92]	@ 0x5c
 80019e2:	6da2      	ldr	r2, [r4, #88]	@ 0x58
 80019e4:	3303      	adds	r3, #3
 80019e6:	439a      	bics	r2, r3
 80019e8:	3b02      	subs	r3, #2
 80019ea:	4313      	orrs	r3, r2
 80019ec:	65a3      	str	r3, [r4, #88]	@ 0x58
 80019ee:	9801      	ldr	r0, [sp, #4]
 80019f0:	b005      	add	sp, #20
 80019f2:	bdf0      	pop	{r4, r5, r6, r7, pc}
 80019f4:	68aa      	ldr	r2, [r5, #8]
 80019f6:	4924      	ldr	r1, [pc, #144]	@ (8001a88 <HAL_ADC_Init+0x214>)
 80019f8:	400a      	ands	r2, r1
 80019fa:	4313      	orrs	r3, r2
 80019fc:	60ab      	str	r3, [r5, #8]
 80019fe:	4b23      	ldr	r3, [pc, #140]	@ (8001a8c <HAL_ADC_Init+0x218>)
 8001a00:	4923      	ldr	r1, [pc, #140]	@ (8001a90 <HAL_ADC_Init+0x21c>)
 8001a02:	6818      	ldr	r0, [r3, #0]
 8001a04:	f7fe fb94 	bl	8000130 <__udivsi3>
 8001a08:	0040      	lsls	r0, r0, #1
 8001a0a:	9003      	str	r0, [sp, #12]
 8001a0c:	9b03      	ldr	r3, [sp, #12]
 8001a0e:	2b00      	cmp	r3, #0
 8001a10:	d100      	bne.n	8001a14 <HAL_ADC_Init+0x1a0>
 8001a12:	e747      	b.n	80018a4 <HAL_ADC_Init+0x30>
 8001a14:	9b03      	ldr	r3, [sp, #12]
 8001a16:	3b01      	subs	r3, #1
 8001a18:	9303      	str	r3, [sp, #12]
 8001a1a:	e7f7      	b.n	8001a0c <HAL_ADC_Init+0x198>
 8001a1c:	2180      	movs	r1, #128	@ 0x80
 8001a1e:	0389      	lsls	r1, r1, #14
 8001a20:	e778      	b.n	8001914 <HAL_ADC_Init+0xa0>
 8001a22:	2220      	movs	r2, #32
 8001a24:	6da7      	ldr	r7, [r4, #88]	@ 0x58
 8001a26:	433a      	orrs	r2, r7
 8001a28:	65a2      	str	r2, [r4, #88]	@ 0x58
 8001a2a:	6de2      	ldr	r2, [r4, #92]	@ 0x5c
 8001a2c:	4311      	orrs	r1, r2
 8001a2e:	65e1      	str	r1, [r4, #92]	@ 0x5c
 8001a30:	e782      	b.n	8001938 <HAL_ADC_Init+0xc4>
 8001a32:	2380      	movs	r3, #128	@ 0x80
 8001a34:	039b      	lsls	r3, r3, #14
 8001a36:	4298      	cmp	r0, r3
 8001a38:	d1cc      	bne.n	80019d4 <HAL_ADC_Init+0x160>
 8001a3a:	211c      	movs	r1, #28
 8001a3c:	6aab      	ldr	r3, [r5, #40]	@ 0x28
 8001a3e:	69e3      	ldr	r3, [r4, #28]
 8001a40:	3b01      	subs	r3, #1
 8001a42:	009b      	lsls	r3, r3, #2
 8001a44:	400b      	ands	r3, r1
 8001a46:	392c      	subs	r1, #44	@ 0x2c
 8001a48:	4099      	lsls	r1, r3
 8001a4a:	000b      	movs	r3, r1
 8001a4c:	6e21      	ldr	r1, [r4, #96]	@ 0x60
 8001a4e:	e7bf      	b.n	80019d0 <HAL_ADC_Init+0x15c>
 8001a50:	2312      	movs	r3, #18
 8001a52:	6da2      	ldr	r2, [r4, #88]	@ 0x58
 8001a54:	439a      	bics	r2, r3
 8001a56:	3b02      	subs	r3, #2
 8001a58:	4313      	orrs	r3, r2
 8001a5a:	65a3      	str	r3, [r4, #88]	@ 0x58
 8001a5c:	2301      	movs	r3, #1
 8001a5e:	6de2      	ldr	r2, [r4, #92]	@ 0x5c
 8001a60:	4313      	orrs	r3, r2
 8001a62:	65e3      	str	r3, [r4, #92]	@ 0x5c
 8001a64:	2301      	movs	r3, #1
 8001a66:	9301      	str	r3, [sp, #4]
 8001a68:	e7c1      	b.n	80019ee <HAL_ADC_Init+0x17a>
 8001a6a:	6da3      	ldr	r3, [r4, #88]	@ 0x58
 8001a6c:	431a      	orrs	r2, r3
 8001a6e:	65a2      	str	r2, [r4, #88]	@ 0x58
 8001a70:	e7f8      	b.n	8001a64 <HAL_ADC_Init+0x1f0>
 8001a72:	46c0      	nop			@ (mov r8, r8)
 8001a74:	fffffefd 	.word	0xfffffefd
 8001a78:	ffde0201 	.word	0xffde0201
 8001a7c:	1ffffc02 	.word	0x1ffffc02
 8001a80:	40012708 	.word	0x40012708
 8001a84:	ffc3ffff 	.word	0xffc3ffff
 8001a88:	6fffffe8 	.word	0x6fffffe8
 8001a8c:	20000068 	.word	0x20000068
 8001a90:	00030d40 	.word	0x00030d40

08001a94 <HAL_ADC_ConvHalfCpltCallback>:
 8001a94:	4770      	bx	lr

08001a96 <ADC_DMAHalfConvCplt>:
 8001a96:	b510      	push	{r4, lr}
 8001a98:	6a80      	ldr	r0, [r0, #40]	@ 0x28
 8001a9a:	f7ff fffb 	bl	8001a94 <HAL_ADC_ConvHalfCpltCallback>
 8001a9e:	bd10      	pop	{r4, pc}

08001aa0 <HAL_ADC_ErrorCallback>:
 8001aa0:	4770      	bx	lr

08001aa2 <ADC_DMAError>:
 8001aa2:	2340      	movs	r3, #64	@ 0x40
 8001aa4:	6a80      	ldr	r0, [r0, #40]	@ 0x28
 8001aa6:	b510      	push	{r4, lr}
 8001aa8:	6d82      	ldr	r2, [r0, #88]	@ 0x58
 8001aaa:	4313      	orrs	r3, r2
 8001aac:	6583      	str	r3, [r0, #88]	@ 0x58
 8001aae:	2304      	movs	r3, #4
 8001ab0:	6dc2      	ldr	r2, [r0, #92]	@ 0x5c
 8001ab2:	4313      	orrs	r3, r2
 8001ab4:	65c3      	str	r3, [r0, #92]	@ 0x5c
 8001ab6:	f7ff fff3 	bl	8001aa0 <HAL_ADC_ErrorCallback>
 8001aba:	bd10      	pop	{r4, pc}

08001abc <ADC_DMAConvCplt>:
 8001abc:	2350      	movs	r3, #80	@ 0x50
 8001abe:	b570      	push	{r4, r5, r6, lr}
 8001ac0:	6a84      	ldr	r4, [r0, #40]	@ 0x28
 8001ac2:	6da2      	ldr	r2, [r4, #88]	@ 0x58
 8001ac4:	421a      	tst	r2, r3
 8001ac6:	d12d      	bne.n	8001b24 <ADC_DMAConvCplt+0x68>
 8001ac8:	6da2      	ldr	r2, [r4, #88]	@ 0x58
 8001aca:	33b1      	adds	r3, #177	@ 0xb1
 8001acc:	33ff      	adds	r3, #255	@ 0xff
 8001ace:	4313      	orrs	r3, r2
 8001ad0:	65a3      	str	r3, [r4, #88]	@ 0x58
 8001ad2:	23c0      	movs	r3, #192	@ 0xc0
 8001ad4:	6825      	ldr	r5, [r4, #0]
 8001ad6:	011b      	lsls	r3, r3, #4
 8001ad8:	68ea      	ldr	r2, [r5, #12]
 8001ada:	421a      	tst	r2, r3
 8001adc:	d115      	bne.n	8001b0a <ADC_DMAConvCplt+0x4e>
 8001ade:	7ea3      	ldrb	r3, [r4, #26]
 8001ae0:	2b00      	cmp	r3, #0
 8001ae2:	d112      	bne.n	8001b0a <ADC_DMAConvCplt+0x4e>
 8001ae4:	682b      	ldr	r3, [r5, #0]
 8001ae6:	071b      	lsls	r3, r3, #28
 8001ae8:	d50f      	bpl.n	8001b0a <ADC_DMAConvCplt+0x4e>
 8001aea:	0028      	movs	r0, r5
 8001aec:	f7ff febe 	bl	800186c <LL_ADC_REG_IsConversionOngoing>
 8001af0:	2800      	cmp	r0, #0
 8001af2:	d10e      	bne.n	8001b12 <ADC_DMAConvCplt+0x56>
 8001af4:	220c      	movs	r2, #12
 8001af6:	686b      	ldr	r3, [r5, #4]
 8001af8:	4393      	bics	r3, r2
 8001afa:	606b      	str	r3, [r5, #4]
 8001afc:	6da2      	ldr	r2, [r4, #88]	@ 0x58
 8001afe:	4b0f      	ldr	r3, [pc, #60]	@ (8001b3c <ADC_DMAConvCplt+0x80>)
 8001b00:	401a      	ands	r2, r3
 8001b02:	3304      	adds	r3, #4
 8001b04:	33ff      	adds	r3, #255	@ 0xff
 8001b06:	4313      	orrs	r3, r2
 8001b08:	65a3      	str	r3, [r4, #88]	@ 0x58
 8001b0a:	0020      	movs	r0, r4
 8001b0c:	f7fe fd5c 	bl	80005c8 <HAL_ADC_ConvCpltCallback>
 8001b10:	bd70      	pop	{r4, r5, r6, pc}
 8001b12:	2320      	movs	r3, #32
 8001b14:	6da2      	ldr	r2, [r4, #88]	@ 0x58
 8001b16:	4313      	orrs	r3, r2
 8001b18:	65a3      	str	r3, [r4, #88]	@ 0x58
 8001b1a:	2301      	movs	r3, #1
 8001b1c:	6de2      	ldr	r2, [r4, #92]	@ 0x5c
 8001b1e:	4313      	orrs	r3, r2
 8001b20:	65e3      	str	r3, [r4, #92]	@ 0x5c
 8001b22:	e7f2      	b.n	8001b0a <ADC_DMAConvCplt+0x4e>
 8001b24:	6da3      	ldr	r3, [r4, #88]	@ 0x58
 8001b26:	06db      	lsls	r3, r3, #27
 8001b28:	d503      	bpl.n	8001b32 <ADC_DMAConvCplt+0x76>
 8001b2a:	0020      	movs	r0, r4
 8001b2c:	f7ff ffb8 	bl	8001aa0 <HAL_ADC_ErrorCallback>
 8001b30:	e7ee      	b.n	8001b10 <ADC_DMAConvCplt+0x54>
 8001b32:	6d23      	ldr	r3, [r4, #80]	@ 0x50
 8001b34:	6b5b      	ldr	r3, [r3, #52]	@ 0x34
 8001b36:	4798      	blx	r3
 8001b38:	e7ea      	b.n	8001b10 <ADC_DMAConvCplt+0x54>
 8001b3a:	46c0      	nop			@ (mov r8, r8)
 8001b3c:	fffffefe 	.word	0xfffffefe

08001b40 <HAL_ADC_ConfigChannel>:
 8001b40:	2300      	movs	r3, #0
 8001b42:	b5f0      	push	{r4, r5, r6, r7, lr}
 8001b44:	b085      	sub	sp, #20
 8001b46:	9303      	str	r3, [sp, #12]
 8001b48:	0003      	movs	r3, r0
 8001b4a:	9100      	str	r1, [sp, #0]
 8001b4c:	3354      	adds	r3, #84	@ 0x54
 8001b4e:	781a      	ldrb	r2, [r3, #0]
 8001b50:	0004      	movs	r4, r0
 8001b52:	2002      	movs	r0, #2
 8001b54:	2a01      	cmp	r2, #1
 8001b56:	d04d      	beq.n	8001bf4 <HAL_ADC_ConfigChannel+0xb4>
 8001b58:	2201      	movs	r2, #1
 8001b5a:	6927      	ldr	r7, [r4, #16]
 8001b5c:	701a      	strb	r2, [r3, #0]
 8001b5e:	6825      	ldr	r5, [r4, #0]
 8001b60:	0028      	movs	r0, r5
 8001b62:	f7ff fe83 	bl	800186c <LL_ADC_REG_IsConversionOngoing>
 8001b66:	2800      	cmp	r0, #0
 8001b68:	d000      	beq.n	8001b6c <HAL_ADC_ConfigChannel+0x2c>
 8001b6a:	e0e8      	b.n	8001d3e <HAL_ADC_ConfigChannel+0x1fe>
 8001b6c:	9b00      	ldr	r3, [sp, #0]
 8001b6e:	2204      	movs	r2, #4
 8001b70:	685b      	ldr	r3, [r3, #4]
 8001b72:	2180      	movs	r1, #128	@ 0x80
 8001b74:	469c      	mov	ip, r3
 8001b76:	4397      	bics	r7, r2
 8001b78:	4662      	mov	r2, ip
 8001b7a:	9b00      	ldr	r3, [sp, #0]
 8001b7c:	0609      	lsls	r1, r1, #24
 8001b7e:	681b      	ldr	r3, [r3, #0]
 8001b80:	2a02      	cmp	r2, #2
 8001b82:	d100      	bne.n	8001b86 <HAL_ADC_ConfigChannel+0x46>
 8001b84:	e0b6      	b.n	8001cf4 <HAL_ADC_ConfigChannel+0x1b4>
 8001b86:	025a      	lsls	r2, r3, #9
 8001b88:	0a52      	lsrs	r2, r2, #9
 8001b8a:	428f      	cmp	r7, r1
 8001b8c:	d134      	bne.n	8001bf8 <HAL_ADC_ConfigChannel+0xb8>
 8001b8e:	6aa9      	ldr	r1, [r5, #40]	@ 0x28
 8001b90:	430a      	orrs	r2, r1
 8001b92:	62aa      	str	r2, [r5, #40]	@ 0x28
 8001b94:	9a00      	ldr	r2, [sp, #0]
 8001b96:	6968      	ldr	r0, [r5, #20]
 8001b98:	6892      	ldr	r2, [r2, #8]
 8001b9a:	0219      	lsls	r1, r3, #8
 8001b9c:	4e6b      	ldr	r6, [pc, #428]	@ (8001d4c <HAL_ADC_ConfigChannel+0x20c>)
 8001b9e:	400a      	ands	r2, r1
 8001ba0:	4032      	ands	r2, r6
 8001ba2:	4388      	bics	r0, r1
 8001ba4:	4302      	orrs	r2, r0
 8001ba6:	616a      	str	r2, [r5, #20]
 8001ba8:	2b00      	cmp	r3, #0
 8001baa:	da1f      	bge.n	8001bec <HAL_ADC_ConfigChannel+0xac>
 8001bac:	20c0      	movs	r0, #192	@ 0xc0
 8001bae:	4a68      	ldr	r2, [pc, #416]	@ (8001d50 <HAL_ADC_ConfigChannel+0x210>)
 8001bb0:	4968      	ldr	r1, [pc, #416]	@ (8001d54 <HAL_ADC_ConfigChannel+0x214>)
 8001bb2:	6815      	ldr	r5, [r2, #0]
 8001bb4:	0400      	lsls	r0, r0, #16
 8001bb6:	4028      	ands	r0, r5
 8001bb8:	428b      	cmp	r3, r1
 8001bba:	d000      	beq.n	8001bbe <HAL_ADC_ConfigChannel+0x7e>
 8001bbc:	e08a      	b.n	8001cd4 <HAL_ADC_ConfigChannel+0x194>
 8001bbe:	2180      	movs	r1, #128	@ 0x80
 8001bc0:	0409      	lsls	r1, r1, #16
 8001bc2:	420d      	tst	r5, r1
 8001bc4:	d112      	bne.n	8001bec <HAL_ADC_ConfigChannel+0xac>
 8001bc6:	6813      	ldr	r3, [r2, #0]
 8001bc8:	4d63      	ldr	r5, [pc, #396]	@ (8001d58 <HAL_ADC_ConfigChannel+0x218>)
 8001bca:	402b      	ands	r3, r5
 8001bcc:	4303      	orrs	r3, r0
 8001bce:	4319      	orrs	r1, r3
 8001bd0:	4b62      	ldr	r3, [pc, #392]	@ (8001d5c <HAL_ADC_ConfigChannel+0x21c>)
 8001bd2:	6011      	str	r1, [r2, #0]
 8001bd4:	6818      	ldr	r0, [r3, #0]
 8001bd6:	4962      	ldr	r1, [pc, #392]	@ (8001d60 <HAL_ADC_ConfigChannel+0x220>)
 8001bd8:	f7fe faaa 	bl	8000130 <__udivsi3>
 8001bdc:	230c      	movs	r3, #12
 8001bde:	4343      	muls	r3, r0
 8001be0:	3301      	adds	r3, #1
 8001be2:	9303      	str	r3, [sp, #12]
 8001be4:	9b03      	ldr	r3, [sp, #12]
 8001be6:	2b00      	cmp	r3, #0
 8001be8:	d000      	beq.n	8001bec <HAL_ADC_ConfigChannel+0xac>
 8001bea:	e070      	b.n	8001cce <HAL_ADC_ConfigChannel+0x18e>
 8001bec:	2000      	movs	r0, #0
 8001bee:	2300      	movs	r3, #0
 8001bf0:	3454      	adds	r4, #84	@ 0x54
 8001bf2:	7023      	strb	r3, [r4, #0]
 8001bf4:	b005      	add	sp, #20
 8001bf6:	bdf0      	pop	{r4, r5, r6, r7, pc}
 8001bf8:	211f      	movs	r1, #31
 8001bfa:	4667      	mov	r7, ip
 8001bfc:	400f      	ands	r7, r1
 8001bfe:	3910      	subs	r1, #16
 8001c00:	40b9      	lsls	r1, r7
 8001c02:	43ce      	mvns	r6, r1
 8001c04:	9601      	str	r6, [sp, #4]
 8001c06:	6e26      	ldr	r6, [r4, #96]	@ 0x60
 8001c08:	438e      	bics	r6, r1
 8001c0a:	0031      	movs	r1, r6
 8001c0c:	2a00      	cmp	r2, #0
 8001c0e:	d112      	bne.n	8001c36 <HAL_ADC_ConfigChannel+0xf6>
 8001c10:	0e98      	lsrs	r0, r3, #26
 8001c12:	321f      	adds	r2, #31
 8001c14:	4010      	ands	r0, r2
 8001c16:	40b8      	lsls	r0, r7
 8001c18:	4662      	mov	r2, ip
 8001c1a:	4308      	orrs	r0, r1
 8001c1c:	0892      	lsrs	r2, r2, #2
 8001c1e:	69e1      	ldr	r1, [r4, #28]
 8001c20:	3201      	adds	r2, #1
 8001c22:	6620      	str	r0, [r4, #96]	@ 0x60
 8001c24:	428a      	cmp	r2, r1
 8001c26:	d8b5      	bhi.n	8001b94 <HAL_ADC_ConfigChannel+0x54>
 8001c28:	6aa9      	ldr	r1, [r5, #40]	@ 0x28
 8001c2a:	9801      	ldr	r0, [sp, #4]
 8001c2c:	009a      	lsls	r2, r3, #2
 8001c2e:	0f12      	lsrs	r2, r2, #28
 8001c30:	40ba      	lsls	r2, r7
 8001c32:	4001      	ands	r1, r0
 8001c34:	e7ac      	b.n	8001b90 <HAL_ADC_ConfigChannel+0x50>
 8001c36:	2201      	movs	r2, #1
 8001c38:	4213      	tst	r3, r2
 8001c3a:	d1ec      	bne.n	8001c16 <HAL_ADC_ConfigChannel+0xd6>
 8001c3c:	1892      	adds	r2, r2, r2
 8001c3e:	2001      	movs	r0, #1
 8001c40:	4213      	tst	r3, r2
 8001c42:	d1e8      	bne.n	8001c16 <HAL_ADC_ConfigChannel+0xd6>
 8001c44:	0010      	movs	r0, r2
 8001c46:	3202      	adds	r2, #2
 8001c48:	4213      	tst	r3, r2
 8001c4a:	d1e4      	bne.n	8001c16 <HAL_ADC_ConfigChannel+0xd6>
 8001c4c:	3001      	adds	r0, #1
 8001c4e:	071a      	lsls	r2, r3, #28
 8001c50:	d4e1      	bmi.n	8001c16 <HAL_ADC_ConfigChannel+0xd6>
 8001c52:	3001      	adds	r0, #1
 8001c54:	06da      	lsls	r2, r3, #27
 8001c56:	d4de      	bmi.n	8001c16 <HAL_ADC_ConfigChannel+0xd6>
 8001c58:	3001      	adds	r0, #1
 8001c5a:	069a      	lsls	r2, r3, #26
 8001c5c:	d4db      	bmi.n	8001c16 <HAL_ADC_ConfigChannel+0xd6>
 8001c5e:	3001      	adds	r0, #1
 8001c60:	065a      	lsls	r2, r3, #25
 8001c62:	d4d8      	bmi.n	8001c16 <HAL_ADC_ConfigChannel+0xd6>
 8001c64:	3001      	adds	r0, #1
 8001c66:	061a      	lsls	r2, r3, #24
 8001c68:	d4d5      	bmi.n	8001c16 <HAL_ADC_ConfigChannel+0xd6>
 8001c6a:	3001      	adds	r0, #1
 8001c6c:	05da      	lsls	r2, r3, #23
 8001c6e:	d4d2      	bmi.n	8001c16 <HAL_ADC_ConfigChannel+0xd6>
 8001c70:	3001      	adds	r0, #1
 8001c72:	059a      	lsls	r2, r3, #22
 8001c74:	d4cf      	bmi.n	8001c16 <HAL_ADC_ConfigChannel+0xd6>
 8001c76:	3001      	adds	r0, #1
 8001c78:	055a      	lsls	r2, r3, #21
 8001c7a:	d4cc      	bmi.n	8001c16 <HAL_ADC_ConfigChannel+0xd6>
 8001c7c:	3001      	adds	r0, #1
 8001c7e:	051a      	lsls	r2, r3, #20
 8001c80:	d4c9      	bmi.n	8001c16 <HAL_ADC_ConfigChannel+0xd6>
 8001c82:	3001      	adds	r0, #1
 8001c84:	04da      	lsls	r2, r3, #19
 8001c86:	d4c6      	bmi.n	8001c16 <HAL_ADC_ConfigChannel+0xd6>
 8001c88:	3001      	adds	r0, #1
 8001c8a:	049a      	lsls	r2, r3, #18
 8001c8c:	d4c3      	bmi.n	8001c16 <HAL_ADC_ConfigChannel+0xd6>
 8001c8e:	3001      	adds	r0, #1
 8001c90:	045a      	lsls	r2, r3, #17
 8001c92:	d4c0      	bmi.n	8001c16 <HAL_ADC_ConfigChannel+0xd6>
 8001c94:	3001      	adds	r0, #1
 8001c96:	041a      	lsls	r2, r3, #16
 8001c98:	d4bd      	bmi.n	8001c16 <HAL_ADC_ConfigChannel+0xd6>
 8001c9a:	3001      	adds	r0, #1
 8001c9c:	03da      	lsls	r2, r3, #15
 8001c9e:	d4ba      	bmi.n	8001c16 <HAL_ADC_ConfigChannel+0xd6>
 8001ca0:	3001      	adds	r0, #1
 8001ca2:	039a      	lsls	r2, r3, #14
 8001ca4:	d4b7      	bmi.n	8001c16 <HAL_ADC_ConfigChannel+0xd6>
 8001ca6:	3001      	adds	r0, #1
 8001ca8:	035a      	lsls	r2, r3, #13
 8001caa:	d4b4      	bmi.n	8001c16 <HAL_ADC_ConfigChannel+0xd6>
 8001cac:	3001      	adds	r0, #1
 8001cae:	031a      	lsls	r2, r3, #12
 8001cb0:	d4b1      	bmi.n	8001c16 <HAL_ADC_ConfigChannel+0xd6>
 8001cb2:	3001      	adds	r0, #1
 8001cb4:	02da      	lsls	r2, r3, #11
 8001cb6:	d4ae      	bmi.n	8001c16 <HAL_ADC_ConfigChannel+0xd6>
 8001cb8:	3001      	adds	r0, #1
 8001cba:	029a      	lsls	r2, r3, #10
 8001cbc:	d4ab      	bmi.n	8001c16 <HAL_ADC_ConfigChannel+0xd6>
 8001cbe:	2280      	movs	r2, #128	@ 0x80
 8001cc0:	0018      	movs	r0, r3
 8001cc2:	03d2      	lsls	r2, r2, #15
 8001cc4:	4010      	ands	r0, r2
 8001cc6:	4213      	tst	r3, r2
 8001cc8:	d0a5      	beq.n	8001c16 <HAL_ADC_ConfigChannel+0xd6>
 8001cca:	2016      	movs	r0, #22
 8001ccc:	e7a3      	b.n	8001c16 <HAL_ADC_ConfigChannel+0xd6>
 8001cce:	9b03      	ldr	r3, [sp, #12]
 8001cd0:	3b01      	subs	r3, #1
 8001cd2:	e786      	b.n	8001be2 <HAL_ADC_ConfigChannel+0xa2>
 8001cd4:	4923      	ldr	r1, [pc, #140]	@ (8001d64 <HAL_ADC_ConfigChannel+0x224>)
 8001cd6:	428b      	cmp	r3, r1
 8001cd8:	d000      	beq.n	8001cdc <HAL_ADC_ConfigChannel+0x19c>
 8001cda:	e787      	b.n	8001bec <HAL_ADC_ConfigChannel+0xac>
 8001cdc:	2180      	movs	r1, #128	@ 0x80
 8001cde:	03c9      	lsls	r1, r1, #15
 8001ce0:	420d      	tst	r5, r1
 8001ce2:	d000      	beq.n	8001ce6 <HAL_ADC_ConfigChannel+0x1a6>
 8001ce4:	e782      	b.n	8001bec <HAL_ADC_ConfigChannel+0xac>
 8001ce6:	6813      	ldr	r3, [r2, #0]
 8001ce8:	4d1b      	ldr	r5, [pc, #108]	@ (8001d58 <HAL_ADC_ConfigChannel+0x218>)
 8001cea:	402b      	ands	r3, r5
 8001cec:	4303      	orrs	r3, r0
 8001cee:	4319      	orrs	r1, r3
 8001cf0:	6011      	str	r1, [r2, #0]
 8001cf2:	e77b      	b.n	8001bec <HAL_ADC_ConfigChannel+0xac>
 8001cf4:	428f      	cmp	r7, r1
 8001cf6:	d104      	bne.n	8001d02 <HAL_ADC_ConfigChannel+0x1c2>
 8001cf8:	6aaa      	ldr	r2, [r5, #40]	@ 0x28
 8001cfa:	0259      	lsls	r1, r3, #9
 8001cfc:	0a49      	lsrs	r1, r1, #9
 8001cfe:	438a      	bics	r2, r1
 8001d00:	62aa      	str	r2, [r5, #40]	@ 0x28
 8001d02:	2b00      	cmp	r3, #0
 8001d04:	db00      	blt.n	8001d08 <HAL_ADC_ConfigChannel+0x1c8>
 8001d06:	e771      	b.n	8001bec <HAL_ADC_ConfigChannel+0xac>
 8001d08:	4911      	ldr	r1, [pc, #68]	@ (8001d50 <HAL_ADC_ConfigChannel+0x210>)
 8001d0a:	4812      	ldr	r0, [pc, #72]	@ (8001d54 <HAL_ADC_ConfigChannel+0x214>)
 8001d0c:	680a      	ldr	r2, [r1, #0]
 8001d0e:	4283      	cmp	r3, r0
 8001d10:	d108      	bne.n	8001d24 <HAL_ADC_ConfigChannel+0x1e4>
 8001d12:	2380      	movs	r3, #128	@ 0x80
 8001d14:	03db      	lsls	r3, r3, #15
 8001d16:	6808      	ldr	r0, [r1, #0]
 8001d18:	4013      	ands	r3, r2
 8001d1a:	4a0f      	ldr	r2, [pc, #60]	@ (8001d58 <HAL_ADC_ConfigChannel+0x218>)
 8001d1c:	4002      	ands	r2, r0
 8001d1e:	4313      	orrs	r3, r2
 8001d20:	600b      	str	r3, [r1, #0]
 8001d22:	e763      	b.n	8001bec <HAL_ADC_ConfigChannel+0xac>
 8001d24:	480f      	ldr	r0, [pc, #60]	@ (8001d64 <HAL_ADC_ConfigChannel+0x224>)
 8001d26:	4283      	cmp	r3, r0
 8001d28:	d000      	beq.n	8001d2c <HAL_ADC_ConfigChannel+0x1ec>
 8001d2a:	e75f      	b.n	8001bec <HAL_ADC_ConfigChannel+0xac>
 8001d2c:	2080      	movs	r0, #128	@ 0x80
 8001d2e:	0400      	lsls	r0, r0, #16
 8001d30:	680b      	ldr	r3, [r1, #0]
 8001d32:	4002      	ands	r2, r0
 8001d34:	4808      	ldr	r0, [pc, #32]	@ (8001d58 <HAL_ADC_ConfigChannel+0x218>)
 8001d36:	4003      	ands	r3, r0
 8001d38:	431a      	orrs	r2, r3
 8001d3a:	600a      	str	r2, [r1, #0]
 8001d3c:	e756      	b.n	8001bec <HAL_ADC_ConfigChannel+0xac>
 8001d3e:	2320      	movs	r3, #32
 8001d40:	6da2      	ldr	r2, [r4, #88]	@ 0x58
 8001d42:	2001      	movs	r0, #1
 8001d44:	4313      	orrs	r3, r2
 8001d46:	65a3      	str	r3, [r4, #88]	@ 0x58
 8001d48:	e751      	b.n	8001bee <HAL_ADC_ConfigChannel+0xae>
 8001d4a:	46c0      	nop			@ (mov r8, r8)
 8001d4c:	7fffff00 	.word	0x7fffff00
 8001d50:	40012708 	.word	0x40012708
 8001d54:	a4000200 	.word	0xa4000200
 8001d58:	ff3fffff 	.word	0xff3fffff
 8001d5c:	20000068 	.word	0x20000068
 8001d60:	00030d40 	.word	0x00030d40
 8001d64:	a8000400 	.word	0xa8000400

08001d68 <ADC_Enable>:
 8001d68:	2300      	movs	r3, #0
 8001d6a:	b5f7      	push	{r0, r1, r2, r4, r5, r6, r7, lr}
 8001d6c:	6802      	ldr	r2, [r0, #0]
 8001d6e:	9301      	str	r3, [sp, #4]
 8001d70:	6891      	ldr	r1, [r2, #8]
 8001d72:	3301      	adds	r3, #1
 8001d74:	0004      	movs	r4, r0
 8001d76:	4219      	tst	r1, r3
 8001d78:	d001      	beq.n	8001d7e <ADC_Enable+0x16>
 8001d7a:	2000      	movs	r0, #0
 8001d7c:	bdfe      	pop	{r1, r2, r3, r4, r5, r6, r7, pc}
 8001d7e:	6890      	ldr	r0, [r2, #8]
 8001d80:	4920      	ldr	r1, [pc, #128]	@ (8001e04 <ADC_Enable+0x9c>)
 8001d82:	4208      	tst	r0, r1
 8001d84:	d008      	beq.n	8001d98 <ADC_Enable+0x30>
 8001d86:	2210      	movs	r2, #16
 8001d88:	6da1      	ldr	r1, [r4, #88]	@ 0x58
 8001d8a:	430a      	orrs	r2, r1
 8001d8c:	65a2      	str	r2, [r4, #88]	@ 0x58
 8001d8e:	6de2      	ldr	r2, [r4, #92]	@ 0x5c
 8001d90:	4313      	orrs	r3, r2
 8001d92:	2001      	movs	r0, #1
 8001d94:	65e3      	str	r3, [r4, #92]	@ 0x5c
 8001d96:	e7f1      	b.n	8001d7c <ADC_Enable+0x14>
 8001d98:	6891      	ldr	r1, [r2, #8]
 8001d9a:	4f1b      	ldr	r7, [pc, #108]	@ (8001e08 <ADC_Enable+0xa0>)
 8001d9c:	4039      	ands	r1, r7
 8001d9e:	430b      	orrs	r3, r1
 8001da0:	6093      	str	r3, [r2, #8]
 8001da2:	4b1a      	ldr	r3, [pc, #104]	@ (8001e0c <ADC_Enable+0xa4>)
 8001da4:	681b      	ldr	r3, [r3, #0]
 8001da6:	021b      	lsls	r3, r3, #8
 8001da8:	d41d      	bmi.n	8001de6 <ADC_Enable+0x7e>
 8001daa:	7e63      	ldrb	r3, [r4, #25]
 8001dac:	2b01      	cmp	r3, #1
 8001dae:	d0e4      	beq.n	8001d7a <ADC_Enable+0x12>
 8001db0:	f7ff fd44 	bl	800183c <HAL_GetTick>
 8001db4:	2501      	movs	r5, #1
 8001db6:	0006      	movs	r6, r0
 8001db8:	6822      	ldr	r2, [r4, #0]
 8001dba:	6813      	ldr	r3, [r2, #0]
 8001dbc:	422b      	tst	r3, r5
 8001dbe:	d1dc      	bne.n	8001d7a <ADC_Enable+0x12>
 8001dc0:	6893      	ldr	r3, [r2, #8]
 8001dc2:	422b      	tst	r3, r5
 8001dc4:	d103      	bne.n	8001dce <ADC_Enable+0x66>
 8001dc6:	6893      	ldr	r3, [r2, #8]
 8001dc8:	403b      	ands	r3, r7
 8001dca:	432b      	orrs	r3, r5
 8001dcc:	6093      	str	r3, [r2, #8]
 8001dce:	f7ff fd35 	bl	800183c <HAL_GetTick>
 8001dd2:	1b80      	subs	r0, r0, r6
 8001dd4:	2802      	cmp	r0, #2
 8001dd6:	d9ef      	bls.n	8001db8 <ADC_Enable+0x50>
 8001dd8:	2310      	movs	r3, #16
 8001dda:	6da2      	ldr	r2, [r4, #88]	@ 0x58
 8001ddc:	4313      	orrs	r3, r2
 8001dde:	65a3      	str	r3, [r4, #88]	@ 0x58
 8001de0:	6de2      	ldr	r2, [r4, #92]	@ 0x5c
 8001de2:	2301      	movs	r3, #1
 8001de4:	e7d4      	b.n	8001d90 <ADC_Enable+0x28>
 8001de6:	4b0a      	ldr	r3, [pc, #40]	@ (8001e10 <ADC_Enable+0xa8>)
 8001de8:	490a      	ldr	r1, [pc, #40]	@ (8001e14 <ADC_Enable+0xac>)
 8001dea:	6818      	ldr	r0, [r3, #0]
 8001dec:	f7fe f9a0 	bl	8000130 <__udivsi3>
 8001df0:	3001      	adds	r0, #1
 8001df2:	9001      	str	r0, [sp, #4]
 8001df4:	9b01      	ldr	r3, [sp, #4]
 8001df6:	2b00      	cmp	r3, #0
 8001df8:	d0d7      	beq.n	8001daa <ADC_Enable+0x42>
 8001dfa:	9b01      	ldr	r3, [sp, #4]
 8001dfc:	3b01      	subs	r3, #1
 8001dfe:	9301      	str	r3, [sp, #4]
 8001e00:	e7f8      	b.n	8001df4 <ADC_Enable+0x8c>
 8001e02:	46c0      	nop			@ (mov r8, r8)
 8001e04:	80000017 	.word	0x80000017
 8001e08:	7fffffe8 	.word	0x7fffffe8
 8001e0c:	40012708 	.word	0x40012708
 8001e10:	20000068 	.word	0x20000068
 8001e14:	00030d40 	.word	0x00030d40

08001e18 <HAL_ADC_Start_DMA>:
 8001e18:	b5f7      	push	{r0, r1, r2, r4, r5, r6, r7, lr}
 8001e1a:	6805      	ldr	r5, [r0, #0]
 8001e1c:	0004      	movs	r4, r0
 8001e1e:	0028      	movs	r0, r5
 8001e20:	000e      	movs	r6, r1
 8001e22:	9201      	str	r2, [sp, #4]
 8001e24:	f7ff fd22 	bl	800186c <LL_ADC_REG_IsConversionOngoing>
 8001e28:	2302      	movs	r3, #2
 8001e2a:	2800      	cmp	r0, #0
 8001e2c:	d13f      	bne.n	8001eae <HAL_ADC_Start_DMA+0x96>
 8001e2e:	0027      	movs	r7, r4
 8001e30:	3754      	adds	r7, #84	@ 0x54
 8001e32:	783a      	ldrb	r2, [r7, #0]
 8001e34:	2a01      	cmp	r2, #1
 8001e36:	d03a      	beq.n	8001eae <HAL_ADC_Start_DMA+0x96>
 8001e38:	3b01      	subs	r3, #1
 8001e3a:	703b      	strb	r3, [r7, #0]
 8001e3c:	68ea      	ldr	r2, [r5, #12]
 8001e3e:	421a      	tst	r2, r3
 8001e40:	d10c      	bne.n	8001e5c <HAL_ADC_Start_DMA+0x44>
 8001e42:	68aa      	ldr	r2, [r5, #8]
 8001e44:	421a      	tst	r2, r3
 8001e46:	d005      	beq.n	8001e54 <HAL_ADC_Start_DMA+0x3c>
 8001e48:	68aa      	ldr	r2, [r5, #8]
 8001e4a:	4b1a      	ldr	r3, [pc, #104]	@ (8001eb4 <HAL_ADC_Start_DMA+0x9c>)
 8001e4c:	401a      	ands	r2, r3
 8001e4e:	2302      	movs	r3, #2
 8001e50:	4313      	orrs	r3, r2
 8001e52:	60ab      	str	r3, [r5, #8]
 8001e54:	2301      	movs	r3, #1
 8001e56:	68ea      	ldr	r2, [r5, #12]
 8001e58:	4313      	orrs	r3, r2
 8001e5a:	60eb      	str	r3, [r5, #12]
 8001e5c:	0020      	movs	r0, r4
 8001e5e:	f7ff ff83 	bl	8001d68 <ADC_Enable>
 8001e62:	1e03      	subs	r3, r0, #0
 8001e64:	d123      	bne.n	8001eae <HAL_ADC_Start_DMA+0x96>
 8001e66:	6da1      	ldr	r1, [r4, #88]	@ 0x58
 8001e68:	4a13      	ldr	r2, [pc, #76]	@ (8001eb8 <HAL_ADC_Start_DMA+0xa0>)
 8001e6a:	4011      	ands	r1, r2
 8001e6c:	2280      	movs	r2, #128	@ 0x80
 8001e6e:	0052      	lsls	r2, r2, #1
 8001e70:	430a      	orrs	r2, r1
 8001e72:	65a2      	str	r2, [r4, #88]	@ 0x58
 8001e74:	65e0      	str	r0, [r4, #92]	@ 0x5c
 8001e76:	4a11      	ldr	r2, [pc, #68]	@ (8001ebc <HAL_ADC_Start_DMA+0xa4>)
 8001e78:	6d20      	ldr	r0, [r4, #80]	@ 0x50
 8001e7a:	6821      	ldr	r1, [r4, #0]
 8001e7c:	62c2      	str	r2, [r0, #44]	@ 0x2c
 8001e7e:	4a10      	ldr	r2, [pc, #64]	@ (8001ec0 <HAL_ADC_Start_DMA+0xa8>)
 8001e80:	6302      	str	r2, [r0, #48]	@ 0x30
 8001e82:	4a10      	ldr	r2, [pc, #64]	@ (8001ec4 <HAL_ADC_Start_DMA+0xac>)
 8001e84:	6342      	str	r2, [r0, #52]	@ 0x34
 8001e86:	221c      	movs	r2, #28
 8001e88:	600a      	str	r2, [r1, #0]
 8001e8a:	703b      	strb	r3, [r7, #0]
 8001e8c:	684a      	ldr	r2, [r1, #4]
 8001e8e:	3310      	adds	r3, #16
 8001e90:	4313      	orrs	r3, r2
 8001e92:	604b      	str	r3, [r1, #4]
 8001e94:	0032      	movs	r2, r6
 8001e96:	9b01      	ldr	r3, [sp, #4]
 8001e98:	3140      	adds	r1, #64	@ 0x40
 8001e9a:	f000 f8f9 	bl	8002090 <HAL_DMA_Start_IT>
 8001e9e:	0003      	movs	r3, r0
 8001ea0:	6820      	ldr	r0, [r4, #0]
 8001ea2:	4a04      	ldr	r2, [pc, #16]	@ (8001eb4 <HAL_ADC_Start_DMA+0x9c>)
 8001ea4:	6881      	ldr	r1, [r0, #8]
 8001ea6:	4011      	ands	r1, r2
 8001ea8:	2204      	movs	r2, #4
 8001eaa:	430a      	orrs	r2, r1
 8001eac:	6082      	str	r2, [r0, #8]
 8001eae:	0018      	movs	r0, r3
 8001eb0:	bdfe      	pop	{r1, r2, r3, r4, r5, r6, r7, pc}
 8001eb2:	46c0      	nop			@ (mov r8, r8)
 8001eb4:	7fffffe8 	.word	0x7fffffe8
 8001eb8:	fffff0fe 	.word	0xfffff0fe
 8001ebc:	08001abd 	.word	0x08001abd
 8001ec0:	08001a97 	.word	0x08001a97
 8001ec4:	08001aa3 	.word	0x08001aa3

08001ec8 <HAL_NVIC_SetPriority>:
 8001ec8:	b510      	push	{r4, lr}
 8001eca:	24ff      	movs	r4, #255	@ 0xff
 8001ecc:	2203      	movs	r2, #3
 8001ece:	000b      	movs	r3, r1
 8001ed0:	0021      	movs	r1, r4
 8001ed2:	4002      	ands	r2, r0
 8001ed4:	00d2      	lsls	r2, r2, #3
 8001ed6:	4091      	lsls	r1, r2
 8001ed8:	019b      	lsls	r3, r3, #6
 8001eda:	4023      	ands	r3, r4
 8001edc:	43c9      	mvns	r1, r1
 8001ede:	4093      	lsls	r3, r2
 8001ee0:	2800      	cmp	r0, #0
 8001ee2:	db0a      	blt.n	8001efa <HAL_NVIC_SetPriority+0x32>
 8001ee4:	24c0      	movs	r4, #192	@ 0xc0
 8001ee6:	4a0b      	ldr	r2, [pc, #44]	@ (8001f14 <HAL_NVIC_SetPriority+0x4c>)
 8001ee8:	0880      	lsrs	r0, r0, #2
 8001eea:	0080      	lsls	r0, r0, #2
 8001eec:	1880      	adds	r0, r0, r2
 8001eee:	00a4      	lsls	r4, r4, #2
 8001ef0:	5902      	ldr	r2, [r0, r4]
 8001ef2:	400a      	ands	r2, r1
 8001ef4:	4313      	orrs	r3, r2
 8001ef6:	5103      	str	r3, [r0, r4]
 8001ef8:	bd10      	pop	{r4, pc}
 8001efa:	220f      	movs	r2, #15
 8001efc:	4010      	ands	r0, r2
 8001efe:	3808      	subs	r0, #8
 8001f00:	4a05      	ldr	r2, [pc, #20]	@ (8001f18 <HAL_NVIC_SetPriority+0x50>)
 8001f02:	0880      	lsrs	r0, r0, #2
 8001f04:	0080      	lsls	r0, r0, #2
 8001f06:	1880      	adds	r0, r0, r2
 8001f08:	69c2      	ldr	r2, [r0, #28]
 8001f0a:	4011      	ands	r1, r2
 8001f0c:	4319      	orrs	r1, r3
 8001f0e:	61c1      	str	r1, [r0, #28]
 8001f10:	e7f2      	b.n	8001ef8 <HAL_NVIC_SetPriority+0x30>
 8001f12:	46c0      	nop			@ (mov r8, r8)
 8001f14:	e000e100 	.word	0xe000e100
 8001f18:	e000ed00 	.word	0xe000ed00

08001f1c <HAL_NVIC_EnableIRQ>:
 8001f1c:	2800      	cmp	r0, #0
 8001f1e:	db05      	blt.n	8001f2c <HAL_NVIC_EnableIRQ+0x10>
 8001f20:	231f      	movs	r3, #31
 8001f22:	4018      	ands	r0, r3
 8001f24:	3b1e      	subs	r3, #30
 8001f26:	4083      	lsls	r3, r0
 8001f28:	4a01      	ldr	r2, [pc, #4]	@ (8001f30 <HAL_NVIC_EnableIRQ+0x14>)
 8001f2a:	6013      	str	r3, [r2, #0]
 8001f2c:	4770      	bx	lr
 8001f2e:	46c0      	nop			@ (mov r8, r8)
 8001f30:	e000e100 	.word	0xe000e100

08001f34 <HAL_SYSTICK_Config>:
 8001f34:	2280      	movs	r2, #128	@ 0x80
 8001f36:	1e43      	subs	r3, r0, #1
 8001f38:	0452      	lsls	r2, r2, #17
 8001f3a:	2001      	movs	r0, #1
 8001f3c:	4293      	cmp	r3, r2
 8001f3e:	d20d      	bcs.n	8001f5c <HAL_SYSTICK_Config+0x28>
 8001f40:	21c0      	movs	r1, #192	@ 0xc0
 8001f42:	4a07      	ldr	r2, [pc, #28]	@ (8001f60 <HAL_SYSTICK_Config+0x2c>)
 8001f44:	4807      	ldr	r0, [pc, #28]	@ (8001f64 <HAL_SYSTICK_Config+0x30>)
 8001f46:	6053      	str	r3, [r2, #4]
 8001f48:	6a03      	ldr	r3, [r0, #32]
 8001f4a:	0609      	lsls	r1, r1, #24
 8001f4c:	021b      	lsls	r3, r3, #8
 8001f4e:	0a1b      	lsrs	r3, r3, #8
 8001f50:	430b      	orrs	r3, r1
 8001f52:	6203      	str	r3, [r0, #32]
 8001f54:	2000      	movs	r0, #0
 8001f56:	2307      	movs	r3, #7
 8001f58:	6090      	str	r0, [r2, #8]
 8001f5a:	6013      	str	r3, [r2, #0]
 8001f5c:	4770      	bx	lr
 8001f5e:	46c0      	nop			@ (mov r8, r8)
 8001f60:	e000e010 	.word	0xe000e010
 8001f64:	e000ed00 	.word	0xe000ed00

08001f68 <DMA_SetConfig>:
 8001f68:	b5f0      	push	{r4, r5, r6, r7, lr}
 8001f6a:	6c84      	ldr	r4, [r0, #72]	@ 0x48
 8001f6c:	6cc5      	ldr	r5, [r0, #76]	@ 0x4c
 8001f6e:	6065      	str	r5, [r4, #4]
 8001f70:	6d04      	ldr	r4, [r0, #80]	@ 0x50
 8001f72:	2c00      	cmp	r4, #0
 8001f74:	d002      	beq.n	8001f7c <DMA_SetConfig+0x14>
 8001f76:	6d44      	ldr	r4, [r0, #84]	@ 0x54
 8001f78:	6d85      	ldr	r5, [r0, #88]	@ 0x58
 8001f7a:	6065      	str	r5, [r4, #4]
 8001f7c:	241c      	movs	r4, #28
 8001f7e:	6c05      	ldr	r5, [r0, #64]	@ 0x40
 8001f80:	4e08      	ldr	r6, [pc, #32]	@ (8001fa4 <DMA_SetConfig+0x3c>)
 8001f82:	4025      	ands	r5, r4
 8001f84:	3c1b      	subs	r4, #27
 8001f86:	40ac      	lsls	r4, r5
 8001f88:	6877      	ldr	r7, [r6, #4]
 8001f8a:	433c      	orrs	r4, r7
 8001f8c:	6074      	str	r4, [r6, #4]
 8001f8e:	6804      	ldr	r4, [r0, #0]
 8001f90:	6063      	str	r3, [r4, #4]
 8001f92:	6883      	ldr	r3, [r0, #8]
 8001f94:	2b10      	cmp	r3, #16
 8001f96:	d102      	bne.n	8001f9e <DMA_SetConfig+0x36>
 8001f98:	60a2      	str	r2, [r4, #8]
 8001f9a:	60e1      	str	r1, [r4, #12]
 8001f9c:	bdf0      	pop	{r4, r5, r6, r7, pc}
 8001f9e:	60a1      	str	r1, [r4, #8]
 8001fa0:	60e2      	str	r2, [r4, #12]
 8001fa2:	e7fb      	b.n	8001f9c <DMA_SetConfig+0x34>
 8001fa4:	40020000 	.word	0x40020000

08001fa8 <DMA_CalcDMAMUXChannelBaseAndMask>:
 8001fa8:	b510      	push	{r4, lr}
 8001faa:	0004      	movs	r4, r0
 8001fac:	6800      	ldr	r0, [r0, #0]
 8001fae:	2114      	movs	r1, #20
 8001fb0:	b2c0      	uxtb	r0, r0
 8001fb2:	3808      	subs	r0, #8
 8001fb4:	f7fe f8bc 	bl	8000130 <__udivsi3>
 8001fb8:	6c23      	ldr	r3, [r4, #64]	@ 0x40
 8001fba:	4a06      	ldr	r2, [pc, #24]	@ (8001fd4 <DMA_CalcDMAMUXChannelBaseAndMask+0x2c>)
 8001fbc:	089b      	lsrs	r3, r3, #2
 8001fbe:	189b      	adds	r3, r3, r2
 8001fc0:	009b      	lsls	r3, r3, #2
 8001fc2:	6463      	str	r3, [r4, #68]	@ 0x44
 8001fc4:	4b04      	ldr	r3, [pc, #16]	@ (8001fd8 <DMA_CalcDMAMUXChannelBaseAndMask+0x30>)
 8001fc6:	64a3      	str	r3, [r4, #72]	@ 0x48
 8001fc8:	231c      	movs	r3, #28
 8001fca:	4018      	ands	r0, r3
 8001fcc:	3b1b      	subs	r3, #27
 8001fce:	4083      	lsls	r3, r0
 8001fd0:	64e3      	str	r3, [r4, #76]	@ 0x4c
 8001fd2:	bd10      	pop	{r4, pc}
 8001fd4:	10008200 	.word	0x10008200
 8001fd8:	40020880 	.word	0x40020880

08001fdc <HAL_DMA_Init>:
 8001fdc:	b5f8      	push	{r3, r4, r5, r6, r7, lr}
 8001fde:	0004      	movs	r4, r0
 8001fe0:	2001      	movs	r0, #1
 8001fe2:	2c00      	cmp	r4, #0
 8001fe4:	d045      	beq.n	8002072 <HAL_DMA_Init+0x96>
 8001fe6:	6825      	ldr	r5, [r4, #0]
 8001fe8:	4b25      	ldr	r3, [pc, #148]	@ (8002080 <HAL_DMA_Init+0xa4>)
 8001fea:	2114      	movs	r1, #20
 8001fec:	18e8      	adds	r0, r5, r3
 8001fee:	f7fe f89f 	bl	8000130 <__udivsi3>
 8001ff2:	2302      	movs	r3, #2
 8001ff4:	0080      	lsls	r0, r0, #2
 8001ff6:	1da6      	adds	r6, r4, #6
 8001ff8:	6420      	str	r0, [r4, #64]	@ 0x40
 8001ffa:	77f3      	strb	r3, [r6, #31]
 8001ffc:	682b      	ldr	r3, [r5, #0]
 8001ffe:	4a21      	ldr	r2, [pc, #132]	@ (8002084 <HAL_DMA_Init+0xa8>)
 8002000:	68a7      	ldr	r7, [r4, #8]
 8002002:	4013      	ands	r3, r2
 8002004:	602b      	str	r3, [r5, #0]
 8002006:	68e3      	ldr	r3, [r4, #12]
 8002008:	6921      	ldr	r1, [r4, #16]
 800200a:	433b      	orrs	r3, r7
 800200c:	430b      	orrs	r3, r1
 800200e:	6961      	ldr	r1, [r4, #20]
 8002010:	682a      	ldr	r2, [r5, #0]
 8002012:	430b      	orrs	r3, r1
 8002014:	69a1      	ldr	r1, [r4, #24]
 8002016:	0020      	movs	r0, r4
 8002018:	430b      	orrs	r3, r1
 800201a:	69e1      	ldr	r1, [r4, #28]
 800201c:	430b      	orrs	r3, r1
 800201e:	6a21      	ldr	r1, [r4, #32]
 8002020:	430b      	orrs	r3, r1
 8002022:	4313      	orrs	r3, r2
 8002024:	602b      	str	r3, [r5, #0]
 8002026:	f7ff ffbf 	bl	8001fa8 <DMA_CalcDMAMUXChannelBaseAndMask>
 800202a:	2380      	movs	r3, #128	@ 0x80
 800202c:	01db      	lsls	r3, r3, #7
 800202e:	429f      	cmp	r7, r3
 8002030:	d101      	bne.n	8002036 <HAL_DMA_Init+0x5a>
 8002032:	2300      	movs	r3, #0
 8002034:	6063      	str	r3, [r4, #4]
 8002036:	6862      	ldr	r2, [r4, #4]
 8002038:	6c61      	ldr	r1, [r4, #68]	@ 0x44
 800203a:	b2d3      	uxtb	r3, r2
 800203c:	600b      	str	r3, [r1, #0]
 800203e:	6ce0      	ldr	r0, [r4, #76]	@ 0x4c
 8002040:	6ca1      	ldr	r1, [r4, #72]	@ 0x48
 8002042:	3a01      	subs	r2, #1
 8002044:	6048      	str	r0, [r1, #4]
 8002046:	2a03      	cmp	r2, #3
 8002048:	d814      	bhi.n	8002074 <HAL_DMA_Init+0x98>
 800204a:	4a0f      	ldr	r2, [pc, #60]	@ (8002088 <HAL_DMA_Init+0xac>)
 800204c:	480f      	ldr	r0, [pc, #60]	@ (800208c <HAL_DMA_Init+0xb0>)
 800204e:	1899      	adds	r1, r3, r2
 8002050:	2201      	movs	r2, #1
 8002052:	3b01      	subs	r3, #1
 8002054:	409a      	lsls	r2, r3
 8002056:	65a2      	str	r2, [r4, #88]	@ 0x58
 8002058:	0013      	movs	r3, r2
 800205a:	2200      	movs	r2, #0
 800205c:	0089      	lsls	r1, r1, #2
 800205e:	6521      	str	r1, [r4, #80]	@ 0x50
 8002060:	6560      	str	r0, [r4, #84]	@ 0x54
 8002062:	600a      	str	r2, [r1, #0]
 8002064:	6043      	str	r3, [r0, #4]
 8002066:	2000      	movs	r0, #0
 8002068:	2301      	movs	r3, #1
 800206a:	63e0      	str	r0, [r4, #60]	@ 0x3c
 800206c:	3405      	adds	r4, #5
 800206e:	77f3      	strb	r3, [r6, #31]
 8002070:	77e0      	strb	r0, [r4, #31]
 8002072:	bdf8      	pop	{r3, r4, r5, r6, r7, pc}
 8002074:	2300      	movs	r3, #0
 8002076:	6523      	str	r3, [r4, #80]	@ 0x50
 8002078:	6563      	str	r3, [r4, #84]	@ 0x54
 800207a:	65a3      	str	r3, [r4, #88]	@ 0x58
 800207c:	e7f3      	b.n	8002066 <HAL_DMA_Init+0x8a>
 800207e:	46c0      	nop			@ (mov r8, r8)
 8002080:	bffdfff8 	.word	0xbffdfff8
 8002084:	ffff800f 	.word	0xffff800f
 8002088:	1000823f 	.word	0x1000823f
 800208c:	40020940 	.word	0x40020940

08002090 <HAL_DMA_Start_IT>:
 8002090:	b5f7      	push	{r0, r1, r2, r4, r5, r6, r7, lr}
 8002092:	1d46      	adds	r6, r0, #5
 8002094:	9301      	str	r3, [sp, #4]
 8002096:	7ff4      	ldrb	r4, [r6, #31]
 8002098:	0005      	movs	r5, r0
 800209a:	2002      	movs	r0, #2
 800209c:	2c01      	cmp	r4, #1
 800209e:	d036      	beq.n	800210e <HAL_DMA_Start_IT+0x7e>
 80020a0:	3801      	subs	r0, #1
 80020a2:	77f0      	strb	r0, [r6, #31]
 80020a4:	1dac      	adds	r4, r5, #6
 80020a6:	7fe0      	ldrb	r0, [r4, #31]
 80020a8:	2702      	movs	r7, #2
 80020aa:	4684      	mov	ip, r0
 80020ac:	4663      	mov	r3, ip
 80020ae:	b2c0      	uxtb	r0, r0
 80020b0:	9000      	str	r0, [sp, #0]
 80020b2:	0038      	movs	r0, r7
 80020b4:	2b01      	cmp	r3, #1
 80020b6:	d128      	bne.n	800210a <HAL_DMA_Start_IT+0x7a>
 80020b8:	2000      	movs	r0, #0
 80020ba:	77e7      	strb	r7, [r4, #31]
 80020bc:	682c      	ldr	r4, [r5, #0]
 80020be:	63e8      	str	r0, [r5, #60]	@ 0x3c
 80020c0:	6820      	ldr	r0, [r4, #0]
 80020c2:	9b00      	ldr	r3, [sp, #0]
 80020c4:	4398      	bics	r0, r3
 80020c6:	6020      	str	r0, [r4, #0]
 80020c8:	9b01      	ldr	r3, [sp, #4]
 80020ca:	0028      	movs	r0, r5
 80020cc:	f7ff ff4c 	bl	8001f68 <DMA_SetConfig>
 80020d0:	6b2b      	ldr	r3, [r5, #48]	@ 0x30
 80020d2:	2b00      	cmp	r3, #0
 80020d4:	d01c      	beq.n	8002110 <HAL_DMA_Start_IT+0x80>
 80020d6:	230e      	movs	r3, #14
 80020d8:	6822      	ldr	r2, [r4, #0]
 80020da:	4313      	orrs	r3, r2
 80020dc:	6023      	str	r3, [r4, #0]
 80020de:	6c6b      	ldr	r3, [r5, #68]	@ 0x44
 80020e0:	681a      	ldr	r2, [r3, #0]
 80020e2:	03d2      	lsls	r2, r2, #15
 80020e4:	d504      	bpl.n	80020f0 <HAL_DMA_Start_IT+0x60>
 80020e6:	2280      	movs	r2, #128	@ 0x80
 80020e8:	6819      	ldr	r1, [r3, #0]
 80020ea:	0052      	lsls	r2, r2, #1
 80020ec:	430a      	orrs	r2, r1
 80020ee:	601a      	str	r2, [r3, #0]
 80020f0:	6d2b      	ldr	r3, [r5, #80]	@ 0x50
 80020f2:	2b00      	cmp	r3, #0
 80020f4:	d004      	beq.n	8002100 <HAL_DMA_Start_IT+0x70>
 80020f6:	2280      	movs	r2, #128	@ 0x80
 80020f8:	6819      	ldr	r1, [r3, #0]
 80020fa:	0052      	lsls	r2, r2, #1
 80020fc:	430a      	orrs	r2, r1
 80020fe:	601a      	str	r2, [r3, #0]
 8002100:	2301      	movs	r3, #1
 8002102:	2000      	movs	r0, #0
 8002104:	6822      	ldr	r2, [r4, #0]
 8002106:	4313      	orrs	r3, r2
 8002108:	6023      	str	r3, [r4, #0]
 800210a:	2300      	movs	r3, #0
 800210c:	77f3      	strb	r3, [r6, #31]
 800210e:	bdfe      	pop	{r1, r2, r3, r4, r5, r6, r7, pc}
 8002110:	2204      	movs	r2, #4
 8002112:	6823      	ldr	r3, [r4, #0]
 8002114:	4393      	bics	r3, r2
 8002116:	6023      	str	r3, [r4, #0]
 8002118:	6822      	ldr	r2, [r4, #0]
 800211a:	230a      	movs	r3, #10
 800211c:	e7dd      	b.n	80020da <HAL_DMA_Start_IT+0x4a>
	...

08002120 <HAL_DMA_Abort_IT>:
 8002120:	b5f8      	push	{r3, r4, r5, r6, r7, lr}
 8002122:	2301      	movs	r3, #1
 8002124:	1d41      	adds	r1, r0, #5
 8002126:	77cb      	strb	r3, [r1, #31]
 8002128:	1d84      	adds	r4, r0, #6
 800212a:	7fe2      	ldrb	r2, [r4, #31]
 800212c:	2a02      	cmp	r2, #2
 800212e:	d003      	beq.n	8002138 <HAL_DMA_Abort_IT+0x18>
 8002130:	2204      	movs	r2, #4
 8002132:	63c2      	str	r2, [r0, #60]	@ 0x3c
 8002134:	0018      	movs	r0, r3
 8002136:	bdf8      	pop	{r3, r4, r5, r6, r7, pc}
 8002138:	260e      	movs	r6, #14
 800213a:	6802      	ldr	r2, [r0, #0]
 800213c:	6815      	ldr	r5, [r2, #0]
 800213e:	43b5      	bics	r5, r6
 8002140:	6015      	str	r5, [r2, #0]
 8002142:	6815      	ldr	r5, [r2, #0]
 8002144:	6c46      	ldr	r6, [r0, #68]	@ 0x44
 8002146:	439d      	bics	r5, r3
 8002148:	6015      	str	r5, [r2, #0]
 800214a:	6832      	ldr	r2, [r6, #0]
 800214c:	4d11      	ldr	r5, [pc, #68]	@ (8002194 <HAL_DMA_Abort_IT+0x74>)
 800214e:	402a      	ands	r2, r5
 8002150:	6032      	str	r2, [r6, #0]
 8002152:	6c02      	ldr	r2, [r0, #64]	@ 0x40
 8002154:	4e10      	ldr	r6, [pc, #64]	@ (8002198 <HAL_DMA_Abort_IT+0x78>)
 8002156:	0015      	movs	r5, r2
 8002158:	221c      	movs	r2, #28
 800215a:	4015      	ands	r5, r2
 800215c:	40ab      	lsls	r3, r5
 800215e:	6877      	ldr	r7, [r6, #4]
 8002160:	433b      	orrs	r3, r7
 8002162:	6073      	str	r3, [r6, #4]
 8002164:	6cc2      	ldr	r2, [r0, #76]	@ 0x4c
 8002166:	6c83      	ldr	r3, [r0, #72]	@ 0x48
 8002168:	605a      	str	r2, [r3, #4]
 800216a:	6d03      	ldr	r3, [r0, #80]	@ 0x50
 800216c:	2b00      	cmp	r3, #0
 800216e:	d006      	beq.n	800217e <HAL_DMA_Abort_IT+0x5e>
 8002170:	681a      	ldr	r2, [r3, #0]
 8002172:	4d08      	ldr	r5, [pc, #32]	@ (8002194 <HAL_DMA_Abort_IT+0x74>)
 8002174:	402a      	ands	r2, r5
 8002176:	601a      	str	r2, [r3, #0]
 8002178:	6d43      	ldr	r3, [r0, #84]	@ 0x54
 800217a:	6d82      	ldr	r2, [r0, #88]	@ 0x58
 800217c:	605a      	str	r2, [r3, #4]
 800217e:	2301      	movs	r3, #1
 8002180:	77e3      	strb	r3, [r4, #31]
 8002182:	2300      	movs	r3, #0
 8002184:	77cb      	strb	r3, [r1, #31]
 8002186:	6b83      	ldr	r3, [r0, #56]	@ 0x38
 8002188:	2b00      	cmp	r3, #0
 800218a:	d000      	beq.n	800218e <HAL_DMA_Abort_IT+0x6e>
 800218c:	4798      	blx	r3
 800218e:	2000      	movs	r0, #0
 8002190:	e7d1      	b.n	8002136 <HAL_DMA_Abort_IT+0x16>
 8002192:	46c0      	nop			@ (mov r8, r8)
 8002194:	fffffeff 	.word	0xfffffeff
 8002198:	40020000 	.word	0x40020000

0800219c <HAL_DMA_IRQHandler>:
 800219c:	b5f8      	push	{r3, r4, r5, r6, r7, lr}
 800219e:	241c      	movs	r4, #28
 80021a0:	2704      	movs	r7, #4
 80021a2:	6c01      	ldr	r1, [r0, #64]	@ 0x40
 80021a4:	4a26      	ldr	r2, [pc, #152]	@ (8002240 <HAL_DMA_IRQHandler+0xa4>)
 80021a6:	4021      	ands	r1, r4
 80021a8:	003c      	movs	r4, r7
 80021aa:	408c      	lsls	r4, r1
 80021ac:	6816      	ldr	r6, [r2, #0]
 80021ae:	6803      	ldr	r3, [r0, #0]
 80021b0:	681d      	ldr	r5, [r3, #0]
 80021b2:	4226      	tst	r6, r4
 80021b4:	d00f      	beq.n	80021d6 <HAL_DMA_IRQHandler+0x3a>
 80021b6:	423d      	tst	r5, r7
 80021b8:	d00d      	beq.n	80021d6 <HAL_DMA_IRQHandler+0x3a>
 80021ba:	6819      	ldr	r1, [r3, #0]
 80021bc:	0689      	lsls	r1, r1, #26
 80021be:	d402      	bmi.n	80021c6 <HAL_DMA_IRQHandler+0x2a>
 80021c0:	6819      	ldr	r1, [r3, #0]
 80021c2:	43b9      	bics	r1, r7
 80021c4:	6019      	str	r1, [r3, #0]
 80021c6:	6853      	ldr	r3, [r2, #4]
 80021c8:	431c      	orrs	r4, r3
 80021ca:	6b03      	ldr	r3, [r0, #48]	@ 0x30
 80021cc:	6054      	str	r4, [r2, #4]
 80021ce:	2b00      	cmp	r3, #0
 80021d0:	d01b      	beq.n	800220a <HAL_DMA_IRQHandler+0x6e>
 80021d2:	4798      	blx	r3
 80021d4:	e019      	b.n	800220a <HAL_DMA_IRQHandler+0x6e>
 80021d6:	2702      	movs	r7, #2
 80021d8:	003c      	movs	r4, r7
 80021da:	408c      	lsls	r4, r1
 80021dc:	4226      	tst	r6, r4
 80021de:	d015      	beq.n	800220c <HAL_DMA_IRQHandler+0x70>
 80021e0:	423d      	tst	r5, r7
 80021e2:	d013      	beq.n	800220c <HAL_DMA_IRQHandler+0x70>
 80021e4:	6819      	ldr	r1, [r3, #0]
 80021e6:	0689      	lsls	r1, r1, #26
 80021e8:	d406      	bmi.n	80021f8 <HAL_DMA_IRQHandler+0x5c>
 80021ea:	250a      	movs	r5, #10
 80021ec:	6819      	ldr	r1, [r3, #0]
 80021ee:	43a9      	bics	r1, r5
 80021f0:	6019      	str	r1, [r3, #0]
 80021f2:	2101      	movs	r1, #1
 80021f4:	1d83      	adds	r3, r0, #6
 80021f6:	77d9      	strb	r1, [r3, #31]
 80021f8:	6853      	ldr	r3, [r2, #4]
 80021fa:	431c      	orrs	r4, r3
 80021fc:	6054      	str	r4, [r2, #4]
 80021fe:	2200      	movs	r2, #0
 8002200:	1d43      	adds	r3, r0, #5
 8002202:	77da      	strb	r2, [r3, #31]
 8002204:	6ac3      	ldr	r3, [r0, #44]	@ 0x2c
 8002206:	4293      	cmp	r3, r2
 8002208:	d1e3      	bne.n	80021d2 <HAL_DMA_IRQHandler+0x36>
 800220a:	bdf8      	pop	{r3, r4, r5, r6, r7, pc}
 800220c:	2408      	movs	r4, #8
 800220e:	0027      	movs	r7, r4
 8002210:	408f      	lsls	r7, r1
 8002212:	423e      	tst	r6, r7
 8002214:	d0f9      	beq.n	800220a <HAL_DMA_IRQHandler+0x6e>
 8002216:	4225      	tst	r5, r4
 8002218:	d0f7      	beq.n	800220a <HAL_DMA_IRQHandler+0x6e>
 800221a:	250e      	movs	r5, #14
 800221c:	681c      	ldr	r4, [r3, #0]
 800221e:	43ac      	bics	r4, r5
 8002220:	601c      	str	r4, [r3, #0]
 8002222:	2301      	movs	r3, #1
 8002224:	001d      	movs	r5, r3
 8002226:	408d      	lsls	r5, r1
 8002228:	0029      	movs	r1, r5
 800222a:	6854      	ldr	r4, [r2, #4]
 800222c:	4321      	orrs	r1, r4
 800222e:	6051      	str	r1, [r2, #4]
 8002230:	1d82      	adds	r2, r0, #6
 8002232:	63c3      	str	r3, [r0, #60]	@ 0x3c
 8002234:	77d3      	strb	r3, [r2, #31]
 8002236:	2200      	movs	r2, #0
 8002238:	1d43      	adds	r3, r0, #5
 800223a:	77da      	strb	r2, [r3, #31]
 800223c:	6b43      	ldr	r3, [r0, #52]	@ 0x34
 800223e:	e7e2      	b.n	8002206 <HAL_DMA_IRQHandler+0x6a>
 8002240:	40020000 	.word	0x40020000

08002244 <HAL_DMA_GetState>:
 8002244:	3006      	adds	r0, #6
 8002246:	7fc0      	ldrb	r0, [r0, #31]
 8002248:	b2c0      	uxtb	r0, r0
 800224a:	4770      	bx	lr

0800224c <HAL_GPIO_Init>:
 800224c:	2300      	movs	r3, #0
 800224e:	469c      	mov	ip, r3
 8002250:	b5f0      	push	{r4, r5, r6, r7, lr}
 8002252:	b085      	sub	sp, #20
 8002254:	680b      	ldr	r3, [r1, #0]
 8002256:	4664      	mov	r4, ip
 8002258:	001a      	movs	r2, r3
 800225a:	40e2      	lsrs	r2, r4
 800225c:	d101      	bne.n	8002262 <HAL_GPIO_Init+0x16>
 800225e:	b005      	add	sp, #20
 8002260:	bdf0      	pop	{r4, r5, r6, r7, pc}
 8002262:	4662      	mov	r2, ip
 8002264:	2601      	movs	r6, #1
 8002266:	4096      	lsls	r6, r2
 8002268:	001a      	movs	r2, r3
 800226a:	4032      	ands	r2, r6
 800226c:	9201      	str	r2, [sp, #4]
 800226e:	4233      	tst	r3, r6
 8002270:	d100      	bne.n	8002274 <HAL_GPIO_Init+0x28>
 8002272:	e094      	b.n	800239e <HAL_GPIO_Init+0x152>
 8002274:	684f      	ldr	r7, [r1, #4]
 8002276:	2310      	movs	r3, #16
 8002278:	003d      	movs	r5, r7
 800227a:	439d      	bics	r5, r3
 800227c:	9503      	str	r5, [sp, #12]
 800227e:	2d02      	cmp	r5, #2
 8002280:	d114      	bne.n	80022ac <HAL_GPIO_Init+0x60>
 8002282:	4663      	mov	r3, ip
 8002284:	08da      	lsrs	r2, r3, #3
 8002286:	0092      	lsls	r2, r2, #2
 8002288:	1882      	adds	r2, r0, r2
 800228a:	6a13      	ldr	r3, [r2, #32]
 800228c:	2407      	movs	r4, #7
 800228e:	001d      	movs	r5, r3
 8002290:	4663      	mov	r3, ip
 8002292:	401c      	ands	r4, r3
 8002294:	230f      	movs	r3, #15
 8002296:	00a4      	lsls	r4, r4, #2
 8002298:	40a3      	lsls	r3, r4
 800229a:	439d      	bics	r5, r3
 800229c:	9502      	str	r5, [sp, #8]
 800229e:	250f      	movs	r5, #15
 80022a0:	690b      	ldr	r3, [r1, #16]
 80022a2:	402b      	ands	r3, r5
 80022a4:	40a3      	lsls	r3, r4
 80022a6:	9c02      	ldr	r4, [sp, #8]
 80022a8:	4323      	orrs	r3, r4
 80022aa:	6213      	str	r3, [r2, #32]
 80022ac:	4663      	mov	r3, ip
 80022ae:	005a      	lsls	r2, r3, #1
 80022b0:	2303      	movs	r3, #3
 80022b2:	4093      	lsls	r3, r2
 80022b4:	6804      	ldr	r4, [r0, #0]
 80022b6:	43dd      	mvns	r5, r3
 80022b8:	439c      	bics	r4, r3
 80022ba:	2303      	movs	r3, #3
 80022bc:	403b      	ands	r3, r7
 80022be:	4093      	lsls	r3, r2
 80022c0:	9502      	str	r5, [sp, #8]
 80022c2:	9d03      	ldr	r5, [sp, #12]
 80022c4:	4323      	orrs	r3, r4
 80022c6:	3d01      	subs	r5, #1
 80022c8:	6003      	str	r3, [r0, #0]
 80022ca:	2d01      	cmp	r5, #1
 80022cc:	d80f      	bhi.n	80022ee <HAL_GPIO_Init+0xa2>
 80022ce:	6884      	ldr	r4, [r0, #8]
 80022d0:	9b02      	ldr	r3, [sp, #8]
 80022d2:	2501      	movs	r5, #1
 80022d4:	401c      	ands	r4, r3
 80022d6:	68cb      	ldr	r3, [r1, #12]
 80022d8:	4093      	lsls	r3, r2
 80022da:	4323      	orrs	r3, r4
 80022dc:	6083      	str	r3, [r0, #8]
 80022de:	093b      	lsrs	r3, r7, #4
 80022e0:	402b      	ands	r3, r5
 80022e2:	4665      	mov	r5, ip
 80022e4:	40ab      	lsls	r3, r5
 80022e6:	6844      	ldr	r4, [r0, #4]
 80022e8:	43b4      	bics	r4, r6
 80022ea:	4323      	orrs	r3, r4
 80022ec:	6043      	str	r3, [r0, #4]
 80022ee:	2f03      	cmp	r7, #3
 80022f0:	d055      	beq.n	800239e <HAL_GPIO_Init+0x152>
 80022f2:	68c4      	ldr	r4, [r0, #12]
 80022f4:	9b02      	ldr	r3, [sp, #8]
 80022f6:	401c      	ands	r4, r3
 80022f8:	688b      	ldr	r3, [r1, #8]
 80022fa:	4093      	lsls	r3, r2
 80022fc:	4323      	orrs	r3, r4
 80022fe:	60c3      	str	r3, [r0, #12]
 8002300:	2380      	movs	r3, #128	@ 0x80
 8002302:	055b      	lsls	r3, r3, #21
 8002304:	421f      	tst	r7, r3
 8002306:	d04a      	beq.n	800239e <HAL_GPIO_Init+0x152>
 8002308:	4663      	mov	r3, ip
 800230a:	089a      	lsrs	r2, r3, #2
 800230c:	4b25      	ldr	r3, [pc, #148]	@ (80023a4 <HAL_GPIO_Init+0x158>)
 800230e:	0092      	lsls	r2, r2, #2
 8002310:	18d2      	adds	r2, r2, r3
 8002312:	2403      	movs	r4, #3
 8002314:	4663      	mov	r3, ip
 8002316:	401c      	ands	r4, r3
 8002318:	230f      	movs	r3, #15
 800231a:	00e4      	lsls	r4, r4, #3
 800231c:	40a3      	lsls	r3, r4
 800231e:	26a0      	movs	r6, #160	@ 0xa0
 8002320:	6e15      	ldr	r5, [r2, #96]	@ 0x60
 8002322:	05f6      	lsls	r6, r6, #23
 8002324:	439d      	bics	r5, r3
 8002326:	2300      	movs	r3, #0
 8002328:	42b0      	cmp	r0, r6
 800232a:	d010      	beq.n	800234e <HAL_GPIO_Init+0x102>
 800232c:	4e1e      	ldr	r6, [pc, #120]	@ (80023a8 <HAL_GPIO_Init+0x15c>)
 800232e:	3301      	adds	r3, #1
 8002330:	42b0      	cmp	r0, r6
 8002332:	d00c      	beq.n	800234e <HAL_GPIO_Init+0x102>
 8002334:	4e1d      	ldr	r6, [pc, #116]	@ (80023ac <HAL_GPIO_Init+0x160>)
 8002336:	3301      	adds	r3, #1
 8002338:	42b0      	cmp	r0, r6
 800233a:	d008      	beq.n	800234e <HAL_GPIO_Init+0x102>
 800233c:	4e1c      	ldr	r6, [pc, #112]	@ (80023b0 <HAL_GPIO_Init+0x164>)
 800233e:	3301      	adds	r3, #1
 8002340:	42b0      	cmp	r0, r6
 8002342:	d004      	beq.n	800234e <HAL_GPIO_Init+0x102>
 8002344:	4b1b      	ldr	r3, [pc, #108]	@ (80023b4 <HAL_GPIO_Init+0x168>)
 8002346:	18c3      	adds	r3, r0, r3
 8002348:	1e5e      	subs	r6, r3, #1
 800234a:	41b3      	sbcs	r3, r6
 800234c:	3305      	adds	r3, #5
 800234e:	40a3      	lsls	r3, r4
 8002350:	432b      	orrs	r3, r5
 8002352:	6613      	str	r3, [r2, #96]	@ 0x60
 8002354:	4b18      	ldr	r3, [pc, #96]	@ (80023b8 <HAL_GPIO_Init+0x16c>)
 8002356:	9a01      	ldr	r2, [sp, #4]
 8002358:	6fdd      	ldr	r5, [r3, #124]	@ 0x7c
 800235a:	9c01      	ldr	r4, [sp, #4]
 800235c:	43d2      	mvns	r2, r2
 800235e:	432c      	orrs	r4, r5
 8002360:	03fe      	lsls	r6, r7, #15
 8002362:	d401      	bmi.n	8002368 <HAL_GPIO_Init+0x11c>
 8002364:	002c      	movs	r4, r5
 8002366:	4014      	ands	r4, r2
 8002368:	67dc      	str	r4, [r3, #124]	@ 0x7c
 800236a:	4c14      	ldr	r4, [pc, #80]	@ (80023bc <HAL_GPIO_Init+0x170>)
 800236c:	9d01      	ldr	r5, [sp, #4]
 800236e:	6fe3      	ldr	r3, [r4, #124]	@ 0x7c
 8002370:	431d      	orrs	r5, r3
 8002372:	03be      	lsls	r6, r7, #14
 8002374:	d401      	bmi.n	800237a <HAL_GPIO_Init+0x12e>
 8002376:	4013      	ands	r3, r2
 8002378:	001d      	movs	r5, r3
 800237a:	4b0a      	ldr	r3, [pc, #40]	@ (80023a4 <HAL_GPIO_Init+0x158>)
 800237c:	67e5      	str	r5, [r4, #124]	@ 0x7c
 800237e:	681d      	ldr	r5, [r3, #0]
 8002380:	9c01      	ldr	r4, [sp, #4]
 8002382:	432c      	orrs	r4, r5
 8002384:	02fe      	lsls	r6, r7, #11
 8002386:	d401      	bmi.n	800238c <HAL_GPIO_Init+0x140>
 8002388:	002c      	movs	r4, r5
 800238a:	4014      	ands	r4, r2
 800238c:	601c      	str	r4, [r3, #0]
 800238e:	685c      	ldr	r4, [r3, #4]
 8002390:	9d01      	ldr	r5, [sp, #4]
 8002392:	4325      	orrs	r5, r4
 8002394:	02bf      	lsls	r7, r7, #10
 8002396:	d401      	bmi.n	800239c <HAL_GPIO_Init+0x150>
 8002398:	4014      	ands	r4, r2
 800239a:	0025      	movs	r5, r4
 800239c:	605d      	str	r5, [r3, #4]
 800239e:	2301      	movs	r3, #1
 80023a0:	449c      	add	ip, r3
 80023a2:	e757      	b.n	8002254 <HAL_GPIO_Init+0x8>
 80023a4:	40021800 	.word	0x40021800
 80023a8:	50000400 	.word	0x50000400
 80023ac:	50000800 	.word	0x50000800
 80023b0:	50000c00 	.word	0x50000c00
 80023b4:	afffec00 	.word	0xafffec00
 80023b8:	40021804 	.word	0x40021804
 80023bc:	40021808 	.word	0x40021808

080023c0 <HAL_GPIO_ReadPin>:
 80023c0:	6900      	ldr	r0, [r0, #16]
 80023c2:	4008      	ands	r0, r1
 80023c4:	1e43      	subs	r3, r0, #1
 80023c6:	4198      	sbcs	r0, r3
 80023c8:	b2c0      	uxtb	r0, r0
 80023ca:	4770      	bx	lr

080023cc <HAL_GPIO_WritePin>:
 80023cc:	2a00      	cmp	r2, #0
 80023ce:	d001      	beq.n	80023d4 <HAL_GPIO_WritePin+0x8>
 80023d0:	6181      	str	r1, [r0, #24]
 80023d2:	4770      	bx	lr
 80023d4:	6281      	str	r1, [r0, #40]	@ 0x28
 80023d6:	e7fc      	b.n	80023d2 <HAL_GPIO_WritePin+0x6>

080023d8 <HAL_GPIO_EXTI_Rising_Callback>:
 80023d8:	4770      	bx	lr

080023da <HAL_GPIO_EXTI_Falling_Callback>:
 80023da:	4770      	bx	lr

080023dc <HAL_GPIO_EXTI_IRQHandler>:
 80023dc:	b570      	push	{r4, r5, r6, lr}
 80023de:	4d08      	ldr	r5, [pc, #32]	@ (8002400 <HAL_GPIO_EXTI_IRQHandler+0x24>)
 80023e0:	0004      	movs	r4, r0
 80023e2:	68eb      	ldr	r3, [r5, #12]
 80023e4:	4218      	tst	r0, r3
 80023e6:	d002      	beq.n	80023ee <HAL_GPIO_EXTI_IRQHandler+0x12>
 80023e8:	60e8      	str	r0, [r5, #12]
 80023ea:	f7ff fff5 	bl	80023d8 <HAL_GPIO_EXTI_Rising_Callback>
 80023ee:	692b      	ldr	r3, [r5, #16]
 80023f0:	4223      	tst	r3, r4
 80023f2:	d003      	beq.n	80023fc <HAL_GPIO_EXTI_IRQHandler+0x20>
 80023f4:	0020      	movs	r0, r4
 80023f6:	612c      	str	r4, [r5, #16]
 80023f8:	f7ff ffef 	bl	80023da <HAL_GPIO_EXTI_Falling_Callback>
 80023fc:	bd70      	pop	{r4, r5, r6, pc}
 80023fe:	46c0      	nop			@ (mov r8, r8)
 8002400:	40021800 	.word	0x40021800

08002404 <I2C_Flush_TXDR>:
 8002404:	6803      	ldr	r3, [r0, #0]
 8002406:	699a      	ldr	r2, [r3, #24]
 8002408:	0792      	lsls	r2, r2, #30
 800240a:	d501      	bpl.n	8002410 <I2C_Flush_TXDR+0xc>
 800240c:	2200      	movs	r2, #0
 800240e:	629a      	str	r2, [r3, #40]	@ 0x28
 8002410:	2201      	movs	r2, #1
 8002412:	6999      	ldr	r1, [r3, #24]
 8002414:	4211      	tst	r1, r2
 8002416:	d102      	bne.n	800241e <I2C_Flush_TXDR+0x1a>
 8002418:	6999      	ldr	r1, [r3, #24]
 800241a:	430a      	orrs	r2, r1
 800241c:	619a      	str	r2, [r3, #24]
 800241e:	4770      	bx	lr

08002420 <I2C_TransferConfig>:
 8002420:	b530      	push	{r4, r5, lr}
 8002422:	9c03      	ldr	r4, [sp, #12]
 8002424:	6800      	ldr	r0, [r0, #0]
 8002426:	4323      	orrs	r3, r4
 8002428:	0412      	lsls	r2, r2, #16
 800242a:	0589      	lsls	r1, r1, #22
 800242c:	431a      	orrs	r2, r3
 800242e:	0d89      	lsrs	r1, r1, #22
 8002430:	4b05      	ldr	r3, [pc, #20]	@ (8002448 <I2C_TransferConfig+0x28>)
 8002432:	6845      	ldr	r5, [r0, #4]
 8002434:	430a      	orrs	r2, r1
 8002436:	0d64      	lsrs	r4, r4, #21
 8002438:	4323      	orrs	r3, r4
 800243a:	0052      	lsls	r2, r2, #1
 800243c:	439d      	bics	r5, r3
 800243e:	0852      	lsrs	r2, r2, #1
 8002440:	432a      	orrs	r2, r5
 8002442:	6042      	str	r2, [r0, #4]
 8002444:	bd30      	pop	{r4, r5, pc}
 8002446:	46c0      	nop			@ (mov r8, r8)
 8002448:	03ff63ff 	.word	0x03ff63ff

0800244c <I2C_Enable_IRQ>:
 800244c:	b510      	push	{r4, lr}
 800244e:	6b43      	ldr	r3, [r0, #52]	@ 0x34
 8002450:	4c1b      	ldr	r4, [pc, #108]	@ (80024c0 <I2C_Enable_IRQ+0x74>)
 8002452:	b20a      	sxth	r2, r1
 8002454:	42a3      	cmp	r3, r4
 8002456:	d01e      	beq.n	8002496 <I2C_Enable_IRQ+0x4a>
 8002458:	4c1a      	ldr	r4, [pc, #104]	@ (80024c4 <I2C_Enable_IRQ+0x78>)
 800245a:	42a3      	cmp	r3, r4
 800245c:	d01b      	beq.n	8002496 <I2C_Enable_IRQ+0x4a>
 800245e:	4c1a      	ldr	r4, [pc, #104]	@ (80024c8 <I2C_Enable_IRQ+0x7c>)
 8002460:	42a3      	cmp	r3, r4
 8002462:	d018      	beq.n	8002496 <I2C_Enable_IRQ+0x4a>
 8002464:	2300      	movs	r3, #0
 8002466:	429a      	cmp	r2, r3
 8002468:	da00      	bge.n	800246c <I2C_Enable_IRQ+0x20>
 800246a:	33b8      	adds	r3, #184	@ 0xb8
 800246c:	07ca      	lsls	r2, r1, #31
 800246e:	d501      	bpl.n	8002474 <I2C_Enable_IRQ+0x28>
 8002470:	22f2      	movs	r2, #242	@ 0xf2
 8002472:	4313      	orrs	r3, r2
 8002474:	078a      	lsls	r2, r1, #30
 8002476:	d501      	bpl.n	800247c <I2C_Enable_IRQ+0x30>
 8002478:	22f4      	movs	r2, #244	@ 0xf4
 800247a:	4313      	orrs	r3, r2
 800247c:	2910      	cmp	r1, #16
 800247e:	d106      	bne.n	800248e <I2C_Enable_IRQ+0x42>
 8002480:	2290      	movs	r2, #144	@ 0x90
 8002482:	4313      	orrs	r3, r2
 8002484:	6801      	ldr	r1, [r0, #0]
 8002486:	680a      	ldr	r2, [r1, #0]
 8002488:	4313      	orrs	r3, r2
 800248a:	600b      	str	r3, [r1, #0]
 800248c:	bd10      	pop	{r4, pc}
 800248e:	2920      	cmp	r1, #32
 8002490:	d1f8      	bne.n	8002484 <I2C_Enable_IRQ+0x38>
 8002492:	430b      	orrs	r3, r1
 8002494:	e7f6      	b.n	8002484 <I2C_Enable_IRQ+0x38>
 8002496:	2300      	movs	r3, #0
 8002498:	429a      	cmp	r2, r3
 800249a:	da00      	bge.n	800249e <I2C_Enable_IRQ+0x52>
 800249c:	33b8      	adds	r3, #184	@ 0xb8
 800249e:	07ca      	lsls	r2, r1, #31
 80024a0:	d501      	bpl.n	80024a6 <I2C_Enable_IRQ+0x5a>
 80024a2:	22f2      	movs	r2, #242	@ 0xf2
 80024a4:	4313      	orrs	r3, r2
 80024a6:	078a      	lsls	r2, r1, #30
 80024a8:	d501      	bpl.n	80024ae <I2C_Enable_IRQ+0x62>
 80024aa:	22f4      	movs	r2, #244	@ 0xf4
 80024ac:	4313      	orrs	r3, r2
 80024ae:	2910      	cmp	r1, #16
 80024b0:	d0e6      	beq.n	8002480 <I2C_Enable_IRQ+0x34>
 80024b2:	2920      	cmp	r1, #32
 80024b4:	d101      	bne.n	80024ba <I2C_Enable_IRQ+0x6e>
 80024b6:	2260      	movs	r2, #96	@ 0x60
 80024b8:	e7e3      	b.n	8002482 <I2C_Enable_IRQ+0x36>
 80024ba:	2940      	cmp	r1, #64	@ 0x40
 80024bc:	d0e9      	beq.n	8002492 <I2C_Enable_IRQ+0x46>
 80024be:	e7e1      	b.n	8002484 <I2C_Enable_IRQ+0x38>
 80024c0:	0800303d 	.word	0x0800303d
 80024c4:	080033d5 	.word	0x080033d5
 80024c8:	08002ee1 	.word	0x08002ee1

080024cc <I2C_Disable_IRQ>:
 80024cc:	2300      	movs	r3, #0
 80024ce:	b510      	push	{r4, lr}
 80024d0:	07ca      	lsls	r2, r1, #31
 80024d2:	d508      	bpl.n	80024e6 <I2C_Disable_IRQ+0x1a>
 80024d4:	0003      	movs	r3, r0
 80024d6:	3341      	adds	r3, #65	@ 0x41
 80024d8:	781a      	ldrb	r2, [r3, #0]
 80024da:	2328      	movs	r3, #40	@ 0x28
 80024dc:	401a      	ands	r2, r3
 80024de:	33ca      	adds	r3, #202	@ 0xca
 80024e0:	2a28      	cmp	r2, #40	@ 0x28
 80024e2:	d100      	bne.n	80024e6 <I2C_Disable_IRQ+0x1a>
 80024e4:	3bb0      	subs	r3, #176	@ 0xb0
 80024e6:	078a      	lsls	r2, r1, #30
 80024e8:	d508      	bpl.n	80024fc <I2C_Disable_IRQ+0x30>
 80024ea:	0002      	movs	r2, r0
 80024ec:	2428      	movs	r4, #40	@ 0x28
 80024ee:	3241      	adds	r2, #65	@ 0x41
 80024f0:	7812      	ldrb	r2, [r2, #0]
 80024f2:	4022      	ands	r2, r4
 80024f4:	42a2      	cmp	r2, r4
 80024f6:	d10b      	bne.n	8002510 <I2C_Disable_IRQ+0x44>
 80024f8:	2244      	movs	r2, #68	@ 0x44
 80024fa:	4313      	orrs	r3, r2
 80024fc:	b209      	sxth	r1, r1
 80024fe:	2900      	cmp	r1, #0
 8002500:	da01      	bge.n	8002506 <I2C_Disable_IRQ+0x3a>
 8002502:	22b8      	movs	r2, #184	@ 0xb8
 8002504:	4313      	orrs	r3, r2
 8002506:	6801      	ldr	r1, [r0, #0]
 8002508:	680a      	ldr	r2, [r1, #0]
 800250a:	439a      	bics	r2, r3
 800250c:	600a      	str	r2, [r1, #0]
 800250e:	bd10      	pop	{r4, pc}
 8002510:	22f4      	movs	r2, #244	@ 0xf4
 8002512:	e7f2      	b.n	80024fa <I2C_Disable_IRQ+0x2e>

08002514 <I2C_IsErrorOccurred>:
 8002514:	b5f7      	push	{r0, r1, r2, r4, r5, r6, r7, lr}
 8002516:	0015      	movs	r5, r2
 8002518:	6802      	ldr	r2, [r0, #0]
 800251a:	000e      	movs	r6, r1
 800251c:	6991      	ldr	r1, [r2, #24]
 800251e:	2310      	movs	r3, #16
 8002520:	000f      	movs	r7, r1
 8002522:	0004      	movs	r4, r0
 8002524:	401f      	ands	r7, r3
 8002526:	2000      	movs	r0, #0
 8002528:	4219      	tst	r1, r3
 800252a:	d00d      	beq.n	8002548 <I2C_IsErrorOccurred+0x34>
 800252c:	0007      	movs	r7, r0
 800252e:	61d3      	str	r3, [r2, #28]
 8002530:	9001      	str	r0, [sp, #4]
 8002532:	6823      	ldr	r3, [r4, #0]
 8002534:	2120      	movs	r1, #32
 8002536:	699a      	ldr	r2, [r3, #24]
 8002538:	420a      	tst	r2, r1
 800253a:	d15f      	bne.n	80025fc <I2C_IsErrorOccurred+0xe8>
 800253c:	2f00      	cmp	r7, #0
 800253e:	d031      	beq.n	80025a4 <I2C_IsErrorOccurred+0x90>
 8002540:	2704      	movs	r7, #4
 8002542:	2001      	movs	r0, #1
 8002544:	9b01      	ldr	r3, [sp, #4]
 8002546:	431f      	orrs	r7, r3
 8002548:	2280      	movs	r2, #128	@ 0x80
 800254a:	6825      	ldr	r5, [r4, #0]
 800254c:	0052      	lsls	r2, r2, #1
 800254e:	69ab      	ldr	r3, [r5, #24]
 8002550:	4213      	tst	r3, r2
 8002552:	d002      	beq.n	800255a <I2C_IsErrorOccurred+0x46>
 8002554:	2001      	movs	r0, #1
 8002556:	61ea      	str	r2, [r5, #28]
 8002558:	4307      	orrs	r7, r0
 800255a:	2280      	movs	r2, #128	@ 0x80
 800255c:	00d2      	lsls	r2, r2, #3
 800255e:	4213      	tst	r3, r2
 8002560:	d003      	beq.n	800256a <I2C_IsErrorOccurred+0x56>
 8002562:	2108      	movs	r1, #8
 8002564:	2001      	movs	r0, #1
 8002566:	430f      	orrs	r7, r1
 8002568:	61ea      	str	r2, [r5, #28]
 800256a:	2280      	movs	r2, #128	@ 0x80
 800256c:	0092      	lsls	r2, r2, #2
 800256e:	4213      	tst	r3, r2
 8002570:	d049      	beq.n	8002606 <I2C_IsErrorOccurred+0xf2>
 8002572:	2302      	movs	r3, #2
 8002574:	61ea      	str	r2, [r5, #28]
 8002576:	431f      	orrs	r7, r3
 8002578:	0020      	movs	r0, r4
 800257a:	f7ff ff43 	bl	8002404 <I2C_Flush_TXDR>
 800257e:	686b      	ldr	r3, [r5, #4]
 8002580:	4a22      	ldr	r2, [pc, #136]	@ (800260c <I2C_IsErrorOccurred+0xf8>)
 8002582:	2001      	movs	r0, #1
 8002584:	4013      	ands	r3, r2
 8002586:	606b      	str	r3, [r5, #4]
 8002588:	6c63      	ldr	r3, [r4, #68]	@ 0x44
 800258a:	2220      	movs	r2, #32
 800258c:	433b      	orrs	r3, r7
 800258e:	6463      	str	r3, [r4, #68]	@ 0x44
 8002590:	0023      	movs	r3, r4
 8002592:	3341      	adds	r3, #65	@ 0x41
 8002594:	701a      	strb	r2, [r3, #0]
 8002596:	0022      	movs	r2, r4
 8002598:	2300      	movs	r3, #0
 800259a:	3242      	adds	r2, #66	@ 0x42
 800259c:	3440      	adds	r4, #64	@ 0x40
 800259e:	7013      	strb	r3, [r2, #0]
 80025a0:	7023      	strb	r3, [r4, #0]
 80025a2:	e032      	b.n	800260a <I2C_IsErrorOccurred+0xf6>
 80025a4:	1c72      	adds	r2, r6, #1
 80025a6:	d0c5      	beq.n	8002534 <I2C_IsErrorOccurred+0x20>
 80025a8:	f7ff f948 	bl	800183c <HAL_GetTick>
 80025ac:	1b40      	subs	r0, r0, r5
 80025ae:	42b0      	cmp	r0, r6
 80025b0:	d801      	bhi.n	80025b6 <I2C_IsErrorOccurred+0xa2>
 80025b2:	2e00      	cmp	r6, #0
 80025b4:	d1bd      	bne.n	8002532 <I2C_IsErrorOccurred+0x1e>
 80025b6:	0022      	movs	r2, r4
 80025b8:	6823      	ldr	r3, [r4, #0]
 80025ba:	3242      	adds	r2, #66	@ 0x42
 80025bc:	6858      	ldr	r0, [r3, #4]
 80025be:	7811      	ldrb	r1, [r2, #0]
 80025c0:	699a      	ldr	r2, [r3, #24]
 80025c2:	b2c9      	uxtb	r1, r1
 80025c4:	0412      	lsls	r2, r2, #16
 80025c6:	d50b      	bpl.n	80025e0 <I2C_IsErrorOccurred+0xcc>
 80025c8:	2280      	movs	r2, #128	@ 0x80
 80025ca:	01d2      	lsls	r2, r2, #7
 80025cc:	4210      	tst	r0, r2
 80025ce:	d107      	bne.n	80025e0 <I2C_IsErrorOccurred+0xcc>
 80025d0:	2920      	cmp	r1, #32
 80025d2:	d005      	beq.n	80025e0 <I2C_IsErrorOccurred+0xcc>
 80025d4:	6859      	ldr	r1, [r3, #4]
 80025d6:	430a      	orrs	r2, r1
 80025d8:	605a      	str	r2, [r3, #4]
 80025da:	f7ff f92f 	bl	800183c <HAL_GetTick>
 80025de:	0005      	movs	r5, r0
 80025e0:	2220      	movs	r2, #32
 80025e2:	6823      	ldr	r3, [r4, #0]
 80025e4:	699b      	ldr	r3, [r3, #24]
 80025e6:	4213      	tst	r3, r2
 80025e8:	d1a3      	bne.n	8002532 <I2C_IsErrorOccurred+0x1e>
 80025ea:	f7ff f927 	bl	800183c <HAL_GetTick>
 80025ee:	1b40      	subs	r0, r0, r5
 80025f0:	2819      	cmp	r0, #25
 80025f2:	d9f5      	bls.n	80025e0 <I2C_IsErrorOccurred+0xcc>
 80025f4:	2320      	movs	r3, #32
 80025f6:	2701      	movs	r7, #1
 80025f8:	9301      	str	r3, [sp, #4]
 80025fa:	e79a      	b.n	8002532 <I2C_IsErrorOccurred+0x1e>
 80025fc:	2f00      	cmp	r7, #0
 80025fe:	d19f      	bne.n	8002540 <I2C_IsErrorOccurred+0x2c>
 8002600:	2220      	movs	r2, #32
 8002602:	61da      	str	r2, [r3, #28]
 8002604:	e79c      	b.n	8002540 <I2C_IsErrorOccurred+0x2c>
 8002606:	2800      	cmp	r0, #0
 8002608:	d1b6      	bne.n	8002578 <I2C_IsErrorOccurred+0x64>
 800260a:	bdfe      	pop	{r1, r2, r3, r4, r5, r6, r7, pc}
 800260c:	fe00e800 	.word	0xfe00e800

08002610 <I2C_WaitOnTXISFlagUntilTimeout>:
 8002610:	b5f8      	push	{r3, r4, r5, r6, r7, lr}
 8002612:	0004      	movs	r4, r0
 8002614:	000d      	movs	r5, r1
 8002616:	0016      	movs	r6, r2
 8002618:	2702      	movs	r7, #2
 800261a:	6823      	ldr	r3, [r4, #0]
 800261c:	699b      	ldr	r3, [r3, #24]
 800261e:	423b      	tst	r3, r7
 8002620:	d001      	beq.n	8002626 <I2C_WaitOnTXISFlagUntilTimeout+0x16>
 8002622:	2000      	movs	r0, #0
 8002624:	e021      	b.n	800266a <I2C_WaitOnTXISFlagUntilTimeout+0x5a>
 8002626:	0032      	movs	r2, r6
 8002628:	0029      	movs	r1, r5
 800262a:	0020      	movs	r0, r4
 800262c:	f7ff ff72 	bl	8002514 <I2C_IsErrorOccurred>
 8002630:	2800      	cmp	r0, #0
 8002632:	d119      	bne.n	8002668 <I2C_WaitOnTXISFlagUntilTimeout+0x58>
 8002634:	1c6b      	adds	r3, r5, #1
 8002636:	d0f0      	beq.n	800261a <I2C_WaitOnTXISFlagUntilTimeout+0xa>
 8002638:	f7ff f900 	bl	800183c <HAL_GetTick>
 800263c:	1b80      	subs	r0, r0, r6
 800263e:	42a8      	cmp	r0, r5
 8002640:	d801      	bhi.n	8002646 <I2C_WaitOnTXISFlagUntilTimeout+0x36>
 8002642:	2d00      	cmp	r5, #0
 8002644:	d1e9      	bne.n	800261a <I2C_WaitOnTXISFlagUntilTimeout+0xa>
 8002646:	6823      	ldr	r3, [r4, #0]
 8002648:	6999      	ldr	r1, [r3, #24]
 800264a:	2302      	movs	r3, #2
 800264c:	000a      	movs	r2, r1
 800264e:	401a      	ands	r2, r3
 8002650:	4219      	tst	r1, r3
 8002652:	d1e2      	bne.n	800261a <I2C_WaitOnTXISFlagUntilTimeout+0xa>
 8002654:	2120      	movs	r1, #32
 8002656:	6c63      	ldr	r3, [r4, #68]	@ 0x44
 8002658:	430b      	orrs	r3, r1
 800265a:	6463      	str	r3, [r4, #68]	@ 0x44
 800265c:	0023      	movs	r3, r4
 800265e:	3440      	adds	r4, #64	@ 0x40
 8002660:	3341      	adds	r3, #65	@ 0x41
 8002662:	7019      	strb	r1, [r3, #0]
 8002664:	705a      	strb	r2, [r3, #1]
 8002666:	7022      	strb	r2, [r4, #0]
 8002668:	2001      	movs	r0, #1
 800266a:	bdf8      	pop	{r3, r4, r5, r6, r7, pc}

0800266c <I2C_WaitOnFlagUntilTimeout>:
 800266c:	b5f8      	push	{r3, r4, r5, r6, r7, lr}
 800266e:	0004      	movs	r4, r0
 8002670:	000d      	movs	r5, r1
 8002672:	0017      	movs	r7, r2
 8002674:	001e      	movs	r6, r3
 8002676:	6823      	ldr	r3, [r4, #0]
 8002678:	699b      	ldr	r3, [r3, #24]
 800267a:	402b      	ands	r3, r5
 800267c:	1b5b      	subs	r3, r3, r5
 800267e:	425a      	negs	r2, r3
 8002680:	4153      	adcs	r3, r2
 8002682:	42bb      	cmp	r3, r7
 8002684:	d001      	beq.n	800268a <I2C_WaitOnFlagUntilTimeout+0x1e>
 8002686:	2000      	movs	r0, #0
 8002688:	e026      	b.n	80026d8 <I2C_WaitOnFlagUntilTimeout+0x6c>
 800268a:	0031      	movs	r1, r6
 800268c:	0020      	movs	r0, r4
 800268e:	9a06      	ldr	r2, [sp, #24]
 8002690:	f7ff ff40 	bl	8002514 <I2C_IsErrorOccurred>
 8002694:	2800      	cmp	r0, #0
 8002696:	d11e      	bne.n	80026d6 <I2C_WaitOnFlagUntilTimeout+0x6a>
 8002698:	1c73      	adds	r3, r6, #1
 800269a:	d0ec      	beq.n	8002676 <I2C_WaitOnFlagUntilTimeout+0xa>
 800269c:	f7ff f8ce 	bl	800183c <HAL_GetTick>
 80026a0:	9b06      	ldr	r3, [sp, #24]
 80026a2:	1ac0      	subs	r0, r0, r3
 80026a4:	42b0      	cmp	r0, r6
 80026a6:	d801      	bhi.n	80026ac <I2C_WaitOnFlagUntilTimeout+0x40>
 80026a8:	2e00      	cmp	r6, #0
 80026aa:	d1e4      	bne.n	8002676 <I2C_WaitOnFlagUntilTimeout+0xa>
 80026ac:	6823      	ldr	r3, [r4, #0]
 80026ae:	699b      	ldr	r3, [r3, #24]
 80026b0:	402b      	ands	r3, r5
 80026b2:	1b5b      	subs	r3, r3, r5
 80026b4:	425a      	negs	r2, r3
 80026b6:	4153      	adcs	r3, r2
 80026b8:	42bb      	cmp	r3, r7
 80026ba:	d1dc      	bne.n	8002676 <I2C_WaitOnFlagUntilTimeout+0xa>
 80026bc:	2220      	movs	r2, #32
 80026be:	6c63      	ldr	r3, [r4, #68]	@ 0x44
 80026c0:	4313      	orrs	r3, r2
 80026c2:	6463      	str	r3, [r4, #68]	@ 0x44
 80026c4:	0023      	movs	r3, r4
 80026c6:	3341      	adds	r3, #65	@ 0x41
 80026c8:	701a      	strb	r2, [r3, #0]
 80026ca:	0022      	movs	r2, r4
 80026cc:	2300      	movs	r3, #0
 80026ce:	3242      	adds	r2, #66	@ 0x42
 80026d0:	3440      	adds	r4, #64	@ 0x40
 80026d2:	7013      	strb	r3, [r2, #0]
 80026d4:	7023      	strb	r3, [r4, #0]
 80026d6:	2001      	movs	r0, #1
 80026d8:	bdf8      	pop	{r3, r4, r5, r6, r7, pc}

080026da <I2C_WaitOnSTOPFlagUntilTimeout>:
 80026da:	b5f8      	push	{r3, r4, r5, r6, r7, lr}
 80026dc:	0004      	movs	r4, r0
 80026de:	000e      	movs	r6, r1
 80026e0:	0017      	movs	r7, r2
 80026e2:	2520      	movs	r5, #32
 80026e4:	6823      	ldr	r3, [r4, #0]
 80026e6:	699b      	ldr	r3, [r3, #24]
 80026e8:	422b      	tst	r3, r5
 80026ea:	d001      	beq.n	80026f0 <I2C_WaitOnSTOPFlagUntilTimeout+0x16>
 80026ec:	2000      	movs	r0, #0
 80026ee:	e01d      	b.n	800272c <I2C_WaitOnSTOPFlagUntilTimeout+0x52>
 80026f0:	003a      	movs	r2, r7
 80026f2:	0031      	movs	r1, r6
 80026f4:	0020      	movs	r0, r4
 80026f6:	f7ff ff0d 	bl	8002514 <I2C_IsErrorOccurred>
 80026fa:	2800      	cmp	r0, #0
 80026fc:	d115      	bne.n	800272a <I2C_WaitOnSTOPFlagUntilTimeout+0x50>
 80026fe:	f7ff f89d 	bl	800183c <HAL_GetTick>
 8002702:	1bc0      	subs	r0, r0, r7
 8002704:	42b0      	cmp	r0, r6
 8002706:	d801      	bhi.n	800270c <I2C_WaitOnSTOPFlagUntilTimeout+0x32>
 8002708:	2e00      	cmp	r6, #0
 800270a:	d1eb      	bne.n	80026e4 <I2C_WaitOnSTOPFlagUntilTimeout+0xa>
 800270c:	6823      	ldr	r3, [r4, #0]
 800270e:	699b      	ldr	r3, [r3, #24]
 8002710:	001a      	movs	r2, r3
 8002712:	402a      	ands	r2, r5
 8002714:	422b      	tst	r3, r5
 8002716:	d1e5      	bne.n	80026e4 <I2C_WaitOnSTOPFlagUntilTimeout+0xa>
 8002718:	6c63      	ldr	r3, [r4, #68]	@ 0x44
 800271a:	432b      	orrs	r3, r5
 800271c:	6463      	str	r3, [r4, #68]	@ 0x44
 800271e:	0023      	movs	r3, r4
 8002720:	3440      	adds	r4, #64	@ 0x40
 8002722:	3341      	adds	r3, #65	@ 0x41
 8002724:	701d      	strb	r5, [r3, #0]
 8002726:	705a      	strb	r2, [r3, #1]
 8002728:	7022      	strb	r2, [r4, #0]
 800272a:	2001      	movs	r0, #1
 800272c:	bdf8      	pop	{r3, r4, r5, r6, r7, pc}
	...

08002730 <HAL_I2C_Init>:
 8002730:	b570      	push	{r4, r5, r6, lr}
 8002732:	0004      	movs	r4, r0
 8002734:	2001      	movs	r0, #1
 8002736:	2c00      	cmp	r4, #0
 8002738:	d04e      	beq.n	80027d8 <HAL_I2C_Init+0xa8>
 800273a:	0025      	movs	r5, r4
 800273c:	3541      	adds	r5, #65	@ 0x41
 800273e:	782b      	ldrb	r3, [r5, #0]
 8002740:	b2da      	uxtb	r2, r3
 8002742:	2b00      	cmp	r3, #0
 8002744:	d105      	bne.n	8002752 <HAL_I2C_Init+0x22>
 8002746:	0023      	movs	r3, r4
 8002748:	3340      	adds	r3, #64	@ 0x40
 800274a:	0020      	movs	r0, r4
 800274c:	701a      	strb	r2, [r3, #0]
 800274e:	f7fe f941 	bl	80009d4 <HAL_I2C_MspInit>
 8002752:	2324      	movs	r3, #36	@ 0x24
 8002754:	2101      	movs	r1, #1
 8002756:	702b      	strb	r3, [r5, #0]
 8002758:	6823      	ldr	r3, [r4, #0]
 800275a:	68e0      	ldr	r0, [r4, #12]
 800275c:	681a      	ldr	r2, [r3, #0]
 800275e:	68a6      	ldr	r6, [r4, #8]
 8002760:	438a      	bics	r2, r1
 8002762:	601a      	str	r2, [r3, #0]
 8002764:	491d      	ldr	r1, [pc, #116]	@ (80027dc <HAL_I2C_Init+0xac>)
 8002766:	6862      	ldr	r2, [r4, #4]
 8002768:	400a      	ands	r2, r1
 800276a:	611a      	str	r2, [r3, #16]
 800276c:	689a      	ldr	r2, [r3, #8]
 800276e:	491c      	ldr	r1, [pc, #112]	@ (80027e0 <HAL_I2C_Init+0xb0>)
 8002770:	400a      	ands	r2, r1
 8002772:	609a      	str	r2, [r3, #8]
 8002774:	2801      	cmp	r0, #1
 8002776:	d107      	bne.n	8002788 <HAL_I2C_Init+0x58>
 8002778:	2280      	movs	r2, #128	@ 0x80
 800277a:	0212      	lsls	r2, r2, #8
 800277c:	4332      	orrs	r2, r6
 800277e:	609a      	str	r2, [r3, #8]
 8002780:	685a      	ldr	r2, [r3, #4]
 8002782:	4818      	ldr	r0, [pc, #96]	@ (80027e4 <HAL_I2C_Init+0xb4>)
 8002784:	4002      	ands	r2, r0
 8002786:	e009      	b.n	800279c <HAL_I2C_Init+0x6c>
 8002788:	2284      	movs	r2, #132	@ 0x84
 800278a:	0212      	lsls	r2, r2, #8
 800278c:	4332      	orrs	r2, r6
 800278e:	609a      	str	r2, [r3, #8]
 8002790:	2802      	cmp	r0, #2
 8002792:	d1f5      	bne.n	8002780 <HAL_I2C_Init+0x50>
 8002794:	2280      	movs	r2, #128	@ 0x80
 8002796:	6858      	ldr	r0, [r3, #4]
 8002798:	0112      	lsls	r2, r2, #4
 800279a:	4302      	orrs	r2, r0
 800279c:	605a      	str	r2, [r3, #4]
 800279e:	6858      	ldr	r0, [r3, #4]
 80027a0:	4a11      	ldr	r2, [pc, #68]	@ (80027e8 <HAL_I2C_Init+0xb8>)
 80027a2:	4302      	orrs	r2, r0
 80027a4:	605a      	str	r2, [r3, #4]
 80027a6:	68da      	ldr	r2, [r3, #12]
 80027a8:	2000      	movs	r0, #0
 80027aa:	400a      	ands	r2, r1
 80027ac:	60da      	str	r2, [r3, #12]
 80027ae:	6961      	ldr	r1, [r4, #20]
 80027b0:	6922      	ldr	r2, [r4, #16]
 80027b2:	430a      	orrs	r2, r1
 80027b4:	69a1      	ldr	r1, [r4, #24]
 80027b6:	0209      	lsls	r1, r1, #8
 80027b8:	430a      	orrs	r2, r1
 80027ba:	60da      	str	r2, [r3, #12]
 80027bc:	6a21      	ldr	r1, [r4, #32]
 80027be:	69e2      	ldr	r2, [r4, #28]
 80027c0:	430a      	orrs	r2, r1
 80027c2:	601a      	str	r2, [r3, #0]
 80027c4:	2201      	movs	r2, #1
 80027c6:	6819      	ldr	r1, [r3, #0]
 80027c8:	430a      	orrs	r2, r1
 80027ca:	601a      	str	r2, [r3, #0]
 80027cc:	2320      	movs	r3, #32
 80027ce:	6460      	str	r0, [r4, #68]	@ 0x44
 80027d0:	702b      	strb	r3, [r5, #0]
 80027d2:	6320      	str	r0, [r4, #48]	@ 0x30
 80027d4:	3442      	adds	r4, #66	@ 0x42
 80027d6:	7020      	strb	r0, [r4, #0]
 80027d8:	bd70      	pop	{r4, r5, r6, pc}
 80027da:	46c0      	nop			@ (mov r8, r8)
 80027dc:	f0ffffff 	.word	0xf0ffffff
 80027e0:	ffff7fff 	.word	0xffff7fff
 80027e4:	fffff7ff 	.word	0xfffff7ff
 80027e8:	02008000 	.word	0x02008000

080027ec <HAL_I2C_Mem_Write>:
 80027ec:	b5f0      	push	{r4, r5, r6, r7, lr}
 80027ee:	0007      	movs	r7, r0
 80027f0:	b087      	sub	sp, #28
 80027f2:	9303      	str	r3, [sp, #12]
 80027f4:	ab0c      	add	r3, sp, #48	@ 0x30
 80027f6:	9202      	str	r2, [sp, #8]
 80027f8:	cb04      	ldmia	r3!, {r2}
 80027fa:	3741      	adds	r7, #65	@ 0x41
 80027fc:	881b      	ldrh	r3, [r3, #0]
 80027fe:	9204      	str	r2, [sp, #16]
 8002800:	9305      	str	r3, [sp, #20]
 8002802:	783b      	ldrb	r3, [r7, #0]
 8002804:	0004      	movs	r4, r0
 8002806:	000e      	movs	r6, r1
 8002808:	2002      	movs	r0, #2
 800280a:	2b20      	cmp	r3, #32
 800280c:	d108      	bne.n	8002820 <HAL_I2C_Mem_Write+0x34>
 800280e:	2a00      	cmp	r2, #0
 8002810:	d002      	beq.n	8002818 <HAL_I2C_Mem_Write+0x2c>
 8002812:	9b05      	ldr	r3, [sp, #20]
 8002814:	2b00      	cmp	r3, #0
 8002816:	d105      	bne.n	8002824 <HAL_I2C_Mem_Write+0x38>
 8002818:	2380      	movs	r3, #128	@ 0x80
 800281a:	009b      	lsls	r3, r3, #2
 800281c:	6463      	str	r3, [r4, #68]	@ 0x44
 800281e:	2001      	movs	r0, #1
 8002820:	b007      	add	sp, #28
 8002822:	bdf0      	pop	{r4, r5, r6, r7, pc}
 8002824:	0023      	movs	r3, r4
 8002826:	3340      	adds	r3, #64	@ 0x40
 8002828:	781a      	ldrb	r2, [r3, #0]
 800282a:	2002      	movs	r0, #2
 800282c:	2a01      	cmp	r2, #1
 800282e:	d0f7      	beq.n	8002820 <HAL_I2C_Mem_Write+0x34>
 8002830:	2201      	movs	r2, #1
 8002832:	701a      	strb	r2, [r3, #0]
 8002834:	f7ff f802 	bl	800183c <HAL_GetTick>
 8002838:	2180      	movs	r1, #128	@ 0x80
 800283a:	0005      	movs	r5, r0
 800283c:	9000      	str	r0, [sp, #0]
 800283e:	2319      	movs	r3, #25
 8002840:	2201      	movs	r2, #1
 8002842:	0020      	movs	r0, r4
 8002844:	0209      	lsls	r1, r1, #8
 8002846:	f7ff ff11 	bl	800266c <I2C_WaitOnFlagUntilTimeout>
 800284a:	2800      	cmp	r0, #0
 800284c:	d1e7      	bne.n	800281e <HAL_I2C_Mem_Write+0x32>
 800284e:	2321      	movs	r3, #33	@ 0x21
 8002850:	703b      	strb	r3, [r7, #0]
 8002852:	0027      	movs	r7, r4
 8002854:	331f      	adds	r3, #31
 8002856:	3742      	adds	r7, #66	@ 0x42
 8002858:	703b      	strb	r3, [r7, #0]
 800285a:	9b04      	ldr	r3, [sp, #16]
 800285c:	6460      	str	r0, [r4, #68]	@ 0x44
 800285e:	6263      	str	r3, [r4, #36]	@ 0x24
 8002860:	9b05      	ldr	r3, [sp, #20]
 8002862:	6360      	str	r0, [r4, #52]	@ 0x34
 8002864:	8563      	strh	r3, [r4, #42]	@ 0x2a
 8002866:	466b      	mov	r3, sp
 8002868:	7b1a      	ldrb	r2, [r3, #12]
 800286a:	4b4b      	ldr	r3, [pc, #300]	@ (8002998 <HAL_I2C_Mem_Write+0x1ac>)
 800286c:	0031      	movs	r1, r6
 800286e:	9300      	str	r3, [sp, #0]
 8002870:	2380      	movs	r3, #128	@ 0x80
 8002872:	0020      	movs	r0, r4
 8002874:	045b      	lsls	r3, r3, #17
 8002876:	f7ff fdd3 	bl	8002420 <I2C_TransferConfig>
 800287a:	002a      	movs	r2, r5
 800287c:	0020      	movs	r0, r4
 800287e:	990e      	ldr	r1, [sp, #56]	@ 0x38
 8002880:	f7ff fec6 	bl	8002610 <I2C_WaitOnTXISFlagUntilTimeout>
 8002884:	2800      	cmp	r0, #0
 8002886:	d129      	bne.n	80028dc <HAL_I2C_Mem_Write+0xf0>
 8002888:	9a03      	ldr	r2, [sp, #12]
 800288a:	6823      	ldr	r3, [r4, #0]
 800288c:	2a01      	cmp	r2, #1
 800288e:	d116      	bne.n	80028be <HAL_I2C_Mem_Write+0xd2>
 8002890:	466a      	mov	r2, sp
 8002892:	7a12      	ldrb	r2, [r2, #8]
 8002894:	629a      	str	r2, [r3, #40]	@ 0x28
 8002896:	2200      	movs	r2, #0
 8002898:	2180      	movs	r1, #128	@ 0x80
 800289a:	0020      	movs	r0, r4
 800289c:	9b0e      	ldr	r3, [sp, #56]	@ 0x38
 800289e:	9500      	str	r5, [sp, #0]
 80028a0:	f7ff fee4 	bl	800266c <I2C_WaitOnFlagUntilTimeout>
 80028a4:	2800      	cmp	r0, #0
 80028a6:	d119      	bne.n	80028dc <HAL_I2C_Mem_Write+0xf0>
 80028a8:	8d63      	ldrh	r3, [r4, #42]	@ 0x2a
 80028aa:	2bff      	cmp	r3, #255	@ 0xff
 80028ac:	d81a      	bhi.n	80028e4 <HAL_I2C_Mem_Write+0xf8>
 80028ae:	2380      	movs	r3, #128	@ 0x80
 80028b0:	8d62      	ldrh	r2, [r4, #42]	@ 0x2a
 80028b2:	049b      	lsls	r3, r3, #18
 80028b4:	b292      	uxth	r2, r2
 80028b6:	8522      	strh	r2, [r4, #40]	@ 0x28
 80028b8:	b2d2      	uxtb	r2, r2
 80028ba:	9000      	str	r0, [sp, #0]
 80028bc:	e017      	b.n	80028ee <HAL_I2C_Mem_Write+0x102>
 80028be:	9a02      	ldr	r2, [sp, #8]
 80028c0:	0020      	movs	r0, r4
 80028c2:	0a12      	lsrs	r2, r2, #8
 80028c4:	629a      	str	r2, [r3, #40]	@ 0x28
 80028c6:	990e      	ldr	r1, [sp, #56]	@ 0x38
 80028c8:	002a      	movs	r2, r5
 80028ca:	f7ff fea1 	bl	8002610 <I2C_WaitOnTXISFlagUntilTimeout>
 80028ce:	2800      	cmp	r0, #0
 80028d0:	d104      	bne.n	80028dc <HAL_I2C_Mem_Write+0xf0>
 80028d2:	466b      	mov	r3, sp
 80028d4:	6822      	ldr	r2, [r4, #0]
 80028d6:	7a1b      	ldrb	r3, [r3, #8]
 80028d8:	6293      	str	r3, [r2, #40]	@ 0x28
 80028da:	e7dc      	b.n	8002896 <HAL_I2C_Mem_Write+0xaa>
 80028dc:	2300      	movs	r3, #0
 80028de:	3440      	adds	r4, #64	@ 0x40
 80028e0:	7023      	strb	r3, [r4, #0]
 80028e2:	e79c      	b.n	800281e <HAL_I2C_Mem_Write+0x32>
 80028e4:	22ff      	movs	r2, #255	@ 0xff
 80028e6:	2380      	movs	r3, #128	@ 0x80
 80028e8:	8522      	strh	r2, [r4, #40]	@ 0x28
 80028ea:	045b      	lsls	r3, r3, #17
 80028ec:	9000      	str	r0, [sp, #0]
 80028ee:	0031      	movs	r1, r6
 80028f0:	0020      	movs	r0, r4
 80028f2:	f7ff fd95 	bl	8002420 <I2C_TransferConfig>
 80028f6:	002a      	movs	r2, r5
 80028f8:	0020      	movs	r0, r4
 80028fa:	990e      	ldr	r1, [sp, #56]	@ 0x38
 80028fc:	f7ff fe88 	bl	8002610 <I2C_WaitOnTXISFlagUntilTimeout>
 8002900:	2800      	cmp	r0, #0
 8002902:	d000      	beq.n	8002906 <HAL_I2C_Mem_Write+0x11a>
 8002904:	e78b      	b.n	800281e <HAL_I2C_Mem_Write+0x32>
 8002906:	6a63      	ldr	r3, [r4, #36]	@ 0x24
 8002908:	6822      	ldr	r2, [r4, #0]
 800290a:	7819      	ldrb	r1, [r3, #0]
 800290c:	3301      	adds	r3, #1
 800290e:	6291      	str	r1, [r2, #40]	@ 0x28
 8002910:	6263      	str	r3, [r4, #36]	@ 0x24
 8002912:	8d63      	ldrh	r3, [r4, #42]	@ 0x2a
 8002914:	8d22      	ldrh	r2, [r4, #40]	@ 0x28
 8002916:	3b01      	subs	r3, #1
 8002918:	b29b      	uxth	r3, r3
 800291a:	8563      	strh	r3, [r4, #42]	@ 0x2a
 800291c:	3a01      	subs	r2, #1
 800291e:	8d63      	ldrh	r3, [r4, #42]	@ 0x2a
 8002920:	b292      	uxth	r2, r2
 8002922:	8522      	strh	r2, [r4, #40]	@ 0x28
 8002924:	2b00      	cmp	r3, #0
 8002926:	d016      	beq.n	8002956 <HAL_I2C_Mem_Write+0x16a>
 8002928:	2a00      	cmp	r2, #0
 800292a:	d114      	bne.n	8002956 <HAL_I2C_Mem_Write+0x16a>
 800292c:	2180      	movs	r1, #128	@ 0x80
 800292e:	0020      	movs	r0, r4
 8002930:	9b0e      	ldr	r3, [sp, #56]	@ 0x38
 8002932:	9500      	str	r5, [sp, #0]
 8002934:	f7ff fe9a 	bl	800266c <I2C_WaitOnFlagUntilTimeout>
 8002938:	2800      	cmp	r0, #0
 800293a:	d000      	beq.n	800293e <HAL_I2C_Mem_Write+0x152>
 800293c:	e76f      	b.n	800281e <HAL_I2C_Mem_Write+0x32>
 800293e:	8d63      	ldrh	r3, [r4, #42]	@ 0x2a
 8002940:	2bff      	cmp	r3, #255	@ 0xff
 8002942:	d921      	bls.n	8002988 <HAL_I2C_Mem_Write+0x19c>
 8002944:	22ff      	movs	r2, #255	@ 0xff
 8002946:	2380      	movs	r3, #128	@ 0x80
 8002948:	8522      	strh	r2, [r4, #40]	@ 0x28
 800294a:	045b      	lsls	r3, r3, #17
 800294c:	9000      	str	r0, [sp, #0]
 800294e:	0031      	movs	r1, r6
 8002950:	0020      	movs	r0, r4
 8002952:	f7ff fd65 	bl	8002420 <I2C_TransferConfig>
 8002956:	8d63      	ldrh	r3, [r4, #42]	@ 0x2a
 8002958:	2b00      	cmp	r3, #0
 800295a:	d1cc      	bne.n	80028f6 <HAL_I2C_Mem_Write+0x10a>
 800295c:	002a      	movs	r2, r5
 800295e:	0020      	movs	r0, r4
 8002960:	990e      	ldr	r1, [sp, #56]	@ 0x38
 8002962:	f7ff feba 	bl	80026da <I2C_WaitOnSTOPFlagUntilTimeout>
 8002966:	2800      	cmp	r0, #0
 8002968:	d000      	beq.n	800296c <HAL_I2C_Mem_Write+0x180>
 800296a:	e758      	b.n	800281e <HAL_I2C_Mem_Write+0x32>
 800296c:	2120      	movs	r1, #32
 800296e:	6823      	ldr	r3, [r4, #0]
 8002970:	4d0a      	ldr	r5, [pc, #40]	@ (800299c <HAL_I2C_Mem_Write+0x1b0>)
 8002972:	61d9      	str	r1, [r3, #28]
 8002974:	685a      	ldr	r2, [r3, #4]
 8002976:	402a      	ands	r2, r5
 8002978:	605a      	str	r2, [r3, #4]
 800297a:	0023      	movs	r3, r4
 800297c:	3440      	adds	r4, #64	@ 0x40
 800297e:	3341      	adds	r3, #65	@ 0x41
 8002980:	7019      	strb	r1, [r3, #0]
 8002982:	7038      	strb	r0, [r7, #0]
 8002984:	7020      	strb	r0, [r4, #0]
 8002986:	e74b      	b.n	8002820 <HAL_I2C_Mem_Write+0x34>
 8002988:	2380      	movs	r3, #128	@ 0x80
 800298a:	8d62      	ldrh	r2, [r4, #42]	@ 0x2a
 800298c:	049b      	lsls	r3, r3, #18
 800298e:	b292      	uxth	r2, r2
 8002990:	8522      	strh	r2, [r4, #40]	@ 0x28
 8002992:	b2d2      	uxtb	r2, r2
 8002994:	9000      	str	r0, [sp, #0]
 8002996:	e7da      	b.n	800294e <HAL_I2C_Mem_Write+0x162>
 8002998:	80002000 	.word	0x80002000
 800299c:	fe00e800 	.word	0xfe00e800

080029a0 <HAL_I2C_Mem_Write_DMA>:
 80029a0:	b5f0      	push	{r4, r5, r6, r7, lr}
 80029a2:	b087      	sub	sp, #28
 80029a4:	9103      	str	r1, [sp, #12]
 80029a6:	9304      	str	r3, [sp, #16]
 80029a8:	0004      	movs	r4, r0
 80029aa:	ab0c      	add	r3, sp, #48	@ 0x30
 80029ac:	3041      	adds	r0, #65	@ 0x41
 80029ae:	4694      	mov	ip, r2
 80029b0:	cb02      	ldmia	r3!, {r1}
 80029b2:	7802      	ldrb	r2, [r0, #0]
 80029b4:	2502      	movs	r5, #2
 80029b6:	881b      	ldrh	r3, [r3, #0]
 80029b8:	2a20      	cmp	r2, #32
 80029ba:	d107      	bne.n	80029cc <HAL_I2C_Mem_Write_DMA+0x2c>
 80029bc:	2900      	cmp	r1, #0
 80029be:	d001      	beq.n	80029c4 <HAL_I2C_Mem_Write_DMA+0x24>
 80029c0:	2b00      	cmp	r3, #0
 80029c2:	d106      	bne.n	80029d2 <HAL_I2C_Mem_Write_DMA+0x32>
 80029c4:	2380      	movs	r3, #128	@ 0x80
 80029c6:	009b      	lsls	r3, r3, #2
 80029c8:	6463      	str	r3, [r4, #68]	@ 0x44
 80029ca:	2501      	movs	r5, #1
 80029cc:	0028      	movs	r0, r5
 80029ce:	b007      	add	sp, #28
 80029d0:	bdf0      	pop	{r4, r5, r6, r7, pc}
 80029d2:	6822      	ldr	r2, [r4, #0]
 80029d4:	2680      	movs	r6, #128	@ 0x80
 80029d6:	6997      	ldr	r7, [r2, #24]
 80029d8:	0236      	lsls	r6, r6, #8
 80029da:	003d      	movs	r5, r7
 80029dc:	4035      	ands	r5, r6
 80029de:	9505      	str	r5, [sp, #20]
 80029e0:	2502      	movs	r5, #2
 80029e2:	4237      	tst	r7, r6
 80029e4:	d1f2      	bne.n	80029cc <HAL_I2C_Mem_Write_DMA+0x2c>
 80029e6:	0026      	movs	r6, r4
 80029e8:	3640      	adds	r6, #64	@ 0x40
 80029ea:	7837      	ldrb	r7, [r6, #0]
 80029ec:	2f01      	cmp	r7, #1
 80029ee:	d0ed      	beq.n	80029cc <HAL_I2C_Mem_Write_DMA+0x2c>
 80029f0:	3d01      	subs	r5, #1
 80029f2:	7035      	strb	r5, [r6, #0]
 80029f4:	0027      	movs	r7, r4
 80029f6:	3520      	adds	r5, #32
 80029f8:	7005      	strb	r5, [r0, #0]
 80029fa:	2040      	movs	r0, #64	@ 0x40
 80029fc:	3742      	adds	r7, #66	@ 0x42
 80029fe:	7038      	strb	r0, [r7, #0]
 8002a00:	9805      	ldr	r0, [sp, #20]
 8002a02:	6261      	str	r1, [r4, #36]	@ 0x24
 8002a04:	6460      	str	r0, [r4, #68]	@ 0x44
 8002a06:	8563      	strh	r3, [r4, #42]	@ 0x2a
 8002a08:	4b2a      	ldr	r3, [pc, #168]	@ (8002ab4 <HAL_I2C_Mem_Write_DMA+0x114>)
 8002a0a:	62e3      	str	r3, [r4, #44]	@ 0x2c
 8002a0c:	4b2a      	ldr	r3, [pc, #168]	@ (8002ab8 <HAL_I2C_Mem_Write_DMA+0x118>)
 8002a0e:	6363      	str	r3, [r4, #52]	@ 0x34
 8002a10:	9b03      	ldr	r3, [sp, #12]
 8002a12:	64e3      	str	r3, [r4, #76]	@ 0x4c
 8002a14:	23ff      	movs	r3, #255	@ 0xff
 8002a16:	8d60      	ldrh	r0, [r4, #42]	@ 0x2a
 8002a18:	4298      	cmp	r0, r3
 8002a1a:	d801      	bhi.n	8002a20 <HAL_I2C_Mem_Write_DMA+0x80>
 8002a1c:	8d63      	ldrh	r3, [r4, #42]	@ 0x2a
 8002a1e:	b29b      	uxth	r3, r3
 8002a20:	4660      	mov	r0, ip
 8002a22:	9d04      	ldr	r5, [sp, #16]
 8002a24:	8523      	strh	r3, [r4, #40]	@ 0x28
 8002a26:	b2c0      	uxtb	r0, r0
 8002a28:	2d01      	cmp	r5, #1
 8002a2a:	d127      	bne.n	8002a7c <HAL_I2C_Mem_Write_DMA+0xdc>
 8002a2c:	6290      	str	r0, [r2, #40]	@ 0x28
 8002a2e:	2001      	movs	r0, #1
 8002a30:	4240      	negs	r0, r0
 8002a32:	6520      	str	r0, [r4, #80]	@ 0x50
 8002a34:	6ba0      	ldr	r0, [r4, #56]	@ 0x38
 8002a36:	2800      	cmp	r0, #0
 8002a38:	d024      	beq.n	8002a84 <HAL_I2C_Mem_Write_DMA+0xe4>
 8002a3a:	2600      	movs	r6, #0
 8002a3c:	4d1f      	ldr	r5, [pc, #124]	@ (8002abc <HAL_I2C_Mem_Write_DMA+0x11c>)
 8002a3e:	6306      	str	r6, [r0, #48]	@ 0x30
 8002a40:	62c5      	str	r5, [r0, #44]	@ 0x2c
 8002a42:	4d1f      	ldr	r5, [pc, #124]	@ (8002ac0 <HAL_I2C_Mem_Write_DMA+0x120>)
 8002a44:	6386      	str	r6, [r0, #56]	@ 0x38
 8002a46:	6345      	str	r5, [r0, #52]	@ 0x34
 8002a48:	3228      	adds	r2, #40	@ 0x28
 8002a4a:	f7ff fb21 	bl	8002090 <HAL_DMA_Start_IT>
 8002a4e:	0023      	movs	r3, r4
 8002a50:	3340      	adds	r3, #64	@ 0x40
 8002a52:	0005      	movs	r5, r0
 8002a54:	9305      	str	r3, [sp, #20]
 8002a56:	42b0      	cmp	r0, r6
 8002a58:	d120      	bne.n	8002a9c <HAL_I2C_Mem_Write_DMA+0xfc>
 8002a5a:	466b      	mov	r3, sp
 8002a5c:	7c1a      	ldrb	r2, [r3, #16]
 8002a5e:	4b19      	ldr	r3, [pc, #100]	@ (8002ac4 <HAL_I2C_Mem_Write_DMA+0x124>)
 8002a60:	0020      	movs	r0, r4
 8002a62:	9300      	str	r3, [sp, #0]
 8002a64:	2380      	movs	r3, #128	@ 0x80
 8002a66:	9903      	ldr	r1, [sp, #12]
 8002a68:	045b      	lsls	r3, r3, #17
 8002a6a:	f7ff fcd9 	bl	8002420 <I2C_TransferConfig>
 8002a6e:	9b05      	ldr	r3, [sp, #20]
 8002a70:	2101      	movs	r1, #1
 8002a72:	0020      	movs	r0, r4
 8002a74:	701d      	strb	r5, [r3, #0]
 8002a76:	f7ff fce9 	bl	800244c <I2C_Enable_IRQ>
 8002a7a:	e7a7      	b.n	80029cc <HAL_I2C_Mem_Write_DMA+0x2c>
 8002a7c:	4665      	mov	r5, ip
 8002a7e:	0a2d      	lsrs	r5, r5, #8
 8002a80:	6295      	str	r5, [r2, #40]	@ 0x28
 8002a82:	e7d6      	b.n	8002a32 <HAL_I2C_Mem_Write_DMA+0x92>
 8002a84:	0023      	movs	r3, r4
 8002a86:	2220      	movs	r2, #32
 8002a88:	3341      	adds	r3, #65	@ 0x41
 8002a8a:	701a      	strb	r2, [r3, #0]
 8002a8c:	2380      	movs	r3, #128	@ 0x80
 8002a8e:	7038      	strb	r0, [r7, #0]
 8002a90:	6c62      	ldr	r2, [r4, #68]	@ 0x44
 8002a92:	3440      	adds	r4, #64	@ 0x40
 8002a94:	4313      	orrs	r3, r2
 8002a96:	6063      	str	r3, [r4, #4]
 8002a98:	7020      	strb	r0, [r4, #0]
 8002a9a:	e796      	b.n	80029ca <HAL_I2C_Mem_Write_DMA+0x2a>
 8002a9c:	0023      	movs	r3, r4
 8002a9e:	2220      	movs	r2, #32
 8002aa0:	3341      	adds	r3, #65	@ 0x41
 8002aa2:	701a      	strb	r2, [r3, #0]
 8002aa4:	2310      	movs	r3, #16
 8002aa6:	703e      	strb	r6, [r7, #0]
 8002aa8:	6c62      	ldr	r2, [r4, #68]	@ 0x44
 8002aaa:	4313      	orrs	r3, r2
 8002aac:	6463      	str	r3, [r4, #68]	@ 0x44
 8002aae:	9b05      	ldr	r3, [sp, #20]
 8002ab0:	701e      	strb	r6, [r3, #0]
 8002ab2:	e78a      	b.n	80029ca <HAL_I2C_Mem_Write_DMA+0x2a>
 8002ab4:	ffff0000 	.word	0xffff0000
 8002ab8:	08002ee1 	.word	0x08002ee1
 8002abc:	0800315d 	.word	0x0800315d
 8002ac0:	08003145 	.word	0x08003145
 8002ac4:	80002000 	.word	0x80002000

08002ac8 <HAL_I2C_EV_IRQHandler>:
 8002ac8:	6803      	ldr	r3, [r0, #0]
 8002aca:	b510      	push	{r4, lr}
 8002acc:	6999      	ldr	r1, [r3, #24]
 8002ace:	681a      	ldr	r2, [r3, #0]
 8002ad0:	6b43      	ldr	r3, [r0, #52]	@ 0x34
 8002ad2:	2b00      	cmp	r3, #0
 8002ad4:	d000      	beq.n	8002ad8 <HAL_I2C_EV_IRQHandler+0x10>
 8002ad6:	4798      	blx	r3
 8002ad8:	bd10      	pop	{r4, pc}

08002ada <HAL_I2C_MasterTxCpltCallback>:
 8002ada:	4770      	bx	lr

08002adc <HAL_I2C_MasterRxCpltCallback>:
 8002adc:	4770      	bx	lr

08002ade <I2C_ITMasterSeqCplt>:
 8002ade:	0003      	movs	r3, r0
 8002ae0:	b570      	push	{r4, r5, r6, lr}
 8002ae2:	2500      	movs	r5, #0
 8002ae4:	2220      	movs	r2, #32
 8002ae6:	0006      	movs	r6, r0
 8002ae8:	3342      	adds	r3, #66	@ 0x42
 8002aea:	701d      	strb	r5, [r3, #0]
 8002aec:	3b01      	subs	r3, #1
 8002aee:	7819      	ldrb	r1, [r3, #0]
 8002af0:	0004      	movs	r4, r0
 8002af2:	3640      	adds	r6, #64	@ 0x40
 8002af4:	701a      	strb	r2, [r3, #0]
 8002af6:	2921      	cmp	r1, #33	@ 0x21
 8002af8:	d10a      	bne.n	8002b10 <I2C_ITMasterSeqCplt+0x32>
 8002afa:	2311      	movs	r3, #17
 8002afc:	6345      	str	r5, [r0, #52]	@ 0x34
 8002afe:	6303      	str	r3, [r0, #48]	@ 0x30
 8002b00:	3920      	subs	r1, #32
 8002b02:	f7ff fce3 	bl	80024cc <I2C_Disable_IRQ>
 8002b06:	0020      	movs	r0, r4
 8002b08:	7035      	strb	r5, [r6, #0]
 8002b0a:	f7ff ffe6 	bl	8002ada <HAL_I2C_MasterTxCpltCallback>
 8002b0e:	bd70      	pop	{r4, r5, r6, pc}
 8002b10:	2312      	movs	r3, #18
 8002b12:	6345      	str	r5, [r0, #52]	@ 0x34
 8002b14:	6303      	str	r3, [r0, #48]	@ 0x30
 8002b16:	2102      	movs	r1, #2
 8002b18:	f7ff fcd8 	bl	80024cc <I2C_Disable_IRQ>
 8002b1c:	0020      	movs	r0, r4
 8002b1e:	7035      	strb	r5, [r6, #0]
 8002b20:	f7ff ffdc 	bl	8002adc <HAL_I2C_MasterRxCpltCallback>
 8002b24:	e7f3      	b.n	8002b0e <I2C_ITMasterSeqCplt+0x30>

08002b26 <HAL_I2C_SlaveTxCpltCallback>:
 8002b26:	4770      	bx	lr

08002b28 <HAL_I2C_SlaveRxCpltCallback>:
 8002b28:	4770      	bx	lr
	...

08002b2c <I2C_ITSlaveSeqCplt>:
 8002b2c:	0001      	movs	r1, r0
 8002b2e:	6803      	ldr	r3, [r0, #0]
 8002b30:	b510      	push	{r4, lr}
 8002b32:	0004      	movs	r4, r0
 8002b34:	2000      	movs	r0, #0
 8002b36:	681a      	ldr	r2, [r3, #0]
 8002b38:	3142      	adds	r1, #66	@ 0x42
 8002b3a:	7008      	strb	r0, [r1, #0]
 8002b3c:	0451      	lsls	r1, r2, #17
 8002b3e:	d518      	bpl.n	8002b72 <I2C_ITSlaveSeqCplt+0x46>
 8002b40:	681a      	ldr	r2, [r3, #0]
 8002b42:	4918      	ldr	r1, [pc, #96]	@ (8002ba4 <I2C_ITSlaveSeqCplt+0x78>)
 8002b44:	400a      	ands	r2, r1
 8002b46:	601a      	str	r2, [r3, #0]
 8002b48:	0023      	movs	r3, r4
 8002b4a:	3341      	adds	r3, #65	@ 0x41
 8002b4c:	781a      	ldrb	r2, [r3, #0]
 8002b4e:	2a29      	cmp	r2, #41	@ 0x29
 8002b50:	d114      	bne.n	8002b7c <I2C_ITSlaveSeqCplt+0x50>
 8002b52:	3a01      	subs	r2, #1
 8002b54:	701a      	strb	r2, [r3, #0]
 8002b56:	2321      	movs	r3, #33	@ 0x21
 8002b58:	0020      	movs	r0, r4
 8002b5a:	6323      	str	r3, [r4, #48]	@ 0x30
 8002b5c:	2101      	movs	r1, #1
 8002b5e:	f7ff fcb5 	bl	80024cc <I2C_Disable_IRQ>
 8002b62:	0023      	movs	r3, r4
 8002b64:	2200      	movs	r2, #0
 8002b66:	3340      	adds	r3, #64	@ 0x40
 8002b68:	0020      	movs	r0, r4
 8002b6a:	701a      	strb	r2, [r3, #0]
 8002b6c:	f7ff ffdb 	bl	8002b26 <HAL_I2C_SlaveTxCpltCallback>
 8002b70:	bd10      	pop	{r4, pc}
 8002b72:	0412      	lsls	r2, r2, #16
 8002b74:	d5e8      	bpl.n	8002b48 <I2C_ITSlaveSeqCplt+0x1c>
 8002b76:	681a      	ldr	r2, [r3, #0]
 8002b78:	490b      	ldr	r1, [pc, #44]	@ (8002ba8 <I2C_ITSlaveSeqCplt+0x7c>)
 8002b7a:	e7e3      	b.n	8002b44 <I2C_ITSlaveSeqCplt+0x18>
 8002b7c:	781a      	ldrb	r2, [r3, #0]
 8002b7e:	2a2a      	cmp	r2, #42	@ 0x2a
 8002b80:	d1f6      	bne.n	8002b70 <I2C_ITSlaveSeqCplt+0x44>
 8002b82:	3a02      	subs	r2, #2
 8002b84:	701a      	strb	r2, [r3, #0]
 8002b86:	2322      	movs	r3, #34	@ 0x22
 8002b88:	0020      	movs	r0, r4
 8002b8a:	6323      	str	r3, [r4, #48]	@ 0x30
 8002b8c:	2102      	movs	r1, #2
 8002b8e:	f7ff fc9d 	bl	80024cc <I2C_Disable_IRQ>
 8002b92:	0023      	movs	r3, r4
 8002b94:	2200      	movs	r2, #0
 8002b96:	3340      	adds	r3, #64	@ 0x40
 8002b98:	0020      	movs	r0, r4
 8002b9a:	701a      	strb	r2, [r3, #0]
 8002b9c:	f7ff ffc4 	bl	8002b28 <HAL_I2C_SlaveRxCpltCallback>
 8002ba0:	e7e6      	b.n	8002b70 <I2C_ITSlaveSeqCplt+0x44>
 8002ba2:	46c0      	nop			@ (mov r8, r8)
 8002ba4:	ffffbfff 	.word	0xffffbfff
 8002ba8:	ffff7fff 	.word	0xffff7fff

08002bac <HAL_I2C_AddrCallback>:
 8002bac:	4770      	bx	lr

08002bae <I2C_ITAddrCplt.constprop.0>:
 8002bae:	0003      	movs	r3, r0
 8002bb0:	b5f7      	push	{r0, r1, r2, r4, r5, r6, r7, lr}
 8002bb2:	2228      	movs	r2, #40	@ 0x28
 8002bb4:	3341      	adds	r3, #65	@ 0x41
 8002bb6:	781b      	ldrb	r3, [r3, #0]
 8002bb8:	0004      	movs	r4, r0
 8002bba:	6801      	ldr	r1, [r0, #0]
 8002bbc:	4013      	ands	r3, r2
 8002bbe:	4293      	cmp	r3, r2
 8002bc0:	d13c      	bne.n	8002c3c <I2C_ITAddrCplt.constprop.0+0x8e>
 8002bc2:	27fe      	movs	r7, #254	@ 0xfe
 8002bc4:	698d      	ldr	r5, [r1, #24]
 8002bc6:	698e      	ldr	r6, [r1, #24]
 8002bc8:	688b      	ldr	r3, [r1, #8]
 8002bca:	68ca      	ldr	r2, [r1, #12]
 8002bcc:	03ed      	lsls	r5, r5, #15
 8002bce:	9201      	str	r2, [sp, #4]
 8002bd0:	68c2      	ldr	r2, [r0, #12]
 8002bd2:	0c36      	lsrs	r6, r6, #16
 8002bd4:	0fed      	lsrs	r5, r5, #31
 8002bd6:	403e      	ands	r6, r7
 8002bd8:	2a02      	cmp	r2, #2
 8002bda:	d125      	bne.n	8002c28 <I2C_ITAddrCplt.constprop.0+0x7a>
 8002bdc:	059b      	lsls	r3, r3, #22
 8002bde:	0d9a      	lsrs	r2, r3, #22
 8002be0:	0f5b      	lsrs	r3, r3, #29
 8002be2:	4073      	eors	r3, r6
 8002be4:	0018      	movs	r0, r3
 8002be6:	2606      	movs	r6, #6
 8002be8:	4030      	ands	r0, r6
 8002bea:	4233      	tst	r3, r6
 8002bec:	d110      	bne.n	8002c10 <I2C_ITAddrCplt.constprop.0+0x62>
 8002bee:	6ca3      	ldr	r3, [r4, #72]	@ 0x48
 8002bf0:	3301      	adds	r3, #1
 8002bf2:	64a3      	str	r3, [r4, #72]	@ 0x48
 8002bf4:	6ca3      	ldr	r3, [r4, #72]	@ 0x48
 8002bf6:	2b02      	cmp	r3, #2
 8002bf8:	d109      	bne.n	8002c0e <I2C_ITAddrCplt.constprop.0+0x60>
 8002bfa:	199b      	adds	r3, r3, r6
 8002bfc:	64a0      	str	r0, [r4, #72]	@ 0x48
 8002bfe:	61cb      	str	r3, [r1, #28]
 8002c00:	0023      	movs	r3, r4
 8002c02:	3340      	adds	r3, #64	@ 0x40
 8002c04:	7018      	strb	r0, [r3, #0]
 8002c06:	0029      	movs	r1, r5
 8002c08:	0020      	movs	r0, r4
 8002c0a:	f7ff ffcf 	bl	8002bac <HAL_I2C_AddrCallback>
 8002c0e:	bdf7      	pop	{r0, r1, r2, r4, r5, r6, r7, pc}
 8002c10:	2180      	movs	r1, #128	@ 0x80
 8002c12:	0020      	movs	r0, r4
 8002c14:	0209      	lsls	r1, r1, #8
 8002c16:	f7ff fc59 	bl	80024cc <I2C_Disable_IRQ>
 8002c1a:	0023      	movs	r3, r4
 8002c1c:	2200      	movs	r2, #0
 8002c1e:	3340      	adds	r3, #64	@ 0x40
 8002c20:	701a      	strb	r2, [r3, #0]
 8002c22:	9a01      	ldr	r2, [sp, #4]
 8002c24:	403a      	ands	r2, r7
 8002c26:	e7ee      	b.n	8002c06 <I2C_ITAddrCplt.constprop.0+0x58>
 8002c28:	2180      	movs	r1, #128	@ 0x80
 8002c2a:	0209      	lsls	r1, r1, #8
 8002c2c:	f7ff fc4e 	bl	80024cc <I2C_Disable_IRQ>
 8002c30:	0023      	movs	r3, r4
 8002c32:	2200      	movs	r2, #0
 8002c34:	3340      	adds	r3, #64	@ 0x40
 8002c36:	701a      	strb	r2, [r3, #0]
 8002c38:	0032      	movs	r2, r6
 8002c3a:	e7e4      	b.n	8002c06 <I2C_ITAddrCplt.constprop.0+0x58>
 8002c3c:	2308      	movs	r3, #8
 8002c3e:	61cb      	str	r3, [r1, #28]
 8002c40:	2300      	movs	r3, #0
 8002c42:	3440      	adds	r4, #64	@ 0x40
 8002c44:	7023      	strb	r3, [r4, #0]
 8002c46:	e7e2      	b.n	8002c0e <I2C_ITAddrCplt.constprop.0+0x60>

08002c48 <HAL_I2C_ListenCpltCallback>:
 8002c48:	4770      	bx	lr
	...

08002c4c <I2C_ITListenCplt>:
 8002c4c:	4b18      	ldr	r3, [pc, #96]	@ (8002cb0 <I2C_ITListenCplt+0x64>)
 8002c4e:	b510      	push	{r4, lr}
 8002c50:	62c3      	str	r3, [r0, #44]	@ 0x2c
 8002c52:	2300      	movs	r3, #0
 8002c54:	0002      	movs	r2, r0
 8002c56:	6303      	str	r3, [r0, #48]	@ 0x30
 8002c58:	0004      	movs	r4, r0
 8002c5a:	2020      	movs	r0, #32
 8002c5c:	3241      	adds	r2, #65	@ 0x41
 8002c5e:	7010      	strb	r0, [r2, #0]
 8002c60:	7053      	strb	r3, [r2, #1]
 8002c62:	2204      	movs	r2, #4
 8002c64:	6363      	str	r3, [r4, #52]	@ 0x34
 8002c66:	4211      	tst	r1, r2
 8002c68:	d012      	beq.n	8002c90 <I2C_ITListenCplt+0x44>
 8002c6a:	6823      	ldr	r3, [r4, #0]
 8002c6c:	6a59      	ldr	r1, [r3, #36]	@ 0x24
 8002c6e:	6a63      	ldr	r3, [r4, #36]	@ 0x24
 8002c70:	7019      	strb	r1, [r3, #0]
 8002c72:	6a63      	ldr	r3, [r4, #36]	@ 0x24
 8002c74:	3301      	adds	r3, #1
 8002c76:	6263      	str	r3, [r4, #36]	@ 0x24
 8002c78:	8d23      	ldrh	r3, [r4, #40]	@ 0x28
 8002c7a:	2b00      	cmp	r3, #0
 8002c7c:	d008      	beq.n	8002c90 <I2C_ITListenCplt+0x44>
 8002c7e:	3b01      	subs	r3, #1
 8002c80:	8523      	strh	r3, [r4, #40]	@ 0x28
 8002c82:	8d63      	ldrh	r3, [r4, #42]	@ 0x2a
 8002c84:	3b01      	subs	r3, #1
 8002c86:	b29b      	uxth	r3, r3
 8002c88:	8563      	strh	r3, [r4, #42]	@ 0x2a
 8002c8a:	6c63      	ldr	r3, [r4, #68]	@ 0x44
 8002c8c:	431a      	orrs	r2, r3
 8002c8e:	6462      	str	r2, [r4, #68]	@ 0x44
 8002c90:	0020      	movs	r0, r4
 8002c92:	4908      	ldr	r1, [pc, #32]	@ (8002cb4 <I2C_ITListenCplt+0x68>)
 8002c94:	f7ff fc1a 	bl	80024cc <I2C_Disable_IRQ>
 8002c98:	2210      	movs	r2, #16
 8002c9a:	6823      	ldr	r3, [r4, #0]
 8002c9c:	0020      	movs	r0, r4
 8002c9e:	61da      	str	r2, [r3, #28]
 8002ca0:	0023      	movs	r3, r4
 8002ca2:	2200      	movs	r2, #0
 8002ca4:	3340      	adds	r3, #64	@ 0x40
 8002ca6:	701a      	strb	r2, [r3, #0]
 8002ca8:	f7ff ffce 	bl	8002c48 <HAL_I2C_ListenCpltCallback>
 8002cac:	bd10      	pop	{r4, pc}
 8002cae:	46c0      	nop			@ (mov r8, r8)
 8002cb0:	ffff0000 	.word	0xffff0000
 8002cb4:	00008003 	.word	0x00008003

08002cb8 <HAL_I2C_MemRxCpltCallback>:
 8002cb8:	4770      	bx	lr

08002cba <HAL_I2C_ErrorCallback>:
 8002cba:	4770      	bx	lr

08002cbc <HAL_I2C_AbortCpltCallback>:
 8002cbc:	4770      	bx	lr

08002cbe <I2C_TreatErrorCallback>:
 8002cbe:	0001      	movs	r1, r0
 8002cc0:	0002      	movs	r2, r0
 8002cc2:	b510      	push	{r4, lr}
 8002cc4:	3141      	adds	r1, #65	@ 0x41
 8002cc6:	780c      	ldrb	r4, [r1, #0]
 8002cc8:	2300      	movs	r3, #0
 8002cca:	3240      	adds	r2, #64	@ 0x40
 8002ccc:	2c60      	cmp	r4, #96	@ 0x60
 8002cce:	d106      	bne.n	8002cde <I2C_TreatErrorCallback+0x20>
 8002cd0:	3c40      	subs	r4, #64	@ 0x40
 8002cd2:	700c      	strb	r4, [r1, #0]
 8002cd4:	6303      	str	r3, [r0, #48]	@ 0x30
 8002cd6:	7013      	strb	r3, [r2, #0]
 8002cd8:	f7ff fff0 	bl	8002cbc <HAL_I2C_AbortCpltCallback>
 8002cdc:	bd10      	pop	{r4, pc}
 8002cde:	6303      	str	r3, [r0, #48]	@ 0x30
 8002ce0:	7013      	strb	r3, [r2, #0]
 8002ce2:	f7ff ffea 	bl	8002cba <HAL_I2C_ErrorCallback>
 8002ce6:	e7f9      	b.n	8002cdc <I2C_TreatErrorCallback+0x1e>

08002ce8 <I2C_ITError>:
 8002ce8:	b570      	push	{r4, r5, r6, lr}
 8002cea:	0005      	movs	r5, r0
 8002cec:	2200      	movs	r2, #0
 8002cee:	0004      	movs	r4, r0
 8002cf0:	3541      	adds	r5, #65	@ 0x41
 8002cf2:	3042      	adds	r0, #66	@ 0x42
 8002cf4:	782b      	ldrb	r3, [r5, #0]
 8002cf6:	7002      	strb	r2, [r0, #0]
 8002cf8:	483a      	ldr	r0, [pc, #232]	@ (8002de4 <I2C_ITError+0xfc>)
 8002cfa:	3b28      	subs	r3, #40	@ 0x28
 8002cfc:	62e0      	str	r0, [r4, #44]	@ 0x2c
 8002cfe:	8562      	strh	r2, [r4, #42]	@ 0x2a
 8002d00:	6c62      	ldr	r2, [r4, #68]	@ 0x44
 8002d02:	430a      	orrs	r2, r1
 8002d04:	6462      	str	r2, [r4, #68]	@ 0x44
 8002d06:	2b02      	cmp	r3, #2
 8002d08:	d82b      	bhi.n	8002d62 <I2C_ITError+0x7a>
 8002d0a:	2103      	movs	r1, #3
 8002d0c:	0020      	movs	r0, r4
 8002d0e:	f7ff fbdd 	bl	80024cc <I2C_Disable_IRQ>
 8002d12:	2328      	movs	r3, #40	@ 0x28
 8002d14:	702b      	strb	r3, [r5, #0]
 8002d16:	4b34      	ldr	r3, [pc, #208]	@ (8002de8 <I2C_ITError+0x100>)
 8002d18:	6ba0      	ldr	r0, [r4, #56]	@ 0x38
 8002d1a:	6363      	str	r3, [r4, #52]	@ 0x34
 8002d1c:	6b23      	ldr	r3, [r4, #48]	@ 0x30
 8002d1e:	2800      	cmp	r0, #0
 8002d20:	d040      	beq.n	8002da4 <I2C_ITError+0xbc>
 8002d22:	001a      	movs	r2, r3
 8002d24:	2110      	movs	r1, #16
 8002d26:	3a11      	subs	r2, #17
 8002d28:	438a      	bics	r2, r1
 8002d2a:	d13b      	bne.n	8002da4 <I2C_ITError+0xbc>
 8002d2c:	6823      	ldr	r3, [r4, #0]
 8002d2e:	681a      	ldr	r2, [r3, #0]
 8002d30:	0452      	lsls	r2, r2, #17
 8002d32:	d503      	bpl.n	8002d3c <I2C_ITError+0x54>
 8002d34:	681a      	ldr	r2, [r3, #0]
 8002d36:	492d      	ldr	r1, [pc, #180]	@ (8002dec <I2C_ITError+0x104>)
 8002d38:	400a      	ands	r2, r1
 8002d3a:	601a      	str	r2, [r3, #0]
 8002d3c:	f7ff fa82 	bl	8002244 <HAL_DMA_GetState>
 8002d40:	2801      	cmp	r0, #1
 8002d42:	d02b      	beq.n	8002d9c <I2C_ITError+0xb4>
 8002d44:	6ba0      	ldr	r0, [r4, #56]	@ 0x38
 8002d46:	4b2a      	ldr	r3, [pc, #168]	@ (8002df0 <I2C_ITError+0x108>)
 8002d48:	2200      	movs	r2, #0
 8002d4a:	6383      	str	r3, [r0, #56]	@ 0x38
 8002d4c:	0023      	movs	r3, r4
 8002d4e:	3340      	adds	r3, #64	@ 0x40
 8002d50:	701a      	strb	r2, [r3, #0]
 8002d52:	f7ff f9e5 	bl	8002120 <HAL_DMA_Abort_IT>
 8002d56:	2800      	cmp	r0, #0
 8002d58:	d023      	beq.n	8002da2 <I2C_ITError+0xba>
 8002d5a:	6ba0      	ldr	r0, [r4, #56]	@ 0x38
 8002d5c:	6b83      	ldr	r3, [r0, #56]	@ 0x38
 8002d5e:	4798      	blx	r3
 8002d60:	e01f      	b.n	8002da2 <I2C_ITError+0xba>
 8002d62:	0020      	movs	r0, r4
 8002d64:	4923      	ldr	r1, [pc, #140]	@ (8002df4 <I2C_ITError+0x10c>)
 8002d66:	f7ff fbb1 	bl	80024cc <I2C_Disable_IRQ>
 8002d6a:	0020      	movs	r0, r4
 8002d6c:	f7ff fb4a 	bl	8002404 <I2C_Flush_TXDR>
 8002d70:	782b      	ldrb	r3, [r5, #0]
 8002d72:	2b60      	cmp	r3, #96	@ 0x60
 8002d74:	d010      	beq.n	8002d98 <I2C_ITError+0xb0>
 8002d76:	2220      	movs	r2, #32
 8002d78:	702a      	strb	r2, [r5, #0]
 8002d7a:	6823      	ldr	r3, [r4, #0]
 8002d7c:	6999      	ldr	r1, [r3, #24]
 8002d7e:	4211      	tst	r1, r2
 8002d80:	d00a      	beq.n	8002d98 <I2C_ITError+0xb0>
 8002d82:	6999      	ldr	r1, [r3, #24]
 8002d84:	3a10      	subs	r2, #16
 8002d86:	4211      	tst	r1, r2
 8002d88:	d004      	beq.n	8002d94 <I2C_ITError+0xac>
 8002d8a:	61da      	str	r2, [r3, #28]
 8002d8c:	6c61      	ldr	r1, [r4, #68]	@ 0x44
 8002d8e:	3a0c      	subs	r2, #12
 8002d90:	430a      	orrs	r2, r1
 8002d92:	6462      	str	r2, [r4, #68]	@ 0x44
 8002d94:	2220      	movs	r2, #32
 8002d96:	61da      	str	r2, [r3, #28]
 8002d98:	2300      	movs	r3, #0
 8002d9a:	e7bd      	b.n	8002d18 <I2C_ITError+0x30>
 8002d9c:	0020      	movs	r0, r4
 8002d9e:	f7ff ff8e 	bl	8002cbe <I2C_TreatErrorCallback>
 8002da2:	bd70      	pop	{r4, r5, r6, pc}
 8002da4:	6be0      	ldr	r0, [r4, #60]	@ 0x3c
 8002da6:	2800      	cmp	r0, #0
 8002da8:	d0f8      	beq.n	8002d9c <I2C_ITError+0xb4>
 8002daa:	2210      	movs	r2, #16
 8002dac:	3b12      	subs	r3, #18
 8002dae:	4393      	bics	r3, r2
 8002db0:	d1f4      	bne.n	8002d9c <I2C_ITError+0xb4>
 8002db2:	6823      	ldr	r3, [r4, #0]
 8002db4:	681a      	ldr	r2, [r3, #0]
 8002db6:	0412      	lsls	r2, r2, #16
 8002db8:	d503      	bpl.n	8002dc2 <I2C_ITError+0xda>
 8002dba:	681a      	ldr	r2, [r3, #0]
 8002dbc:	490e      	ldr	r1, [pc, #56]	@ (8002df8 <I2C_ITError+0x110>)
 8002dbe:	400a      	ands	r2, r1
 8002dc0:	601a      	str	r2, [r3, #0]
 8002dc2:	f7ff fa3f 	bl	8002244 <HAL_DMA_GetState>
 8002dc6:	2801      	cmp	r0, #1
 8002dc8:	d0e8      	beq.n	8002d9c <I2C_ITError+0xb4>
 8002dca:	6be0      	ldr	r0, [r4, #60]	@ 0x3c
 8002dcc:	4b08      	ldr	r3, [pc, #32]	@ (8002df0 <I2C_ITError+0x108>)
 8002dce:	2200      	movs	r2, #0
 8002dd0:	6383      	str	r3, [r0, #56]	@ 0x38
 8002dd2:	0023      	movs	r3, r4
 8002dd4:	3340      	adds	r3, #64	@ 0x40
 8002dd6:	701a      	strb	r2, [r3, #0]
 8002dd8:	f7ff f9a2 	bl	8002120 <HAL_DMA_Abort_IT>
 8002ddc:	2800      	cmp	r0, #0
 8002dde:	d0e0      	beq.n	8002da2 <I2C_ITError+0xba>
 8002de0:	6be0      	ldr	r0, [r4, #60]	@ 0x3c
 8002de2:	e7bb      	b.n	8002d5c <I2C_ITError+0x74>
 8002de4:	ffff0000 	.word	0xffff0000
 8002de8:	080034dd 	.word	0x080034dd
 8002dec:	ffffbfff 	.word	0xffffbfff
 8002df0:	080035f9 	.word	0x080035f9
 8002df4:	00008003 	.word	0x00008003
 8002df8:	ffff7fff 	.word	0xffff7fff

08002dfc <I2C_ITMasterCplt>:
 8002dfc:	b5f7      	push	{r0, r1, r2, r4, r5, r6, r7, lr}
 8002dfe:	2320      	movs	r3, #32
 8002e00:	0005      	movs	r5, r0
 8002e02:	6806      	ldr	r6, [r0, #0]
 8002e04:	3541      	adds	r5, #65	@ 0x41
 8002e06:	61f3      	str	r3, [r6, #28]
 8002e08:	782b      	ldrb	r3, [r5, #0]
 8002e0a:	0004      	movs	r4, r0
 8002e0c:	000f      	movs	r7, r1
 8002e0e:	2b21      	cmp	r3, #33	@ 0x21
 8002e10:	d12b      	bne.n	8002e6a <I2C_ITMasterCplt+0x6e>
 8002e12:	2101      	movs	r1, #1
 8002e14:	f7ff fb5a 	bl	80024cc <I2C_Disable_IRQ>
 8002e18:	2311      	movs	r3, #17
 8002e1a:	6323      	str	r3, [r4, #48]	@ 0x30
 8002e1c:	6873      	ldr	r3, [r6, #4]
 8002e1e:	4a2e      	ldr	r2, [pc, #184]	@ (8002ed8 <I2C_ITMasterCplt+0xdc>)
 8002e20:	4013      	ands	r3, r2
 8002e22:	6073      	str	r3, [r6, #4]
 8002e24:	2300      	movs	r3, #0
 8002e26:	6363      	str	r3, [r4, #52]	@ 0x34
 8002e28:	4b2c      	ldr	r3, [pc, #176]	@ (8002edc <I2C_ITMasterCplt+0xe0>)
 8002e2a:	62e3      	str	r3, [r4, #44]	@ 0x2c
 8002e2c:	2310      	movs	r3, #16
 8002e2e:	421f      	tst	r7, r3
 8002e30:	d004      	beq.n	8002e3c <I2C_ITMasterCplt+0x40>
 8002e32:	61f3      	str	r3, [r6, #28]
 8002e34:	6c62      	ldr	r2, [r4, #68]	@ 0x44
 8002e36:	3b0c      	subs	r3, #12
 8002e38:	4313      	orrs	r3, r2
 8002e3a:	6463      	str	r3, [r4, #68]	@ 0x44
 8002e3c:	782b      	ldrb	r3, [r5, #0]
 8002e3e:	2b60      	cmp	r3, #96	@ 0x60
 8002e40:	d105      	bne.n	8002e4e <I2C_ITMasterCplt+0x52>
 8002e42:	077f      	lsls	r7, r7, #29
 8002e44:	d503      	bpl.n	8002e4e <I2C_ITMasterCplt+0x52>
 8002e46:	6a73      	ldr	r3, [r6, #36]	@ 0x24
 8002e48:	b2db      	uxtb	r3, r3
 8002e4a:	9301      	str	r3, [sp, #4]
 8002e4c:	9b01      	ldr	r3, [sp, #4]
 8002e4e:	0020      	movs	r0, r4
 8002e50:	f7ff fad8 	bl	8002404 <I2C_Flush_TXDR>
 8002e54:	6c63      	ldr	r3, [r4, #68]	@ 0x44
 8002e56:	782a      	ldrb	r2, [r5, #0]
 8002e58:	2a60      	cmp	r2, #96	@ 0x60
 8002e5a:	d001      	beq.n	8002e60 <I2C_ITMasterCplt+0x64>
 8002e5c:	2b00      	cmp	r3, #0
 8002e5e:	d00c      	beq.n	8002e7a <I2C_ITMasterCplt+0x7e>
 8002e60:	0020      	movs	r0, r4
 8002e62:	6c61      	ldr	r1, [r4, #68]	@ 0x44
 8002e64:	f7ff ff40 	bl	8002ce8 <I2C_ITError>
 8002e68:	bdf7      	pop	{r0, r1, r2, r4, r5, r6, r7, pc}
 8002e6a:	782b      	ldrb	r3, [r5, #0]
 8002e6c:	2b22      	cmp	r3, #34	@ 0x22
 8002e6e:	d1d5      	bne.n	8002e1c <I2C_ITMasterCplt+0x20>
 8002e70:	2102      	movs	r1, #2
 8002e72:	f7ff fb2b 	bl	80024cc <I2C_Disable_IRQ>
 8002e76:	2312      	movs	r3, #18
 8002e78:	e7cf      	b.n	8002e1a <I2C_ITMasterCplt+0x1e>
 8002e7a:	782a      	ldrb	r2, [r5, #0]
 8002e7c:	2a21      	cmp	r2, #33	@ 0x21
 8002e7e:	d113      	bne.n	8002ea8 <I2C_ITMasterCplt+0xac>
 8002e80:	3a01      	subs	r2, #1
 8002e82:	702a      	strb	r2, [r5, #0]
 8002e84:	0022      	movs	r2, r4
 8002e86:	0021      	movs	r1, r4
 8002e88:	6323      	str	r3, [r4, #48]	@ 0x30
 8002e8a:	3242      	adds	r2, #66	@ 0x42
 8002e8c:	7810      	ldrb	r0, [r2, #0]
 8002e8e:	3140      	adds	r1, #64	@ 0x40
 8002e90:	7013      	strb	r3, [r2, #0]
 8002e92:	700b      	strb	r3, [r1, #0]
 8002e94:	2840      	cmp	r0, #64	@ 0x40
 8002e96:	d103      	bne.n	8002ea0 <I2C_ITMasterCplt+0xa4>
 8002e98:	0020      	movs	r0, r4
 8002e9a:	f7fd ff0b 	bl	8000cb4 <HAL_I2C_MemTxCpltCallback>
 8002e9e:	e7e3      	b.n	8002e68 <I2C_ITMasterCplt+0x6c>
 8002ea0:	0020      	movs	r0, r4
 8002ea2:	f7ff fe1a 	bl	8002ada <HAL_I2C_MasterTxCpltCallback>
 8002ea6:	e7df      	b.n	8002e68 <I2C_ITMasterCplt+0x6c>
 8002ea8:	782a      	ldrb	r2, [r5, #0]
 8002eaa:	2a22      	cmp	r2, #34	@ 0x22
 8002eac:	d1dc      	bne.n	8002e68 <I2C_ITMasterCplt+0x6c>
 8002eae:	3a02      	subs	r2, #2
 8002eb0:	702a      	strb	r2, [r5, #0]
 8002eb2:	0022      	movs	r2, r4
 8002eb4:	0021      	movs	r1, r4
 8002eb6:	6323      	str	r3, [r4, #48]	@ 0x30
 8002eb8:	3242      	adds	r2, #66	@ 0x42
 8002eba:	7810      	ldrb	r0, [r2, #0]
 8002ebc:	3140      	adds	r1, #64	@ 0x40
 8002ebe:	7013      	strb	r3, [r2, #0]
 8002ec0:	700b      	strb	r3, [r1, #0]
 8002ec2:	2840      	cmp	r0, #64	@ 0x40
 8002ec4:	d103      	bne.n	8002ece <I2C_ITMasterCplt+0xd2>
 8002ec6:	0020      	movs	r0, r4
 8002ec8:	f7ff fef6 	bl	8002cb8 <HAL_I2C_MemRxCpltCallback>
 8002ecc:	e7cc      	b.n	8002e68 <I2C_ITMasterCplt+0x6c>
 8002ece:	0020      	movs	r0, r4
 8002ed0:	f7ff fe04 	bl	8002adc <HAL_I2C_MasterRxCpltCallback>
 8002ed4:	e7c8      	b.n	8002e68 <I2C_ITMasterCplt+0x6c>
 8002ed6:	46c0      	nop			@ (mov r8, r8)
 8002ed8:	fe00e800 	.word	0xfe00e800
 8002edc:	ffff0000 	.word	0xffff0000

08002ee0 <I2C_Mem_ISR_DMA>:
 8002ee0:	b573      	push	{r0, r1, r4, r5, r6, lr}
 8002ee2:	0005      	movs	r5, r0
 8002ee4:	3540      	adds	r5, #64	@ 0x40
 8002ee6:	782b      	ldrb	r3, [r5, #0]
 8002ee8:	0004      	movs	r4, r0
 8002eea:	2002      	movs	r0, #2
 8002eec:	2b01      	cmp	r3, #1
 8002eee:	d015      	beq.n	8002f1c <I2C_Mem_ISR_DMA+0x3c>
 8002ef0:	2301      	movs	r3, #1
 8002ef2:	702b      	strb	r3, [r5, #0]
 8002ef4:	330f      	adds	r3, #15
 8002ef6:	4219      	tst	r1, r3
 8002ef8:	d011      	beq.n	8002f1e <I2C_Mem_ISR_DMA+0x3e>
 8002efa:	421a      	tst	r2, r3
 8002efc:	d00f      	beq.n	8002f1e <I2C_Mem_ISR_DMA+0x3e>
 8002efe:	6822      	ldr	r2, [r4, #0]
 8002f00:	0020      	movs	r0, r4
 8002f02:	61d3      	str	r3, [r2, #28]
 8002f04:	6c62      	ldr	r2, [r4, #68]	@ 0x44
 8002f06:	3b0c      	subs	r3, #12
 8002f08:	4313      	orrs	r3, r2
 8002f0a:	2120      	movs	r1, #32
 8002f0c:	6463      	str	r3, [r4, #68]	@ 0x44
 8002f0e:	f7ff fa9d 	bl	800244c <I2C_Enable_IRQ>
 8002f12:	0020      	movs	r0, r4
 8002f14:	f7ff fa76 	bl	8002404 <I2C_Flush_TXDR>
 8002f18:	2000      	movs	r0, #0
 8002f1a:	7028      	strb	r0, [r5, #0]
 8002f1c:	bd76      	pop	{r1, r2, r4, r5, r6, pc}
 8002f1e:	2302      	movs	r3, #2
 8002f20:	4219      	tst	r1, r3
 8002f22:	d008      	beq.n	8002f36 <I2C_Mem_ISR_DMA+0x56>
 8002f24:	421a      	tst	r2, r3
 8002f26:	d006      	beq.n	8002f36 <I2C_Mem_ISR_DMA+0x56>
 8002f28:	6823      	ldr	r3, [r4, #0]
 8002f2a:	6d22      	ldr	r2, [r4, #80]	@ 0x50
 8002f2c:	629a      	str	r2, [r3, #40]	@ 0x28
 8002f2e:	2301      	movs	r3, #1
 8002f30:	425b      	negs	r3, r3
 8002f32:	6523      	str	r3, [r4, #80]	@ 0x50
 8002f34:	e7f0      	b.n	8002f18 <I2C_Mem_ISR_DMA+0x38>
 8002f36:	2640      	movs	r6, #64	@ 0x40
 8002f38:	060b      	lsls	r3, r1, #24
 8002f3a:	d53b      	bpl.n	8002fb4 <I2C_Mem_ISR_DMA+0xd4>
 8002f3c:	4232      	tst	r2, r6
 8002f3e:	d039      	beq.n	8002fb4 <I2C_Mem_ISR_DMA+0xd4>
 8002f40:	2101      	movs	r1, #1
 8002f42:	0020      	movs	r0, r4
 8002f44:	f7ff fac2 	bl	80024cc <I2C_Disable_IRQ>
 8002f48:	2110      	movs	r1, #16
 8002f4a:	0020      	movs	r0, r4
 8002f4c:	f7ff fa7e 	bl	800244c <I2C_Enable_IRQ>
 8002f50:	8d63      	ldrh	r3, [r4, #42]	@ 0x2a
 8002f52:	2b00      	cmp	r3, #0
 8002f54:	d029      	beq.n	8002faa <I2C_Mem_ISR_DMA+0xca>
 8002f56:	8d63      	ldrh	r3, [r4, #42]	@ 0x2a
 8002f58:	2bff      	cmp	r3, #255	@ 0xff
 8002f5a:	d91b      	bls.n	8002f94 <I2C_Mem_ISR_DMA+0xb4>
 8002f5c:	2300      	movs	r3, #0
 8002f5e:	22ff      	movs	r2, #255	@ 0xff
 8002f60:	6ce1      	ldr	r1, [r4, #76]	@ 0x4c
 8002f62:	8522      	strh	r2, [r4, #40]	@ 0x28
 8002f64:	9300      	str	r3, [sp, #0]
 8002f66:	2380      	movs	r3, #128	@ 0x80
 8002f68:	b289      	uxth	r1, r1
 8002f6a:	045b      	lsls	r3, r3, #17
 8002f6c:	0020      	movs	r0, r4
 8002f6e:	f7ff fa57 	bl	8002420 <I2C_TransferConfig>
 8002f72:	8d63      	ldrh	r3, [r4, #42]	@ 0x2a
 8002f74:	8d22      	ldrh	r2, [r4, #40]	@ 0x28
 8002f76:	1a9b      	subs	r3, r3, r2
 8002f78:	b29b      	uxth	r3, r3
 8002f7a:	8563      	strh	r3, [r4, #42]	@ 0x2a
 8002f7c:	0023      	movs	r3, r4
 8002f7e:	3341      	adds	r3, #65	@ 0x41
 8002f80:	781a      	ldrb	r2, [r3, #0]
 8002f82:	6823      	ldr	r3, [r4, #0]
 8002f84:	6819      	ldr	r1, [r3, #0]
 8002f86:	2a22      	cmp	r2, #34	@ 0x22
 8002f88:	d147      	bne.n	800301a <I2C_Mem_ISR_DMA+0x13a>
 8002f8a:	2280      	movs	r2, #128	@ 0x80
 8002f8c:	0212      	lsls	r2, r2, #8
 8002f8e:	430a      	orrs	r2, r1
 8002f90:	601a      	str	r2, [r3, #0]
 8002f92:	e7c1      	b.n	8002f18 <I2C_Mem_ISR_DMA+0x38>
 8002f94:	2300      	movs	r3, #0
 8002f96:	8d62      	ldrh	r2, [r4, #42]	@ 0x2a
 8002f98:	6ce1      	ldr	r1, [r4, #76]	@ 0x4c
 8002f9a:	b292      	uxth	r2, r2
 8002f9c:	8522      	strh	r2, [r4, #40]	@ 0x28
 8002f9e:	9300      	str	r3, [sp, #0]
 8002fa0:	2380      	movs	r3, #128	@ 0x80
 8002fa2:	b2d2      	uxtb	r2, r2
 8002fa4:	b289      	uxth	r1, r1
 8002fa6:	049b      	lsls	r3, r3, #18
 8002fa8:	e7e0      	b.n	8002f6c <I2C_Mem_ISR_DMA+0x8c>
 8002faa:	0031      	movs	r1, r6
 8002fac:	0020      	movs	r0, r4
 8002fae:	f7ff fe9b 	bl	8002ce8 <I2C_ITError>
 8002fb2:	e7b1      	b.n	8002f18 <I2C_Mem_ISR_DMA+0x38>
 8002fb4:	4231      	tst	r1, r6
 8002fb6:	d033      	beq.n	8003020 <I2C_Mem_ISR_DMA+0x140>
 8002fb8:	4232      	tst	r2, r6
 8002fba:	d031      	beq.n	8003020 <I2C_Mem_ISR_DMA+0x140>
 8002fbc:	0026      	movs	r6, r4
 8002fbe:	2101      	movs	r1, #1
 8002fc0:	0020      	movs	r0, r4
 8002fc2:	f7ff fa83 	bl	80024cc <I2C_Disable_IRQ>
 8002fc6:	3641      	adds	r6, #65	@ 0x41
 8002fc8:	2110      	movs	r1, #16
 8002fca:	0020      	movs	r0, r4
 8002fcc:	f7ff fa3e 	bl	800244c <I2C_Enable_IRQ>
 8002fd0:	7833      	ldrb	r3, [r6, #0]
 8002fd2:	3b22      	subs	r3, #34	@ 0x22
 8002fd4:	425a      	negs	r2, r3
 8002fd6:	4153      	adcs	r3, r2
 8002fd8:	4a17      	ldr	r2, [pc, #92]	@ (8003038 <I2C_Mem_ISR_DMA+0x158>)
 8002fda:	029b      	lsls	r3, r3, #10
 8002fdc:	189b      	adds	r3, r3, r2
 8002fde:	8d62      	ldrh	r2, [r4, #42]	@ 0x2a
 8002fe0:	2aff      	cmp	r2, #255	@ 0xff
 8002fe2:	d910      	bls.n	8003006 <I2C_Mem_ISR_DMA+0x126>
 8002fe4:	22ff      	movs	r2, #255	@ 0xff
 8002fe6:	6ce1      	ldr	r1, [r4, #76]	@ 0x4c
 8002fe8:	8522      	strh	r2, [r4, #40]	@ 0x28
 8002fea:	9300      	str	r3, [sp, #0]
 8002fec:	2380      	movs	r3, #128	@ 0x80
 8002fee:	b289      	uxth	r1, r1
 8002ff0:	045b      	lsls	r3, r3, #17
 8002ff2:	0020      	movs	r0, r4
 8002ff4:	f7ff fa14 	bl	8002420 <I2C_TransferConfig>
 8002ff8:	8d63      	ldrh	r3, [r4, #42]	@ 0x2a
 8002ffa:	8d22      	ldrh	r2, [r4, #40]	@ 0x28
 8002ffc:	1a9b      	subs	r3, r3, r2
 8002ffe:	b29b      	uxth	r3, r3
 8003000:	8563      	strh	r3, [r4, #42]	@ 0x2a
 8003002:	7832      	ldrb	r2, [r6, #0]
 8003004:	e7bd      	b.n	8002f82 <I2C_Mem_ISR_DMA+0xa2>
 8003006:	8d62      	ldrh	r2, [r4, #42]	@ 0x2a
 8003008:	6ce1      	ldr	r1, [r4, #76]	@ 0x4c
 800300a:	b292      	uxth	r2, r2
 800300c:	8522      	strh	r2, [r4, #40]	@ 0x28
 800300e:	9300      	str	r3, [sp, #0]
 8003010:	2380      	movs	r3, #128	@ 0x80
 8003012:	b2d2      	uxtb	r2, r2
 8003014:	b289      	uxth	r1, r1
 8003016:	049b      	lsls	r3, r3, #18
 8003018:	e7eb      	b.n	8002ff2 <I2C_Mem_ISR_DMA+0x112>
 800301a:	2280      	movs	r2, #128	@ 0x80
 800301c:	01d2      	lsls	r2, r2, #7
 800301e:	e7b6      	b.n	8002f8e <I2C_Mem_ISR_DMA+0xae>
 8003020:	2320      	movs	r3, #32
 8003022:	4219      	tst	r1, r3
 8003024:	d100      	bne.n	8003028 <I2C_Mem_ISR_DMA+0x148>
 8003026:	e777      	b.n	8002f18 <I2C_Mem_ISR_DMA+0x38>
 8003028:	421a      	tst	r2, r3
 800302a:	d100      	bne.n	800302e <I2C_Mem_ISR_DMA+0x14e>
 800302c:	e774      	b.n	8002f18 <I2C_Mem_ISR_DMA+0x38>
 800302e:	0020      	movs	r0, r4
 8003030:	f7ff fee4 	bl	8002dfc <I2C_ITMasterCplt>
 8003034:	e770      	b.n	8002f18 <I2C_Mem_ISR_DMA+0x38>
 8003036:	46c0      	nop			@ (mov r8, r8)
 8003038:	80002000 	.word	0x80002000

0800303c <I2C_Master_ISR_DMA>:
 800303c:	b5f7      	push	{r0, r1, r2, r4, r5, r6, r7, lr}
 800303e:	0006      	movs	r6, r0
 8003040:	3640      	adds	r6, #64	@ 0x40
 8003042:	7833      	ldrb	r3, [r6, #0]
 8003044:	0004      	movs	r4, r0
 8003046:	2002      	movs	r0, #2
 8003048:	2b01      	cmp	r3, #1
 800304a:	d015      	beq.n	8003078 <I2C_Master_ISR_DMA+0x3c>
 800304c:	2301      	movs	r3, #1
 800304e:	7033      	strb	r3, [r6, #0]
 8003050:	330f      	adds	r3, #15
 8003052:	4219      	tst	r1, r3
 8003054:	d011      	beq.n	800307a <I2C_Master_ISR_DMA+0x3e>
 8003056:	421a      	tst	r2, r3
 8003058:	d00f      	beq.n	800307a <I2C_Master_ISR_DMA+0x3e>
 800305a:	6822      	ldr	r2, [r4, #0]
 800305c:	0020      	movs	r0, r4
 800305e:	61d3      	str	r3, [r2, #28]
 8003060:	6c62      	ldr	r2, [r4, #68]	@ 0x44
 8003062:	3b0c      	subs	r3, #12
 8003064:	4313      	orrs	r3, r2
 8003066:	2120      	movs	r1, #32
 8003068:	6463      	str	r3, [r4, #68]	@ 0x44
 800306a:	f7ff f9ef 	bl	800244c <I2C_Enable_IRQ>
 800306e:	0020      	movs	r0, r4
 8003070:	f7ff f9c8 	bl	8002404 <I2C_Flush_TXDR>
 8003074:	2000      	movs	r0, #0
 8003076:	7030      	strb	r0, [r6, #0]
 8003078:	bdfe      	pop	{r1, r2, r3, r4, r5, r6, r7, pc}
 800307a:	2340      	movs	r3, #64	@ 0x40
 800307c:	0608      	lsls	r0, r1, #24
 800307e:	d541      	bpl.n	8003104 <I2C_Master_ISR_DMA+0xc8>
 8003080:	421a      	tst	r2, r3
 8003082:	d03f      	beq.n	8003104 <I2C_Master_ISR_DMA+0xc8>
 8003084:	6825      	ldr	r5, [r4, #0]
 8003086:	682a      	ldr	r2, [r5, #0]
 8003088:	439a      	bics	r2, r3
 800308a:	602a      	str	r2, [r5, #0]
 800308c:	8d63      	ldrh	r3, [r4, #42]	@ 0x2a
 800308e:	2b00      	cmp	r3, #0
 8003090:	d02c      	beq.n	80030ec <I2C_Master_ISR_DMA+0xb0>
 8003092:	6869      	ldr	r1, [r5, #4]
 8003094:	8d63      	ldrh	r3, [r4, #42]	@ 0x2a
 8003096:	0589      	lsls	r1, r1, #22
 8003098:	0d89      	lsrs	r1, r1, #22
 800309a:	2bff      	cmp	r3, #255	@ 0xff
 800309c:	d918      	bls.n	80030d0 <I2C_Master_ISR_DMA+0x94>
 800309e:	23ff      	movs	r3, #255	@ 0xff
 80030a0:	8523      	strh	r3, [r4, #40]	@ 0x28
 80030a2:	2380      	movs	r3, #128	@ 0x80
 80030a4:	045b      	lsls	r3, r3, #17
 80030a6:	2000      	movs	r0, #0
 80030a8:	8d27      	ldrh	r7, [r4, #40]	@ 0x28
 80030aa:	9000      	str	r0, [sp, #0]
 80030ac:	b2fa      	uxtb	r2, r7
 80030ae:	0020      	movs	r0, r4
 80030b0:	f7ff f9b6 	bl	8002420 <I2C_TransferConfig>
 80030b4:	8d63      	ldrh	r3, [r4, #42]	@ 0x2a
 80030b6:	1bdb      	subs	r3, r3, r7
 80030b8:	b29b      	uxth	r3, r3
 80030ba:	8563      	strh	r3, [r4, #42]	@ 0x2a
 80030bc:	3441      	adds	r4, #65	@ 0x41
 80030be:	7823      	ldrb	r3, [r4, #0]
 80030c0:	682a      	ldr	r2, [r5, #0]
 80030c2:	2b22      	cmp	r3, #34	@ 0x22
 80030c4:	d10f      	bne.n	80030e6 <I2C_Master_ISR_DMA+0xaa>
 80030c6:	2380      	movs	r3, #128	@ 0x80
 80030c8:	021b      	lsls	r3, r3, #8
 80030ca:	4313      	orrs	r3, r2
 80030cc:	602b      	str	r3, [r5, #0]
 80030ce:	e7d1      	b.n	8003074 <I2C_Master_ISR_DMA+0x38>
 80030d0:	8d63      	ldrh	r3, [r4, #42]	@ 0x2a
 80030d2:	6ae2      	ldr	r2, [r4, #44]	@ 0x2c
 80030d4:	8523      	strh	r3, [r4, #40]	@ 0x28
 80030d6:	4b1a      	ldr	r3, [pc, #104]	@ (8003140 <I2C_Master_ISR_DMA+0x104>)
 80030d8:	429a      	cmp	r2, r3
 80030da:	d001      	beq.n	80030e0 <I2C_Master_ISR_DMA+0xa4>
 80030dc:	6ae3      	ldr	r3, [r4, #44]	@ 0x2c
 80030de:	e7e2      	b.n	80030a6 <I2C_Master_ISR_DMA+0x6a>
 80030e0:	2380      	movs	r3, #128	@ 0x80
 80030e2:	049b      	lsls	r3, r3, #18
 80030e4:	e7df      	b.n	80030a6 <I2C_Master_ISR_DMA+0x6a>
 80030e6:	2380      	movs	r3, #128	@ 0x80
 80030e8:	01db      	lsls	r3, r3, #7
 80030ea:	e7ee      	b.n	80030ca <I2C_Master_ISR_DMA+0x8e>
 80030ec:	686b      	ldr	r3, [r5, #4]
 80030ee:	019b      	lsls	r3, r3, #6
 80030f0:	d403      	bmi.n	80030fa <I2C_Master_ISR_DMA+0xbe>
 80030f2:	0020      	movs	r0, r4
 80030f4:	f7ff fcf3 	bl	8002ade <I2C_ITMasterSeqCplt>
 80030f8:	e7bc      	b.n	8003074 <I2C_Master_ISR_DMA+0x38>
 80030fa:	2140      	movs	r1, #64	@ 0x40
 80030fc:	0020      	movs	r0, r4
 80030fe:	f7ff fdf3 	bl	8002ce8 <I2C_ITError>
 8003102:	e7b7      	b.n	8003074 <I2C_Master_ISR_DMA+0x38>
 8003104:	4219      	tst	r1, r3
 8003106:	d012      	beq.n	800312e <I2C_Master_ISR_DMA+0xf2>
 8003108:	421a      	tst	r2, r3
 800310a:	d010      	beq.n	800312e <I2C_Master_ISR_DMA+0xf2>
 800310c:	8d63      	ldrh	r3, [r4, #42]	@ 0x2a
 800310e:	2b00      	cmp	r3, #0
 8003110:	d1f3      	bne.n	80030fa <I2C_Master_ISR_DMA+0xbe>
 8003112:	6822      	ldr	r2, [r4, #0]
 8003114:	6853      	ldr	r3, [r2, #4]
 8003116:	019b      	lsls	r3, r3, #6
 8003118:	d4ac      	bmi.n	8003074 <I2C_Master_ISR_DMA+0x38>
 800311a:	6ae1      	ldr	r1, [r4, #44]	@ 0x2c
 800311c:	4b08      	ldr	r3, [pc, #32]	@ (8003140 <I2C_Master_ISR_DMA+0x104>)
 800311e:	4299      	cmp	r1, r3
 8003120:	d1e7      	bne.n	80030f2 <I2C_Master_ISR_DMA+0xb6>
 8003122:	2380      	movs	r3, #128	@ 0x80
 8003124:	6851      	ldr	r1, [r2, #4]
 8003126:	01db      	lsls	r3, r3, #7
 8003128:	430b      	orrs	r3, r1
 800312a:	6053      	str	r3, [r2, #4]
 800312c:	e7a2      	b.n	8003074 <I2C_Master_ISR_DMA+0x38>
 800312e:	2320      	movs	r3, #32
 8003130:	4219      	tst	r1, r3
 8003132:	d09f      	beq.n	8003074 <I2C_Master_ISR_DMA+0x38>
 8003134:	421a      	tst	r2, r3
 8003136:	d09d      	beq.n	8003074 <I2C_Master_ISR_DMA+0x38>
 8003138:	0020      	movs	r0, r4
 800313a:	f7ff fe5f 	bl	8002dfc <I2C_ITMasterCplt>
 800313e:	e799      	b.n	8003074 <I2C_Master_ISR_DMA+0x38>
 8003140:	ffff0000 	.word	0xffff0000

08003144 <I2C_DMAError>:
 8003144:	2380      	movs	r3, #128	@ 0x80
 8003146:	6a80      	ldr	r0, [r0, #40]	@ 0x28
 8003148:	b510      	push	{r4, lr}
 800314a:	6802      	ldr	r2, [r0, #0]
 800314c:	021b      	lsls	r3, r3, #8
 800314e:	6851      	ldr	r1, [r2, #4]
 8003150:	430b      	orrs	r3, r1
 8003152:	6053      	str	r3, [r2, #4]
 8003154:	2110      	movs	r1, #16
 8003156:	f7ff fdc7 	bl	8002ce8 <I2C_ITError>
 800315a:	bd10      	pop	{r4, pc}

0800315c <I2C_DMAMasterTransmitCplt>:
 800315c:	b510      	push	{r4, lr}
 800315e:	6a84      	ldr	r4, [r0, #40]	@ 0x28
 8003160:	4911      	ldr	r1, [pc, #68]	@ (80031a8 <I2C_DMAMasterTransmitCplt+0x4c>)
 8003162:	6822      	ldr	r2, [r4, #0]
 8003164:	6813      	ldr	r3, [r2, #0]
 8003166:	400b      	ands	r3, r1
 8003168:	6013      	str	r3, [r2, #0]
 800316a:	8d63      	ldrh	r3, [r4, #42]	@ 0x2a
 800316c:	2120      	movs	r1, #32
 800316e:	2b00      	cmp	r3, #0
 8003170:	d016      	beq.n	80031a0 <I2C_DMAMasterTransmitCplt+0x44>
 8003172:	8d23      	ldrh	r3, [r4, #40]	@ 0x28
 8003174:	6a61      	ldr	r1, [r4, #36]	@ 0x24
 8003176:	8d60      	ldrh	r0, [r4, #42]	@ 0x2a
 8003178:	18c9      	adds	r1, r1, r3
 800317a:	23ff      	movs	r3, #255	@ 0xff
 800317c:	6261      	str	r1, [r4, #36]	@ 0x24
 800317e:	4298      	cmp	r0, r3
 8003180:	d801      	bhi.n	8003186 <I2C_DMAMasterTransmitCplt+0x2a>
 8003182:	8d63      	ldrh	r3, [r4, #42]	@ 0x2a
 8003184:	b29b      	uxth	r3, r3
 8003186:	6ba0      	ldr	r0, [r4, #56]	@ 0x38
 8003188:	8523      	strh	r3, [r4, #40]	@ 0x28
 800318a:	3228      	adds	r2, #40	@ 0x28
 800318c:	f7fe ff80 	bl	8002090 <HAL_DMA_Start_IT>
 8003190:	2800      	cmp	r0, #0
 8003192:	d004      	beq.n	800319e <I2C_DMAMasterTransmitCplt+0x42>
 8003194:	2110      	movs	r1, #16
 8003196:	0020      	movs	r0, r4
 8003198:	f7ff fda6 	bl	8002ce8 <I2C_ITError>
 800319c:	bd10      	pop	{r4, pc}
 800319e:	2140      	movs	r1, #64	@ 0x40
 80031a0:	0020      	movs	r0, r4
 80031a2:	f7ff f953 	bl	800244c <I2C_Enable_IRQ>
 80031a6:	e7f9      	b.n	800319c <I2C_DMAMasterTransmitCplt+0x40>
 80031a8:	ffffbfff 	.word	0xffffbfff

080031ac <HAL_I2C_ER_IRQHandler>:
 80031ac:	b570      	push	{r4, r5, r6, lr}
 80031ae:	2580      	movs	r5, #128	@ 0x80
 80031b0:	6803      	ldr	r3, [r0, #0]
 80031b2:	006d      	lsls	r5, r5, #1
 80031b4:	6999      	ldr	r1, [r3, #24]
 80031b6:	681a      	ldr	r2, [r3, #0]
 80031b8:	4229      	tst	r1, r5
 80031ba:	d006      	beq.n	80031ca <HAL_I2C_ER_IRQHandler+0x1e>
 80031bc:	0614      	lsls	r4, r2, #24
 80031be:	d504      	bpl.n	80031ca <HAL_I2C_ER_IRQHandler+0x1e>
 80031c0:	2401      	movs	r4, #1
 80031c2:	6c46      	ldr	r6, [r0, #68]	@ 0x44
 80031c4:	4334      	orrs	r4, r6
 80031c6:	6444      	str	r4, [r0, #68]	@ 0x44
 80031c8:	61dd      	str	r5, [r3, #28]
 80031ca:	2580      	movs	r5, #128	@ 0x80
 80031cc:	00ed      	lsls	r5, r5, #3
 80031ce:	4229      	tst	r1, r5
 80031d0:	d006      	beq.n	80031e0 <HAL_I2C_ER_IRQHandler+0x34>
 80031d2:	0614      	lsls	r4, r2, #24
 80031d4:	d504      	bpl.n	80031e0 <HAL_I2C_ER_IRQHandler+0x34>
 80031d6:	2408      	movs	r4, #8
 80031d8:	6c46      	ldr	r6, [r0, #68]	@ 0x44
 80031da:	4334      	orrs	r4, r6
 80031dc:	6444      	str	r4, [r0, #68]	@ 0x44
 80031de:	61dd      	str	r5, [r3, #28]
 80031e0:	2480      	movs	r4, #128	@ 0x80
 80031e2:	00a4      	lsls	r4, r4, #2
 80031e4:	4221      	tst	r1, r4
 80031e6:	d006      	beq.n	80031f6 <HAL_I2C_ER_IRQHandler+0x4a>
 80031e8:	0612      	lsls	r2, r2, #24
 80031ea:	d504      	bpl.n	80031f6 <HAL_I2C_ER_IRQHandler+0x4a>
 80031ec:	2202      	movs	r2, #2
 80031ee:	6c41      	ldr	r1, [r0, #68]	@ 0x44
 80031f0:	430a      	orrs	r2, r1
 80031f2:	6442      	str	r2, [r0, #68]	@ 0x44
 80031f4:	61dc      	str	r4, [r3, #28]
 80031f6:	230b      	movs	r3, #11
 80031f8:	6c41      	ldr	r1, [r0, #68]	@ 0x44
 80031fa:	4219      	tst	r1, r3
 80031fc:	d001      	beq.n	8003202 <HAL_I2C_ER_IRQHandler+0x56>
 80031fe:	f7ff fd73 	bl	8002ce8 <I2C_ITError>
 8003202:	bd70      	pop	{r4, r5, r6, pc}

08003204 <I2C_ITSlaveCplt.constprop.0>:
 8003204:	b5f7      	push	{r0, r1, r2, r4, r5, r6, r7, lr}
 8003206:	0006      	movs	r6, r0
 8003208:	2220      	movs	r2, #32
 800320a:	6805      	ldr	r5, [r0, #0]
 800320c:	3641      	adds	r6, #65	@ 0x41
 800320e:	682b      	ldr	r3, [r5, #0]
 8003210:	0004      	movs	r4, r0
 8003212:	9300      	str	r3, [sp, #0]
 8003214:	6ac3      	ldr	r3, [r0, #44]	@ 0x2c
 8003216:	000f      	movs	r7, r1
 8003218:	9301      	str	r3, [sp, #4]
 800321a:	7833      	ldrb	r3, [r6, #0]
 800321c:	61ea      	str	r2, [r5, #28]
 800321e:	b2d8      	uxtb	r0, r3
 8003220:	2b21      	cmp	r3, #33	@ 0x21
 8003222:	d009      	beq.n	8003238 <I2C_ITSlaveCplt.constprop.0+0x34>
 8003224:	3822      	subs	r0, #34	@ 0x22
 8003226:	2808      	cmp	r0, #8
 8003228:	d80c      	bhi.n	8003244 <I2C_ITSlaveCplt.constprop.0+0x40>
 800322a:	f7fc ff6d 	bl	8000108 <__gnu_thumb1_case_uqi>
 800322e:	0b68      	.short	0x0b68
 8003230:	0b0b0b0b 	.word	0x0b0b0b0b
 8003234:	056e      	.short	0x056e
 8003236:	68          	.byte	0x68
 8003237:	00          	.byte	0x00
 8003238:	0020      	movs	r0, r4
 800323a:	495e      	ldr	r1, [pc, #376]	@ (80033b4 <I2C_ITSlaveCplt.constprop.0+0x1b0>)
 800323c:	f7ff f946 	bl	80024cc <I2C_Disable_IRQ>
 8003240:	2321      	movs	r3, #33	@ 0x21
 8003242:	6323      	str	r3, [r4, #48]	@ 0x30
 8003244:	2280      	movs	r2, #128	@ 0x80
 8003246:	686b      	ldr	r3, [r5, #4]
 8003248:	0212      	lsls	r2, r2, #8
 800324a:	4313      	orrs	r3, r2
 800324c:	606b      	str	r3, [r5, #4]
 800324e:	686b      	ldr	r3, [r5, #4]
 8003250:	4a59      	ldr	r2, [pc, #356]	@ (80033b8 <I2C_ITSlaveCplt.constprop.0+0x1b4>)
 8003252:	0020      	movs	r0, r4
 8003254:	4013      	ands	r3, r2
 8003256:	606b      	str	r3, [r5, #4]
 8003258:	f7ff f8d4 	bl	8002404 <I2C_Flush_TXDR>
 800325c:	9b00      	ldr	r3, [sp, #0]
 800325e:	045b      	lsls	r3, r3, #17
 8003260:	d559      	bpl.n	8003316 <I2C_ITSlaveCplt.constprop.0+0x112>
 8003262:	682b      	ldr	r3, [r5, #0]
 8003264:	4a55      	ldr	r2, [pc, #340]	@ (80033bc <I2C_ITSlaveCplt.constprop.0+0x1b8>)
 8003266:	4013      	ands	r3, r2
 8003268:	602b      	str	r3, [r5, #0]
 800326a:	6ba3      	ldr	r3, [r4, #56]	@ 0x38
 800326c:	2b00      	cmp	r3, #0
 800326e:	d003      	beq.n	8003278 <I2C_ITSlaveCplt.constprop.0+0x74>
 8003270:	681b      	ldr	r3, [r3, #0]
 8003272:	685b      	ldr	r3, [r3, #4]
 8003274:	b29b      	uxth	r3, r3
 8003276:	8563      	strh	r3, [r4, #42]	@ 0x2a
 8003278:	077b      	lsls	r3, r7, #29
 800327a:	d510      	bpl.n	800329e <I2C_ITSlaveCplt.constprop.0+0x9a>
 800327c:	6a63      	ldr	r3, [r4, #36]	@ 0x24
 800327e:	6a6a      	ldr	r2, [r5, #36]	@ 0x24
 8003280:	701a      	strb	r2, [r3, #0]
 8003282:	6a63      	ldr	r3, [r4, #36]	@ 0x24
 8003284:	3301      	adds	r3, #1
 8003286:	6263      	str	r3, [r4, #36]	@ 0x24
 8003288:	8d23      	ldrh	r3, [r4, #40]	@ 0x28
 800328a:	2b00      	cmp	r3, #0
 800328c:	d005      	beq.n	800329a <I2C_ITSlaveCplt.constprop.0+0x96>
 800328e:	3b01      	subs	r3, #1
 8003290:	8523      	strh	r3, [r4, #40]	@ 0x28
 8003292:	8d63      	ldrh	r3, [r4, #42]	@ 0x2a
 8003294:	3b01      	subs	r3, #1
 8003296:	b29b      	uxth	r3, r3
 8003298:	8563      	strh	r3, [r4, #42]	@ 0x2a
 800329a:	2304      	movs	r3, #4
 800329c:	439f      	bics	r7, r3
 800329e:	8d63      	ldrh	r3, [r4, #42]	@ 0x2a
 80032a0:	2b00      	cmp	r3, #0
 80032a2:	d003      	beq.n	80032ac <I2C_ITSlaveCplt.constprop.0+0xa8>
 80032a4:	2304      	movs	r3, #4
 80032a6:	6c62      	ldr	r2, [r4, #68]	@ 0x44
 80032a8:	4313      	orrs	r3, r2
 80032aa:	6463      	str	r3, [r4, #68]	@ 0x44
 80032ac:	2310      	movs	r3, #16
 80032ae:	421f      	tst	r7, r3
 80032b0:	d011      	beq.n	80032d6 <I2C_ITSlaveCplt.constprop.0+0xd2>
 80032b2:	9a00      	ldr	r2, [sp, #0]
 80032b4:	421a      	tst	r2, r3
 80032b6:	d00e      	beq.n	80032d6 <I2C_ITSlaveCplt.constprop.0+0xd2>
 80032b8:	8d62      	ldrh	r2, [r4, #42]	@ 0x2a
 80032ba:	2a00      	cmp	r2, #0
 80032bc:	d149      	bne.n	8003352 <I2C_ITSlaveCplt.constprop.0+0x14e>
 80032be:	7833      	ldrb	r3, [r6, #0]
 80032c0:	2b28      	cmp	r3, #40	@ 0x28
 80032c2:	d133      	bne.n	800332c <I2C_ITSlaveCplt.constprop.0+0x128>
 80032c4:	2380      	movs	r3, #128	@ 0x80
 80032c6:	9a01      	ldr	r2, [sp, #4]
 80032c8:	049b      	lsls	r3, r3, #18
 80032ca:	429a      	cmp	r2, r3
 80032cc:	d12e      	bne.n	800332c <I2C_ITSlaveCplt.constprop.0+0x128>
 80032ce:	0039      	movs	r1, r7
 80032d0:	0020      	movs	r0, r4
 80032d2:	f7ff fcbb 	bl	8002c4c <I2C_ITListenCplt>
 80032d6:	0023      	movs	r3, r4
 80032d8:	2200      	movs	r2, #0
 80032da:	3342      	adds	r3, #66	@ 0x42
 80032dc:	701a      	strb	r2, [r3, #0]
 80032de:	6c65      	ldr	r5, [r4, #68]	@ 0x44
 80032e0:	6362      	str	r2, [r4, #52]	@ 0x34
 80032e2:	4295      	cmp	r5, r2
 80032e4:	d044      	beq.n	8003370 <I2C_ITSlaveCplt.constprop.0+0x16c>
 80032e6:	0020      	movs	r0, r4
 80032e8:	6c61      	ldr	r1, [r4, #68]	@ 0x44
 80032ea:	f7ff fcfd 	bl	8002ce8 <I2C_ITError>
 80032ee:	7833      	ldrb	r3, [r6, #0]
 80032f0:	2b28      	cmp	r3, #40	@ 0x28
 80032f2:	d103      	bne.n	80032fc <I2C_ITSlaveCplt.constprop.0+0xf8>
 80032f4:	0039      	movs	r1, r7
 80032f6:	0020      	movs	r0, r4
 80032f8:	f7ff fca8 	bl	8002c4c <I2C_ITListenCplt>
 80032fc:	bdf7      	pop	{r0, r1, r2, r4, r5, r6, r7, pc}
 80032fe:	0020      	movs	r0, r4
 8003300:	492f      	ldr	r1, [pc, #188]	@ (80033c0 <I2C_ITSlaveCplt.constprop.0+0x1bc>)
 8003302:	f7ff f8e3 	bl	80024cc <I2C_Disable_IRQ>
 8003306:	2322      	movs	r3, #34	@ 0x22
 8003308:	e79b      	b.n	8003242 <I2C_ITSlaveCplt.constprop.0+0x3e>
 800330a:	0020      	movs	r0, r4
 800330c:	492d      	ldr	r1, [pc, #180]	@ (80033c4 <I2C_ITSlaveCplt.constprop.0+0x1c0>)
 800330e:	f7ff f8dd 	bl	80024cc <I2C_Disable_IRQ>
 8003312:	2300      	movs	r3, #0
 8003314:	e795      	b.n	8003242 <I2C_ITSlaveCplt.constprop.0+0x3e>
 8003316:	2280      	movs	r2, #128	@ 0x80
 8003318:	9b00      	ldr	r3, [sp, #0]
 800331a:	0212      	lsls	r2, r2, #8
 800331c:	4213      	tst	r3, r2
 800331e:	d0ab      	beq.n	8003278 <I2C_ITSlaveCplt.constprop.0+0x74>
 8003320:	682b      	ldr	r3, [r5, #0]
 8003322:	4a29      	ldr	r2, [pc, #164]	@ (80033c8 <I2C_ITSlaveCplt.constprop.0+0x1c4>)
 8003324:	4013      	ands	r3, r2
 8003326:	602b      	str	r3, [r5, #0]
 8003328:	6be3      	ldr	r3, [r4, #60]	@ 0x3c
 800332a:	e79f      	b.n	800326c <I2C_ITSlaveCplt.constprop.0+0x68>
 800332c:	7831      	ldrb	r1, [r6, #0]
 800332e:	2210      	movs	r2, #16
 8003330:	6823      	ldr	r3, [r4, #0]
 8003332:	2929      	cmp	r1, #41	@ 0x29
 8003334:	d10b      	bne.n	800334e <I2C_ITSlaveCplt.constprop.0+0x14a>
 8003336:	4925      	ldr	r1, [pc, #148]	@ (80033cc <I2C_ITSlaveCplt.constprop.0+0x1c8>)
 8003338:	9801      	ldr	r0, [sp, #4]
 800333a:	4288      	cmp	r0, r1
 800333c:	d007      	beq.n	800334e <I2C_ITSlaveCplt.constprop.0+0x14a>
 800333e:	0020      	movs	r0, r4
 8003340:	61da      	str	r2, [r3, #28]
 8003342:	f7ff f85f 	bl	8002404 <I2C_Flush_TXDR>
 8003346:	0020      	movs	r0, r4
 8003348:	f7ff fbf0 	bl	8002b2c <I2C_ITSlaveSeqCplt>
 800334c:	e7c3      	b.n	80032d6 <I2C_ITSlaveCplt.constprop.0+0xd2>
 800334e:	61da      	str	r2, [r3, #28]
 8003350:	e7c1      	b.n	80032d6 <I2C_ITSlaveCplt.constprop.0+0xd2>
 8003352:	6822      	ldr	r2, [r4, #0]
 8003354:	61d3      	str	r3, [r2, #28]
 8003356:	2304      	movs	r3, #4
 8003358:	6c62      	ldr	r2, [r4, #68]	@ 0x44
 800335a:	4313      	orrs	r3, r2
 800335c:	6463      	str	r3, [r4, #68]	@ 0x44
 800335e:	9a01      	ldr	r2, [sp, #4]
 8003360:	4b1b      	ldr	r3, [pc, #108]	@ (80033d0 <I2C_ITSlaveCplt.constprop.0+0x1cc>)
 8003362:	421a      	tst	r2, r3
 8003364:	d1b7      	bne.n	80032d6 <I2C_ITSlaveCplt.constprop.0+0xd2>
 8003366:	0020      	movs	r0, r4
 8003368:	6c61      	ldr	r1, [r4, #68]	@ 0x44
 800336a:	f7ff fcbd 	bl	8002ce8 <I2C_ITError>
 800336e:	e7b2      	b.n	80032d6 <I2C_ITSlaveCplt.constprop.0+0xd2>
 8003370:	0027      	movs	r7, r4
 8003372:	6ae3      	ldr	r3, [r4, #44]	@ 0x2c
 8003374:	4a15      	ldr	r2, [pc, #84]	@ (80033cc <I2C_ITSlaveCplt.constprop.0+0x1c8>)
 8003376:	3740      	adds	r7, #64	@ 0x40
 8003378:	4293      	cmp	r3, r2
 800337a:	d00c      	beq.n	8003396 <I2C_ITSlaveCplt.constprop.0+0x192>
 800337c:	0020      	movs	r0, r4
 800337e:	f7ff fbd5 	bl	8002b2c <I2C_ITSlaveSeqCplt>
 8003382:	2320      	movs	r3, #32
 8003384:	4a11      	ldr	r2, [pc, #68]	@ (80033cc <I2C_ITSlaveCplt.constprop.0+0x1c8>)
 8003386:	0020      	movs	r0, r4
 8003388:	62e2      	str	r2, [r4, #44]	@ 0x2c
 800338a:	7033      	strb	r3, [r6, #0]
 800338c:	6325      	str	r5, [r4, #48]	@ 0x30
 800338e:	703d      	strb	r5, [r7, #0]
 8003390:	f7ff fc5a 	bl	8002c48 <HAL_I2C_ListenCpltCallback>
 8003394:	e7b2      	b.n	80032fc <I2C_ITSlaveCplt.constprop.0+0xf8>
 8003396:	2320      	movs	r3, #32
 8003398:	7832      	ldrb	r2, [r6, #0]
 800339a:	0020      	movs	r0, r4
 800339c:	7033      	strb	r3, [r6, #0]
 800339e:	6325      	str	r5, [r4, #48]	@ 0x30
 80033a0:	703d      	strb	r5, [r7, #0]
 80033a2:	2a22      	cmp	r2, #34	@ 0x22
 80033a4:	d102      	bne.n	80033ac <I2C_ITSlaveCplt.constprop.0+0x1a8>
 80033a6:	f7ff fbbf 	bl	8002b28 <HAL_I2C_SlaveRxCpltCallback>
 80033aa:	e7a7      	b.n	80032fc <I2C_ITSlaveCplt.constprop.0+0xf8>
 80033ac:	f7ff fbbb 	bl	8002b26 <HAL_I2C_SlaveTxCpltCallback>
 80033b0:	e7a4      	b.n	80032fc <I2C_ITSlaveCplt.constprop.0+0xf8>
 80033b2:	46c0      	nop			@ (mov r8, r8)
 80033b4:	00008001 	.word	0x00008001
 80033b8:	fe00e800 	.word	0xfe00e800
 80033bc:	ffffbfff 	.word	0xffffbfff
 80033c0:	00008002 	.word	0x00008002
 80033c4:	00008003 	.word	0x00008003
 80033c8:	ffff7fff 	.word	0xffff7fff
 80033cc:	ffff0000 	.word	0xffff0000
 80033d0:	feffffff 	.word	0xfeffffff

080033d4 <I2C_Slave_ISR_DMA>:
 80033d4:	b5f8      	push	{r3, r4, r5, r6, r7, lr}
 80033d6:	0005      	movs	r5, r0
 80033d8:	3540      	adds	r5, #64	@ 0x40
 80033da:	782b      	ldrb	r3, [r5, #0]
 80033dc:	0004      	movs	r4, r0
 80033de:	6ac6      	ldr	r6, [r0, #44]	@ 0x2c
 80033e0:	2002      	movs	r0, #2
 80033e2:	2b01      	cmp	r3, #1
 80033e4:	d00b      	beq.n	80033fe <I2C_Slave_ISR_DMA+0x2a>
 80033e6:	2301      	movs	r3, #1
 80033e8:	702b      	strb	r3, [r5, #0]
 80033ea:	331f      	adds	r3, #31
 80033ec:	4219      	tst	r1, r3
 80033ee:	d007      	beq.n	8003400 <I2C_Slave_ISR_DMA+0x2c>
 80033f0:	421a      	tst	r2, r3
 80033f2:	d005      	beq.n	8003400 <I2C_Slave_ISR_DMA+0x2c>
 80033f4:	0020      	movs	r0, r4
 80033f6:	f7ff ff05 	bl	8003204 <I2C_ITSlaveCplt.constprop.0>
 80033fa:	2000      	movs	r0, #0
 80033fc:	7028      	strb	r0, [r5, #0]
 80033fe:	bdf8      	pop	{r3, r4, r5, r6, r7, pc}
 8003400:	2310      	movs	r3, #16
 8003402:	4219      	tst	r1, r3
 8003404:	d05c      	beq.n	80034c0 <I2C_Slave_ISR_DMA+0xec>
 8003406:	421a      	tst	r2, r3
 8003408:	d05a      	beq.n	80034c0 <I2C_Slave_ISR_DMA+0xec>
 800340a:	20c0      	movs	r0, #192	@ 0xc0
 800340c:	0200      	lsls	r0, r0, #8
 800340e:	4202      	tst	r2, r0
 8003410:	d053      	beq.n	80034ba <I2C_Slave_ISR_DMA+0xe6>
 8003412:	6be0      	ldr	r0, [r4, #60]	@ 0x3c
 8003414:	1e03      	subs	r3, r0, #0
 8003416:	d009      	beq.n	800342c <I2C_Slave_ISR_DMA+0x58>
 8003418:	2780      	movs	r7, #128	@ 0x80
 800341a:	0013      	movs	r3, r2
 800341c:	023f      	lsls	r7, r7, #8
 800341e:	403b      	ands	r3, r7
 8003420:	423a      	tst	r2, r7
 8003422:	d003      	beq.n	800342c <I2C_Slave_ISR_DMA+0x58>
 8003424:	6803      	ldr	r3, [r0, #0]
 8003426:	685b      	ldr	r3, [r3, #4]
 8003428:	4258      	negs	r0, r3
 800342a:	4143      	adcs	r3, r0
 800342c:	0020      	movs	r0, r4
 800342e:	6ba7      	ldr	r7, [r4, #56]	@ 0x38
 8003430:	3041      	adds	r0, #65	@ 0x41
 8003432:	2f00      	cmp	r7, #0
 8003434:	d005      	beq.n	8003442 <I2C_Slave_ISR_DMA+0x6e>
 8003436:	0452      	lsls	r2, r2, #17
 8003438:	d503      	bpl.n	8003442 <I2C_Slave_ISR_DMA+0x6e>
 800343a:	683a      	ldr	r2, [r7, #0]
 800343c:	6852      	ldr	r2, [r2, #4]
 800343e:	2a00      	cmp	r2, #0
 8003440:	d001      	beq.n	8003446 <I2C_Slave_ISR_DMA+0x72>
 8003442:	2b01      	cmp	r3, #1
 8003444:	d11a      	bne.n	800347c <I2C_Slave_ISR_DMA+0xa8>
 8003446:	7803      	ldrb	r3, [r0, #0]
 8003448:	2b28      	cmp	r3, #40	@ 0x28
 800344a:	d107      	bne.n	800345c <I2C_Slave_ISR_DMA+0x88>
 800344c:	2380      	movs	r3, #128	@ 0x80
 800344e:	049b      	lsls	r3, r3, #18
 8003450:	429e      	cmp	r6, r3
 8003452:	d103      	bne.n	800345c <I2C_Slave_ISR_DMA+0x88>
 8003454:	0020      	movs	r0, r4
 8003456:	f7ff fbf9 	bl	8002c4c <I2C_ITListenCplt>
 800345a:	e7ce      	b.n	80033fa <I2C_Slave_ISR_DMA+0x26>
 800345c:	2210      	movs	r2, #16
 800345e:	7801      	ldrb	r1, [r0, #0]
 8003460:	6823      	ldr	r3, [r4, #0]
 8003462:	61da      	str	r2, [r3, #28]
 8003464:	2929      	cmp	r1, #41	@ 0x29
 8003466:	d1c8      	bne.n	80033fa <I2C_Slave_ISR_DMA+0x26>
 8003468:	491a      	ldr	r1, [pc, #104]	@ (80034d4 <I2C_Slave_ISR_DMA+0x100>)
 800346a:	428e      	cmp	r6, r1
 800346c:	d0c5      	beq.n	80033fa <I2C_Slave_ISR_DMA+0x26>
 800346e:	0020      	movs	r0, r4
 8003470:	f7fe ffc8 	bl	8002404 <I2C_Flush_TXDR>
 8003474:	0020      	movs	r0, r4
 8003476:	f7ff fb59 	bl	8002b2c <I2C_ITSlaveSeqCplt>
 800347a:	e7be      	b.n	80033fa <I2C_Slave_ISR_DMA+0x26>
 800347c:	2210      	movs	r2, #16
 800347e:	6823      	ldr	r3, [r4, #0]
 8003480:	61da      	str	r2, [r3, #28]
 8003482:	2304      	movs	r3, #4
 8003484:	6c62      	ldr	r2, [r4, #68]	@ 0x44
 8003486:	4313      	orrs	r3, r2
 8003488:	6463      	str	r3, [r4, #68]	@ 0x44
 800348a:	7800      	ldrb	r0, [r0, #0]
 800348c:	4b12      	ldr	r3, [pc, #72]	@ (80034d8 <I2C_Slave_ISR_DMA+0x104>)
 800348e:	b2c0      	uxtb	r0, r0
 8003490:	421e      	tst	r6, r3
 8003492:	d1b2      	bne.n	80033fa <I2C_Slave_ISR_DMA+0x26>
 8003494:	3821      	subs	r0, #33	@ 0x21
 8003496:	2809      	cmp	r0, #9
 8003498:	d808      	bhi.n	80034ac <I2C_Slave_ISR_DMA+0xd8>
 800349a:	f7fc fe35 	bl	8000108 <__gnu_thumb1_case_uqi>
 800349e:	0c05      	.short	0x0c05
 80034a0:	07070707 	.word	0x07070707
 80034a4:	0c050707 	.word	0x0c050707
 80034a8:	2321      	movs	r3, #33	@ 0x21
 80034aa:	6323      	str	r3, [r4, #48]	@ 0x30
 80034ac:	0020      	movs	r0, r4
 80034ae:	6c61      	ldr	r1, [r4, #68]	@ 0x44
 80034b0:	f7ff fc1a 	bl	8002ce8 <I2C_ITError>
 80034b4:	e7a1      	b.n	80033fa <I2C_Slave_ISR_DMA+0x26>
 80034b6:	2322      	movs	r3, #34	@ 0x22
 80034b8:	e7f7      	b.n	80034aa <I2C_Slave_ISR_DMA+0xd6>
 80034ba:	6822      	ldr	r2, [r4, #0]
 80034bc:	61d3      	str	r3, [r2, #28]
 80034be:	e79c      	b.n	80033fa <I2C_Slave_ISR_DMA+0x26>
 80034c0:	2308      	movs	r3, #8
 80034c2:	4219      	tst	r1, r3
 80034c4:	d099      	beq.n	80033fa <I2C_Slave_ISR_DMA+0x26>
 80034c6:	421a      	tst	r2, r3
 80034c8:	d097      	beq.n	80033fa <I2C_Slave_ISR_DMA+0x26>
 80034ca:	0020      	movs	r0, r4
 80034cc:	f7ff fb6f 	bl	8002bae <I2C_ITAddrCplt.constprop.0>
 80034d0:	e793      	b.n	80033fa <I2C_Slave_ISR_DMA+0x26>
 80034d2:	46c0      	nop			@ (mov r8, r8)
 80034d4:	ffff0000 	.word	0xffff0000
 80034d8:	feffffff 	.word	0xfeffffff

080034dc <I2C_Slave_ISR_IT>:
 80034dc:	b570      	push	{r4, r5, r6, lr}
 80034de:	0005      	movs	r5, r0
 80034e0:	3540      	adds	r5, #64	@ 0x40
 80034e2:	782e      	ldrb	r6, [r5, #0]
 80034e4:	0004      	movs	r4, r0
 80034e6:	6ac3      	ldr	r3, [r0, #44]	@ 0x2c
 80034e8:	2002      	movs	r0, #2
 80034ea:	2e01      	cmp	r6, #1
 80034ec:	d00b      	beq.n	8003506 <I2C_Slave_ISR_IT+0x2a>
 80034ee:	3801      	subs	r0, #1
 80034f0:	7028      	strb	r0, [r5, #0]
 80034f2:	301f      	adds	r0, #31
 80034f4:	4201      	tst	r1, r0
 80034f6:	d007      	beq.n	8003508 <I2C_Slave_ISR_IT+0x2c>
 80034f8:	4202      	tst	r2, r0
 80034fa:	d005      	beq.n	8003508 <I2C_Slave_ISR_IT+0x2c>
 80034fc:	0020      	movs	r0, r4
 80034fe:	f7ff fe81 	bl	8003204 <I2C_ITSlaveCplt.constprop.0>
 8003502:	2000      	movs	r0, #0
 8003504:	7028      	strb	r0, [r5, #0]
 8003506:	bd70      	pop	{r4, r5, r6, pc}
 8003508:	2010      	movs	r0, #16
 800350a:	4201      	tst	r1, r0
 800350c:	d02f      	beq.n	800356e <I2C_Slave_ISR_IT+0x92>
 800350e:	4202      	tst	r2, r0
 8003510:	d02d      	beq.n	800356e <I2C_Slave_ISR_IT+0x92>
 8003512:	8d62      	ldrh	r2, [r4, #42]	@ 0x2a
 8003514:	2a00      	cmp	r2, #0
 8003516:	d11c      	bne.n	8003552 <I2C_Slave_ISR_IT+0x76>
 8003518:	0022      	movs	r2, r4
 800351a:	3241      	adds	r2, #65	@ 0x41
 800351c:	7810      	ldrb	r0, [r2, #0]
 800351e:	2828      	cmp	r0, #40	@ 0x28
 8003520:	d107      	bne.n	8003532 <I2C_Slave_ISR_IT+0x56>
 8003522:	2080      	movs	r0, #128	@ 0x80
 8003524:	0480      	lsls	r0, r0, #18
 8003526:	4283      	cmp	r3, r0
 8003528:	d103      	bne.n	8003532 <I2C_Slave_ISR_IT+0x56>
 800352a:	0020      	movs	r0, r4
 800352c:	f7ff fb8e 	bl	8002c4c <I2C_ITListenCplt>
 8003530:	e7e7      	b.n	8003502 <I2C_Slave_ISR_IT+0x26>
 8003532:	2110      	movs	r1, #16
 8003534:	7810      	ldrb	r0, [r2, #0]
 8003536:	6822      	ldr	r2, [r4, #0]
 8003538:	61d1      	str	r1, [r2, #28]
 800353a:	2829      	cmp	r0, #41	@ 0x29
 800353c:	d1e1      	bne.n	8003502 <I2C_Slave_ISR_IT+0x26>
 800353e:	482c      	ldr	r0, [pc, #176]	@ (80035f0 <I2C_Slave_ISR_IT+0x114>)
 8003540:	4283      	cmp	r3, r0
 8003542:	d0de      	beq.n	8003502 <I2C_Slave_ISR_IT+0x26>
 8003544:	0020      	movs	r0, r4
 8003546:	f7fe ff5d 	bl	8002404 <I2C_Flush_TXDR>
 800354a:	0020      	movs	r0, r4
 800354c:	f7ff faee 	bl	8002b2c <I2C_ITSlaveSeqCplt>
 8003550:	e7d7      	b.n	8003502 <I2C_Slave_ISR_IT+0x26>
 8003552:	6822      	ldr	r2, [r4, #0]
 8003554:	61d0      	str	r0, [r2, #28]
 8003556:	2204      	movs	r2, #4
 8003558:	6c61      	ldr	r1, [r4, #68]	@ 0x44
 800355a:	430a      	orrs	r2, r1
 800355c:	6462      	str	r2, [r4, #68]	@ 0x44
 800355e:	4a25      	ldr	r2, [pc, #148]	@ (80035f4 <I2C_Slave_ISR_IT+0x118>)
 8003560:	4213      	tst	r3, r2
 8003562:	d1ce      	bne.n	8003502 <I2C_Slave_ISR_IT+0x26>
 8003564:	0020      	movs	r0, r4
 8003566:	6c61      	ldr	r1, [r4, #68]	@ 0x44
 8003568:	f7ff fbbe 	bl	8002ce8 <I2C_ITError>
 800356c:	e7c9      	b.n	8003502 <I2C_Slave_ISR_IT+0x26>
 800356e:	2004      	movs	r0, #4
 8003570:	4201      	tst	r1, r0
 8003572:	d019      	beq.n	80035a8 <I2C_Slave_ISR_IT+0xcc>
 8003574:	4202      	tst	r2, r0
 8003576:	d017      	beq.n	80035a8 <I2C_Slave_ISR_IT+0xcc>
 8003578:	8d62      	ldrh	r2, [r4, #42]	@ 0x2a
 800357a:	2a00      	cmp	r2, #0
 800357c:	d00d      	beq.n	800359a <I2C_Slave_ISR_IT+0xbe>
 800357e:	6822      	ldr	r2, [r4, #0]
 8003580:	6a51      	ldr	r1, [r2, #36]	@ 0x24
 8003582:	6a62      	ldr	r2, [r4, #36]	@ 0x24
 8003584:	7011      	strb	r1, [r2, #0]
 8003586:	6a62      	ldr	r2, [r4, #36]	@ 0x24
 8003588:	3201      	adds	r2, #1
 800358a:	6262      	str	r2, [r4, #36]	@ 0x24
 800358c:	8d22      	ldrh	r2, [r4, #40]	@ 0x28
 800358e:	3a01      	subs	r2, #1
 8003590:	8522      	strh	r2, [r4, #40]	@ 0x28
 8003592:	8d62      	ldrh	r2, [r4, #42]	@ 0x2a
 8003594:	3a01      	subs	r2, #1
 8003596:	b292      	uxth	r2, r2
 8003598:	8562      	strh	r2, [r4, #42]	@ 0x2a
 800359a:	8d62      	ldrh	r2, [r4, #42]	@ 0x2a
 800359c:	2a00      	cmp	r2, #0
 800359e:	d1b0      	bne.n	8003502 <I2C_Slave_ISR_IT+0x26>
 80035a0:	4a13      	ldr	r2, [pc, #76]	@ (80035f0 <I2C_Slave_ISR_IT+0x114>)
 80035a2:	4293      	cmp	r3, r2
 80035a4:	d0ad      	beq.n	8003502 <I2C_Slave_ISR_IT+0x26>
 80035a6:	e7d0      	b.n	800354a <I2C_Slave_ISR_IT+0x6e>
 80035a8:	2008      	movs	r0, #8
 80035aa:	4201      	tst	r1, r0
 80035ac:	d005      	beq.n	80035ba <I2C_Slave_ISR_IT+0xde>
 80035ae:	4202      	tst	r2, r0
 80035b0:	d003      	beq.n	80035ba <I2C_Slave_ISR_IT+0xde>
 80035b2:	0020      	movs	r0, r4
 80035b4:	f7ff fafb 	bl	8002bae <I2C_ITAddrCplt.constprop.0>
 80035b8:	e7a3      	b.n	8003502 <I2C_Slave_ISR_IT+0x26>
 80035ba:	2002      	movs	r0, #2
 80035bc:	4201      	tst	r1, r0
 80035be:	d0a0      	beq.n	8003502 <I2C_Slave_ISR_IT+0x26>
 80035c0:	4202      	tst	r2, r0
 80035c2:	d09e      	beq.n	8003502 <I2C_Slave_ISR_IT+0x26>
 80035c4:	8d62      	ldrh	r2, [r4, #42]	@ 0x2a
 80035c6:	2a00      	cmp	r2, #0
 80035c8:	d00d      	beq.n	80035e6 <I2C_Slave_ISR_IT+0x10a>
 80035ca:	6a63      	ldr	r3, [r4, #36]	@ 0x24
 80035cc:	6822      	ldr	r2, [r4, #0]
 80035ce:	7819      	ldrb	r1, [r3, #0]
 80035d0:	3301      	adds	r3, #1
 80035d2:	6291      	str	r1, [r2, #40]	@ 0x28
 80035d4:	6263      	str	r3, [r4, #36]	@ 0x24
 80035d6:	8d63      	ldrh	r3, [r4, #42]	@ 0x2a
 80035d8:	3b01      	subs	r3, #1
 80035da:	b29b      	uxth	r3, r3
 80035dc:	8563      	strh	r3, [r4, #42]	@ 0x2a
 80035de:	8d23      	ldrh	r3, [r4, #40]	@ 0x28
 80035e0:	3b01      	subs	r3, #1
 80035e2:	8523      	strh	r3, [r4, #40]	@ 0x28
 80035e4:	e78d      	b.n	8003502 <I2C_Slave_ISR_IT+0x26>
 80035e6:	4a03      	ldr	r2, [pc, #12]	@ (80035f4 <I2C_Slave_ISR_IT+0x118>)
 80035e8:	4213      	tst	r3, r2
 80035ea:	d000      	beq.n	80035ee <I2C_Slave_ISR_IT+0x112>
 80035ec:	e789      	b.n	8003502 <I2C_Slave_ISR_IT+0x26>
 80035ee:	e7ac      	b.n	800354a <I2C_Slave_ISR_IT+0x6e>
 80035f0:	ffff0000 	.word	0xffff0000
 80035f4:	feffffff 	.word	0xfeffffff

080035f8 <I2C_DMAAbort>:
 80035f8:	6a80      	ldr	r0, [r0, #40]	@ 0x28
 80035fa:	b510      	push	{r4, lr}
 80035fc:	6b83      	ldr	r3, [r0, #56]	@ 0x38
 80035fe:	2b00      	cmp	r3, #0
 8003600:	d001      	beq.n	8003606 <I2C_DMAAbort+0xe>
 8003602:	2200      	movs	r2, #0
 8003604:	639a      	str	r2, [r3, #56]	@ 0x38
 8003606:	6bc3      	ldr	r3, [r0, #60]	@ 0x3c
 8003608:	2b00      	cmp	r3, #0
 800360a:	d001      	beq.n	8003610 <I2C_DMAAbort+0x18>
 800360c:	2200      	movs	r2, #0
 800360e:	639a      	str	r2, [r3, #56]	@ 0x38
 8003610:	f7ff fb55 	bl	8002cbe <I2C_TreatErrorCallback>
 8003614:	bd10      	pop	{r4, pc}
	...

08003618 <HAL_I2CEx_ConfigAnalogFilter>:
 8003618:	b5f0      	push	{r4, r5, r6, r7, lr}
 800361a:	0004      	movs	r4, r0
 800361c:	3441      	adds	r4, #65	@ 0x41
 800361e:	7822      	ldrb	r2, [r4, #0]
 8003620:	0003      	movs	r3, r0
 8003622:	000f      	movs	r7, r1
 8003624:	2002      	movs	r0, #2
 8003626:	b2d6      	uxtb	r6, r2
 8003628:	2a20      	cmp	r2, #32
 800362a:	d118      	bne.n	800365e <HAL_I2CEx_ConfigAnalogFilter+0x46>
 800362c:	001d      	movs	r5, r3
 800362e:	3540      	adds	r5, #64	@ 0x40
 8003630:	782a      	ldrb	r2, [r5, #0]
 8003632:	2a01      	cmp	r2, #1
 8003634:	d013      	beq.n	800365e <HAL_I2CEx_ConfigAnalogFilter+0x46>
 8003636:	2224      	movs	r2, #36	@ 0x24
 8003638:	7022      	strb	r2, [r4, #0]
 800363a:	681b      	ldr	r3, [r3, #0]
 800363c:	3a23      	subs	r2, #35	@ 0x23
 800363e:	6819      	ldr	r1, [r3, #0]
 8003640:	4807      	ldr	r0, [pc, #28]	@ (8003660 <HAL_I2CEx_ConfigAnalogFilter+0x48>)
 8003642:	4391      	bics	r1, r2
 8003644:	6019      	str	r1, [r3, #0]
 8003646:	6819      	ldr	r1, [r3, #0]
 8003648:	4001      	ands	r1, r0
 800364a:	2000      	movs	r0, #0
 800364c:	6019      	str	r1, [r3, #0]
 800364e:	6819      	ldr	r1, [r3, #0]
 8003650:	4339      	orrs	r1, r7
 8003652:	6019      	str	r1, [r3, #0]
 8003654:	6819      	ldr	r1, [r3, #0]
 8003656:	430a      	orrs	r2, r1
 8003658:	601a      	str	r2, [r3, #0]
 800365a:	7026      	strb	r6, [r4, #0]
 800365c:	7028      	strb	r0, [r5, #0]
 800365e:	bdf0      	pop	{r4, r5, r6, r7, pc}
 8003660:	ffffefff 	.word	0xffffefff

08003664 <HAL_I2CEx_ConfigDigitalFilter>:
 8003664:	0002      	movs	r2, r0
 8003666:	b5f0      	push	{r4, r5, r6, r7, lr}
 8003668:	3241      	adds	r2, #65	@ 0x41
 800366a:	7814      	ldrb	r4, [r2, #0]
 800366c:	0003      	movs	r3, r0
 800366e:	b2e5      	uxtb	r5, r4
 8003670:	2002      	movs	r0, #2
 8003672:	2c20      	cmp	r4, #32
 8003674:	d117      	bne.n	80036a6 <HAL_I2CEx_ConfigDigitalFilter+0x42>
 8003676:	001c      	movs	r4, r3
 8003678:	3440      	adds	r4, #64	@ 0x40
 800367a:	7826      	ldrb	r6, [r4, #0]
 800367c:	2e01      	cmp	r6, #1
 800367e:	d012      	beq.n	80036a6 <HAL_I2CEx_ConfigDigitalFilter+0x42>
 8003680:	3022      	adds	r0, #34	@ 0x22
 8003682:	7010      	strb	r0, [r2, #0]
 8003684:	681b      	ldr	r3, [r3, #0]
 8003686:	3823      	subs	r0, #35	@ 0x23
 8003688:	681e      	ldr	r6, [r3, #0]
 800368a:	4f07      	ldr	r7, [pc, #28]	@ (80036a8 <HAL_I2CEx_ConfigDigitalFilter+0x44>)
 800368c:	4386      	bics	r6, r0
 800368e:	601e      	str	r6, [r3, #0]
 8003690:	681e      	ldr	r6, [r3, #0]
 8003692:	0209      	lsls	r1, r1, #8
 8003694:	403e      	ands	r6, r7
 8003696:	4331      	orrs	r1, r6
 8003698:	6019      	str	r1, [r3, #0]
 800369a:	6819      	ldr	r1, [r3, #0]
 800369c:	4308      	orrs	r0, r1
 800369e:	6018      	str	r0, [r3, #0]
 80036a0:	2000      	movs	r0, #0
 80036a2:	7015      	strb	r5, [r2, #0]
 80036a4:	7020      	strb	r0, [r4, #0]
 80036a6:	bdf0      	pop	{r4, r5, r6, r7, pc}
 80036a8:	fffff0ff 	.word	0xfffff0ff

080036ac <HAL_RCC_OscConfig>:
 80036ac:	b5f8      	push	{r3, r4, r5, r6, r7, lr}
 80036ae:	1e04      	subs	r4, r0, #0
 80036b0:	d101      	bne.n	80036b6 <HAL_RCC_OscConfig+0xa>
 80036b2:	2001      	movs	r0, #1
 80036b4:	bdf8      	pop	{r3, r4, r5, r6, r7, pc}
 80036b6:	6803      	ldr	r3, [r0, #0]
 80036b8:	07db      	lsls	r3, r3, #31
 80036ba:	d411      	bmi.n	80036e0 <HAL_RCC_OscConfig+0x34>
 80036bc:	6823      	ldr	r3, [r4, #0]
 80036be:	079b      	lsls	r3, r3, #30
 80036c0:	d453      	bmi.n	800376a <HAL_RCC_OscConfig+0xbe>
 80036c2:	6823      	ldr	r3, [r4, #0]
 80036c4:	071b      	lsls	r3, r3, #28
 80036c6:	d500      	bpl.n	80036ca <HAL_RCC_OscConfig+0x1e>
 80036c8:	e0a8      	b.n	800381c <HAL_RCC_OscConfig+0x170>
 80036ca:	2104      	movs	r1, #4
 80036cc:	6823      	ldr	r3, [r4, #0]
 80036ce:	420b      	tst	r3, r1
 80036d0:	d000      	beq.n	80036d4 <HAL_RCC_OscConfig+0x28>
 80036d2:	e0d3      	b.n	800387c <HAL_RCC_OscConfig+0x1d0>
 80036d4:	6823      	ldr	r3, [r4, #0]
 80036d6:	06db      	lsls	r3, r3, #27
 80036d8:	d500      	bpl.n	80036dc <HAL_RCC_OscConfig+0x30>
 80036da:	e10e      	b.n	80038fa <HAL_RCC_OscConfig+0x24e>
 80036dc:	2000      	movs	r0, #0
 80036de:	e7e9      	b.n	80036b4 <HAL_RCC_OscConfig+0x8>
 80036e0:	2138      	movs	r1, #56	@ 0x38
 80036e2:	4d9b      	ldr	r5, [pc, #620]	@ (8003950 <HAL_RCC_OscConfig+0x2a4>)
 80036e4:	6843      	ldr	r3, [r0, #4]
 80036e6:	68aa      	ldr	r2, [r5, #8]
 80036e8:	400a      	ands	r2, r1
 80036ea:	2a08      	cmp	r2, #8
 80036ec:	d102      	bne.n	80036f4 <HAL_RCC_OscConfig+0x48>
 80036ee:	2b00      	cmp	r3, #0
 80036f0:	d1e4      	bne.n	80036bc <HAL_RCC_OscConfig+0x10>
 80036f2:	e7de      	b.n	80036b2 <HAL_RCC_OscConfig+0x6>
 80036f4:	2280      	movs	r2, #128	@ 0x80
 80036f6:	0252      	lsls	r2, r2, #9
 80036f8:	4293      	cmp	r3, r2
 80036fa:	d111      	bne.n	8003720 <HAL_RCC_OscConfig+0x74>
 80036fc:	682a      	ldr	r2, [r5, #0]
 80036fe:	4313      	orrs	r3, r2
 8003700:	602b      	str	r3, [r5, #0]
 8003702:	f7fe f89b 	bl	800183c <HAL_GetTick>
 8003706:	2780      	movs	r7, #128	@ 0x80
 8003708:	0006      	movs	r6, r0
 800370a:	02bf      	lsls	r7, r7, #10
 800370c:	682b      	ldr	r3, [r5, #0]
 800370e:	423b      	tst	r3, r7
 8003710:	d1d4      	bne.n	80036bc <HAL_RCC_OscConfig+0x10>
 8003712:	f7fe f893 	bl	800183c <HAL_GetTick>
 8003716:	1b80      	subs	r0, r0, r6
 8003718:	2864      	cmp	r0, #100	@ 0x64
 800371a:	d9f7      	bls.n	800370c <HAL_RCC_OscConfig+0x60>
 800371c:	2003      	movs	r0, #3
 800371e:	e7c9      	b.n	80036b4 <HAL_RCC_OscConfig+0x8>
 8003720:	21a0      	movs	r1, #160	@ 0xa0
 8003722:	02c9      	lsls	r1, r1, #11
 8003724:	428b      	cmp	r3, r1
 8003726:	d108      	bne.n	800373a <HAL_RCC_OscConfig+0x8e>
 8003728:	2380      	movs	r3, #128	@ 0x80
 800372a:	6829      	ldr	r1, [r5, #0]
 800372c:	02db      	lsls	r3, r3, #11
 800372e:	430b      	orrs	r3, r1
 8003730:	602b      	str	r3, [r5, #0]
 8003732:	682b      	ldr	r3, [r5, #0]
 8003734:	431a      	orrs	r2, r3
 8003736:	602a      	str	r2, [r5, #0]
 8003738:	e7e3      	b.n	8003702 <HAL_RCC_OscConfig+0x56>
 800373a:	682a      	ldr	r2, [r5, #0]
 800373c:	4985      	ldr	r1, [pc, #532]	@ (8003954 <HAL_RCC_OscConfig+0x2a8>)
 800373e:	400a      	ands	r2, r1
 8003740:	602a      	str	r2, [r5, #0]
 8003742:	682a      	ldr	r2, [r5, #0]
 8003744:	4984      	ldr	r1, [pc, #528]	@ (8003958 <HAL_RCC_OscConfig+0x2ac>)
 8003746:	400a      	ands	r2, r1
 8003748:	602a      	str	r2, [r5, #0]
 800374a:	2b00      	cmp	r3, #0
 800374c:	d1d9      	bne.n	8003702 <HAL_RCC_OscConfig+0x56>
 800374e:	f7fe f875 	bl	800183c <HAL_GetTick>
 8003752:	2780      	movs	r7, #128	@ 0x80
 8003754:	0006      	movs	r6, r0
 8003756:	02bf      	lsls	r7, r7, #10
 8003758:	682b      	ldr	r3, [r5, #0]
 800375a:	423b      	tst	r3, r7
 800375c:	d0ae      	beq.n	80036bc <HAL_RCC_OscConfig+0x10>
 800375e:	f7fe f86d 	bl	800183c <HAL_GetTick>
 8003762:	1b80      	subs	r0, r0, r6
 8003764:	2864      	cmp	r0, #100	@ 0x64
 8003766:	d9f7      	bls.n	8003758 <HAL_RCC_OscConfig+0xac>
 8003768:	e7d8      	b.n	800371c <HAL_RCC_OscConfig+0x70>
 800376a:	2238      	movs	r2, #56	@ 0x38
 800376c:	4d78      	ldr	r5, [pc, #480]	@ (8003950 <HAL_RCC_OscConfig+0x2a4>)
 800376e:	68e3      	ldr	r3, [r4, #12]
 8003770:	68a9      	ldr	r1, [r5, #8]
 8003772:	4211      	tst	r1, r2
 8003774:	d11c      	bne.n	80037b0 <HAL_RCC_OscConfig+0x104>
 8003776:	2b00      	cmp	r3, #0
 8003778:	d09b      	beq.n	80036b2 <HAL_RCC_OscConfig+0x6>
 800377a:	686a      	ldr	r2, [r5, #4]
 800377c:	6963      	ldr	r3, [r4, #20]
 800377e:	4977      	ldr	r1, [pc, #476]	@ (800395c <HAL_RCC_OscConfig+0x2b0>)
 8003780:	021b      	lsls	r3, r3, #8
 8003782:	400a      	ands	r2, r1
 8003784:	4313      	orrs	r3, r2
 8003786:	606b      	str	r3, [r5, #4]
 8003788:	682b      	ldr	r3, [r5, #0]
 800378a:	4a75      	ldr	r2, [pc, #468]	@ (8003960 <HAL_RCC_OscConfig+0x2b4>)
 800378c:	4975      	ldr	r1, [pc, #468]	@ (8003964 <HAL_RCC_OscConfig+0x2b8>)
 800378e:	4013      	ands	r3, r2
 8003790:	6922      	ldr	r2, [r4, #16]
 8003792:	4313      	orrs	r3, r2
 8003794:	602b      	str	r3, [r5, #0]
 8003796:	682b      	ldr	r3, [r5, #0]
 8003798:	4a73      	ldr	r2, [pc, #460]	@ (8003968 <HAL_RCC_OscConfig+0x2bc>)
 800379a:	049b      	lsls	r3, r3, #18
 800379c:	0f5b      	lsrs	r3, r3, #29
 800379e:	40da      	lsrs	r2, r3
 80037a0:	4b72      	ldr	r3, [pc, #456]	@ (800396c <HAL_RCC_OscConfig+0x2c0>)
 80037a2:	600a      	str	r2, [r1, #0]
 80037a4:	6818      	ldr	r0, [r3, #0]
 80037a6:	f7fe f809 	bl	80017bc <HAL_InitTick>
 80037aa:	2800      	cmp	r0, #0
 80037ac:	d089      	beq.n	80036c2 <HAL_RCC_OscConfig+0x16>
 80037ae:	e780      	b.n	80036b2 <HAL_RCC_OscConfig+0x6>
 80037b0:	2b00      	cmp	r3, #0
 80037b2:	d020      	beq.n	80037f6 <HAL_RCC_OscConfig+0x14a>
 80037b4:	682b      	ldr	r3, [r5, #0]
 80037b6:	4a6a      	ldr	r2, [pc, #424]	@ (8003960 <HAL_RCC_OscConfig+0x2b4>)
 80037b8:	2780      	movs	r7, #128	@ 0x80
 80037ba:	4013      	ands	r3, r2
 80037bc:	6922      	ldr	r2, [r4, #16]
 80037be:	00ff      	lsls	r7, r7, #3
 80037c0:	4313      	orrs	r3, r2
 80037c2:	602b      	str	r3, [r5, #0]
 80037c4:	2380      	movs	r3, #128	@ 0x80
 80037c6:	682a      	ldr	r2, [r5, #0]
 80037c8:	005b      	lsls	r3, r3, #1
 80037ca:	4313      	orrs	r3, r2
 80037cc:	602b      	str	r3, [r5, #0]
 80037ce:	f7fe f835 	bl	800183c <HAL_GetTick>
 80037d2:	0006      	movs	r6, r0
 80037d4:	682b      	ldr	r3, [r5, #0]
 80037d6:	423b      	tst	r3, r7
 80037d8:	d007      	beq.n	80037ea <HAL_RCC_OscConfig+0x13e>
 80037da:	686a      	ldr	r2, [r5, #4]
 80037dc:	6963      	ldr	r3, [r4, #20]
 80037de:	495f      	ldr	r1, [pc, #380]	@ (800395c <HAL_RCC_OscConfig+0x2b0>)
 80037e0:	021b      	lsls	r3, r3, #8
 80037e2:	400a      	ands	r2, r1
 80037e4:	4313      	orrs	r3, r2
 80037e6:	606b      	str	r3, [r5, #4]
 80037e8:	e76b      	b.n	80036c2 <HAL_RCC_OscConfig+0x16>
 80037ea:	f7fe f827 	bl	800183c <HAL_GetTick>
 80037ee:	1b80      	subs	r0, r0, r6
 80037f0:	2802      	cmp	r0, #2
 80037f2:	d9ef      	bls.n	80037d4 <HAL_RCC_OscConfig+0x128>
 80037f4:	e792      	b.n	800371c <HAL_RCC_OscConfig+0x70>
 80037f6:	682b      	ldr	r3, [r5, #0]
 80037f8:	4a5d      	ldr	r2, [pc, #372]	@ (8003970 <HAL_RCC_OscConfig+0x2c4>)
 80037fa:	2780      	movs	r7, #128	@ 0x80
 80037fc:	4013      	ands	r3, r2
 80037fe:	602b      	str	r3, [r5, #0]
 8003800:	f7fe f81c 	bl	800183c <HAL_GetTick>
 8003804:	0006      	movs	r6, r0
 8003806:	00ff      	lsls	r7, r7, #3
 8003808:	682b      	ldr	r3, [r5, #0]
 800380a:	423b      	tst	r3, r7
 800380c:	d100      	bne.n	8003810 <HAL_RCC_OscConfig+0x164>
 800380e:	e758      	b.n	80036c2 <HAL_RCC_OscConfig+0x16>
 8003810:	f7fe f814 	bl	800183c <HAL_GetTick>
 8003814:	1b80      	subs	r0, r0, r6
 8003816:	2802      	cmp	r0, #2
 8003818:	d9f6      	bls.n	8003808 <HAL_RCC_OscConfig+0x15c>
 800381a:	e77f      	b.n	800371c <HAL_RCC_OscConfig+0x70>
 800381c:	2138      	movs	r1, #56	@ 0x38
 800381e:	4d4c      	ldr	r5, [pc, #304]	@ (8003950 <HAL_RCC_OscConfig+0x2a4>)
 8003820:	69a2      	ldr	r2, [r4, #24]
 8003822:	68ab      	ldr	r3, [r5, #8]
 8003824:	400b      	ands	r3, r1
 8003826:	2b18      	cmp	r3, #24
 8003828:	d103      	bne.n	8003832 <HAL_RCC_OscConfig+0x186>
 800382a:	2a00      	cmp	r2, #0
 800382c:	d000      	beq.n	8003830 <HAL_RCC_OscConfig+0x184>
 800382e:	e74c      	b.n	80036ca <HAL_RCC_OscConfig+0x1e>
 8003830:	e73f      	b.n	80036b2 <HAL_RCC_OscConfig+0x6>
 8003832:	2301      	movs	r3, #1
 8003834:	2a00      	cmp	r2, #0
 8003836:	d010      	beq.n	800385a <HAL_RCC_OscConfig+0x1ae>
 8003838:	6e2a      	ldr	r2, [r5, #96]	@ 0x60
 800383a:	2702      	movs	r7, #2
 800383c:	4313      	orrs	r3, r2
 800383e:	662b      	str	r3, [r5, #96]	@ 0x60
 8003840:	f7fd fffc 	bl	800183c <HAL_GetTick>
 8003844:	0006      	movs	r6, r0
 8003846:	6e2b      	ldr	r3, [r5, #96]	@ 0x60
 8003848:	423b      	tst	r3, r7
 800384a:	d000      	beq.n	800384e <HAL_RCC_OscConfig+0x1a2>
 800384c:	e73d      	b.n	80036ca <HAL_RCC_OscConfig+0x1e>
 800384e:	f7fd fff5 	bl	800183c <HAL_GetTick>
 8003852:	1b80      	subs	r0, r0, r6
 8003854:	2802      	cmp	r0, #2
 8003856:	d9f6      	bls.n	8003846 <HAL_RCC_OscConfig+0x19a>
 8003858:	e760      	b.n	800371c <HAL_RCC_OscConfig+0x70>
 800385a:	6e2a      	ldr	r2, [r5, #96]	@ 0x60
 800385c:	2702      	movs	r7, #2
 800385e:	439a      	bics	r2, r3
 8003860:	662a      	str	r2, [r5, #96]	@ 0x60
 8003862:	f7fd ffeb 	bl	800183c <HAL_GetTick>
 8003866:	0006      	movs	r6, r0
 8003868:	6e2b      	ldr	r3, [r5, #96]	@ 0x60
 800386a:	423b      	tst	r3, r7
 800386c:	d100      	bne.n	8003870 <HAL_RCC_OscConfig+0x1c4>
 800386e:	e72c      	b.n	80036ca <HAL_RCC_OscConfig+0x1e>
 8003870:	f7fd ffe4 	bl	800183c <HAL_GetTick>
 8003874:	1b80      	subs	r0, r0, r6
 8003876:	2802      	cmp	r0, #2
 8003878:	d9f6      	bls.n	8003868 <HAL_RCC_OscConfig+0x1bc>
 800387a:	e74f      	b.n	800371c <HAL_RCC_OscConfig+0x70>
 800387c:	2038      	movs	r0, #56	@ 0x38
 800387e:	4d34      	ldr	r5, [pc, #208]	@ (8003950 <HAL_RCC_OscConfig+0x2a4>)
 8003880:	68a3      	ldr	r3, [r4, #8]
 8003882:	68aa      	ldr	r2, [r5, #8]
 8003884:	4002      	ands	r2, r0
 8003886:	2a20      	cmp	r2, #32
 8003888:	d103      	bne.n	8003892 <HAL_RCC_OscConfig+0x1e6>
 800388a:	2b00      	cmp	r3, #0
 800388c:	d000      	beq.n	8003890 <HAL_RCC_OscConfig+0x1e4>
 800388e:	e721      	b.n	80036d4 <HAL_RCC_OscConfig+0x28>
 8003890:	e70f      	b.n	80036b2 <HAL_RCC_OscConfig+0x6>
 8003892:	2b01      	cmp	r3, #1
 8003894:	d111      	bne.n	80038ba <HAL_RCC_OscConfig+0x20e>
 8003896:	6dea      	ldr	r2, [r5, #92]	@ 0x5c
 8003898:	4313      	orrs	r3, r2
 800389a:	65eb      	str	r3, [r5, #92]	@ 0x5c
 800389c:	f7fd ffce 	bl	800183c <HAL_GetTick>
 80038a0:	2702      	movs	r7, #2
 80038a2:	0006      	movs	r6, r0
 80038a4:	6deb      	ldr	r3, [r5, #92]	@ 0x5c
 80038a6:	423b      	tst	r3, r7
 80038a8:	d000      	beq.n	80038ac <HAL_RCC_OscConfig+0x200>
 80038aa:	e713      	b.n	80036d4 <HAL_RCC_OscConfig+0x28>
 80038ac:	f7fd ffc6 	bl	800183c <HAL_GetTick>
 80038b0:	4b30      	ldr	r3, [pc, #192]	@ (8003974 <HAL_RCC_OscConfig+0x2c8>)
 80038b2:	1b80      	subs	r0, r0, r6
 80038b4:	4298      	cmp	r0, r3
 80038b6:	d9f5      	bls.n	80038a4 <HAL_RCC_OscConfig+0x1f8>
 80038b8:	e730      	b.n	800371c <HAL_RCC_OscConfig+0x70>
 80038ba:	2b05      	cmp	r3, #5
 80038bc:	d105      	bne.n	80038ca <HAL_RCC_OscConfig+0x21e>
 80038be:	6deb      	ldr	r3, [r5, #92]	@ 0x5c
 80038c0:	430b      	orrs	r3, r1
 80038c2:	65eb      	str	r3, [r5, #92]	@ 0x5c
 80038c4:	6dea      	ldr	r2, [r5, #92]	@ 0x5c
 80038c6:	2301      	movs	r3, #1
 80038c8:	e7e6      	b.n	8003898 <HAL_RCC_OscConfig+0x1ec>
 80038ca:	2001      	movs	r0, #1
 80038cc:	6dea      	ldr	r2, [r5, #92]	@ 0x5c
 80038ce:	4382      	bics	r2, r0
 80038d0:	65ea      	str	r2, [r5, #92]	@ 0x5c
 80038d2:	6dea      	ldr	r2, [r5, #92]	@ 0x5c
 80038d4:	438a      	bics	r2, r1
 80038d6:	65ea      	str	r2, [r5, #92]	@ 0x5c
 80038d8:	2b00      	cmp	r3, #0
 80038da:	d1df      	bne.n	800389c <HAL_RCC_OscConfig+0x1f0>
 80038dc:	f7fd ffae 	bl	800183c <HAL_GetTick>
 80038e0:	2702      	movs	r7, #2
 80038e2:	0006      	movs	r6, r0
 80038e4:	6deb      	ldr	r3, [r5, #92]	@ 0x5c
 80038e6:	423b      	tst	r3, r7
 80038e8:	d100      	bne.n	80038ec <HAL_RCC_OscConfig+0x240>
 80038ea:	e6f3      	b.n	80036d4 <HAL_RCC_OscConfig+0x28>
 80038ec:	f7fd ffa6 	bl	800183c <HAL_GetTick>
 80038f0:	4b20      	ldr	r3, [pc, #128]	@ (8003974 <HAL_RCC_OscConfig+0x2c8>)
 80038f2:	1b80      	subs	r0, r0, r6
 80038f4:	4298      	cmp	r0, r3
 80038f6:	d9f5      	bls.n	80038e4 <HAL_RCC_OscConfig+0x238>
 80038f8:	e710      	b.n	800371c <HAL_RCC_OscConfig+0x70>
 80038fa:	69e3      	ldr	r3, [r4, #28]
 80038fc:	4c14      	ldr	r4, [pc, #80]	@ (8003950 <HAL_RCC_OscConfig+0x2a4>)
 80038fe:	2b00      	cmp	r3, #0
 8003900:	d013      	beq.n	800392a <HAL_RCC_OscConfig+0x27e>
 8003902:	2380      	movs	r3, #128	@ 0x80
 8003904:	6822      	ldr	r2, [r4, #0]
 8003906:	03db      	lsls	r3, r3, #15
 8003908:	4313      	orrs	r3, r2
 800390a:	6023      	str	r3, [r4, #0]
 800390c:	f7fd ff96 	bl	800183c <HAL_GetTick>
 8003910:	2680      	movs	r6, #128	@ 0x80
 8003912:	0005      	movs	r5, r0
 8003914:	0436      	lsls	r6, r6, #16
 8003916:	6823      	ldr	r3, [r4, #0]
 8003918:	4233      	tst	r3, r6
 800391a:	d000      	beq.n	800391e <HAL_RCC_OscConfig+0x272>
 800391c:	e6de      	b.n	80036dc <HAL_RCC_OscConfig+0x30>
 800391e:	f7fd ff8d 	bl	800183c <HAL_GetTick>
 8003922:	1b40      	subs	r0, r0, r5
 8003924:	2802      	cmp	r0, #2
 8003926:	d9f6      	bls.n	8003916 <HAL_RCC_OscConfig+0x26a>
 8003928:	e6f8      	b.n	800371c <HAL_RCC_OscConfig+0x70>
 800392a:	6823      	ldr	r3, [r4, #0]
 800392c:	4a12      	ldr	r2, [pc, #72]	@ (8003978 <HAL_RCC_OscConfig+0x2cc>)
 800392e:	2680      	movs	r6, #128	@ 0x80
 8003930:	4013      	ands	r3, r2
 8003932:	6023      	str	r3, [r4, #0]
 8003934:	f7fd ff82 	bl	800183c <HAL_GetTick>
 8003938:	0005      	movs	r5, r0
 800393a:	0436      	lsls	r6, r6, #16
 800393c:	6823      	ldr	r3, [r4, #0]
 800393e:	4233      	tst	r3, r6
 8003940:	d100      	bne.n	8003944 <HAL_RCC_OscConfig+0x298>
 8003942:	e6cb      	b.n	80036dc <HAL_RCC_OscConfig+0x30>
 8003944:	f7fd ff7a 	bl	800183c <HAL_GetTick>
 8003948:	1b40      	subs	r0, r0, r5
 800394a:	2802      	cmp	r0, #2
 800394c:	d9f6      	bls.n	800393c <HAL_RCC_OscConfig+0x290>
 800394e:	e6e5      	b.n	800371c <HAL_RCC_OscConfig+0x70>
 8003950:	40021000 	.word	0x40021000
 8003954:	fffeffff 	.word	0xfffeffff
 8003958:	fffbffff 	.word	0xfffbffff
 800395c:	ffff80ff 	.word	0xffff80ff
 8003960:	ffffc7ff 	.word	0xffffc7ff
 8003964:	20000068 	.word	0x20000068
 8003968:	02dc6c00 	.word	0x02dc6c00
 800396c:	20000070 	.word	0x20000070
 8003970:	fffffeff 	.word	0xfffffeff
 8003974:	00001388 	.word	0x00001388
 8003978:	ffbfffff 	.word	0xffbfffff

0800397c <HAL_RCC_GetSysClockFreq>:
 800397c:	2007      	movs	r0, #7
 800397e:	2238      	movs	r2, #56	@ 0x38
 8003980:	4b17      	ldr	r3, [pc, #92]	@ (80039e0 <HAL_RCC_GetSysClockFreq+0x64>)
 8003982:	b510      	push	{r4, lr}
 8003984:	6819      	ldr	r1, [r3, #0]
 8003986:	689c      	ldr	r4, [r3, #8]
 8003988:	0889      	lsrs	r1, r1, #2
 800398a:	4001      	ands	r1, r0
 800398c:	3101      	adds	r1, #1
 800398e:	4214      	tst	r4, r2
 8003990:	d107      	bne.n	80039a2 <HAL_RCC_GetSysClockFreq+0x26>
 8003992:	681b      	ldr	r3, [r3, #0]
 8003994:	0adb      	lsrs	r3, r3, #11
 8003996:	4003      	ands	r3, r0
 8003998:	4812      	ldr	r0, [pc, #72]	@ (80039e4 <HAL_RCC_GetSysClockFreq+0x68>)
 800399a:	40d8      	lsrs	r0, r3
 800399c:	f7fc fbc8 	bl	8000130 <__udivsi3>
 80039a0:	bd10      	pop	{r4, pc}
 80039a2:	6898      	ldr	r0, [r3, #8]
 80039a4:	4010      	ands	r0, r2
 80039a6:	2808      	cmp	r0, #8
 80039a8:	d012      	beq.n	80039d0 <HAL_RCC_GetSysClockFreq+0x54>
 80039aa:	6898      	ldr	r0, [r3, #8]
 80039ac:	4010      	ands	r0, r2
 80039ae:	2820      	cmp	r0, #32
 80039b0:	d010      	beq.n	80039d4 <HAL_RCC_GetSysClockFreq+0x58>
 80039b2:	6898      	ldr	r0, [r3, #8]
 80039b4:	4010      	ands	r0, r2
 80039b6:	2818      	cmp	r0, #24
 80039b8:	d00f      	beq.n	80039da <HAL_RCC_GetSysClockFreq+0x5e>
 80039ba:	6898      	ldr	r0, [r3, #8]
 80039bc:	4010      	ands	r0, r2
 80039be:	3810      	subs	r0, #16
 80039c0:	1e43      	subs	r3, r0, #1
 80039c2:	4198      	sbcs	r0, r3
 80039c4:	4b08      	ldr	r3, [pc, #32]	@ (80039e8 <HAL_RCC_GetSysClockFreq+0x6c>)
 80039c6:	4240      	negs	r0, r0
 80039c8:	4018      	ands	r0, r3
 80039ca:	4b06      	ldr	r3, [pc, #24]	@ (80039e4 <HAL_RCC_GetSysClockFreq+0x68>)
 80039cc:	18c0      	adds	r0, r0, r3
 80039ce:	e7e5      	b.n	800399c <HAL_RCC_GetSysClockFreq+0x20>
 80039d0:	4806      	ldr	r0, [pc, #24]	@ (80039ec <HAL_RCC_GetSysClockFreq+0x70>)
 80039d2:	e7e3      	b.n	800399c <HAL_RCC_GetSysClockFreq+0x20>
 80039d4:	2080      	movs	r0, #128	@ 0x80
 80039d6:	0200      	lsls	r0, r0, #8
 80039d8:	e7e0      	b.n	800399c <HAL_RCC_GetSysClockFreq+0x20>
 80039da:	20fa      	movs	r0, #250	@ 0xfa
 80039dc:	01c0      	lsls	r0, r0, #7
 80039de:	e7dd      	b.n	800399c <HAL_RCC_GetSysClockFreq+0x20>
 80039e0:	40021000 	.word	0x40021000
 80039e4:	02dc6c00 	.word	0x02dc6c00
 80039e8:	fd239400 	.word	0xfd239400
 80039ec:	007a1200 	.word	0x007a1200

080039f0 <HAL_RCC_ClockConfig>:
 80039f0:	b5f7      	push	{r0, r1, r2, r4, r5, r6, r7, lr}
 80039f2:	0004      	movs	r4, r0
 80039f4:	000d      	movs	r5, r1
 80039f6:	2800      	cmp	r0, #0
 80039f8:	d101      	bne.n	80039fe <HAL_RCC_ClockConfig+0xe>
 80039fa:	2001      	movs	r0, #1
 80039fc:	bdfe      	pop	{r1, r2, r3, r4, r5, r6, r7, pc}
 80039fe:	2707      	movs	r7, #7
 8003a00:	4e4e      	ldr	r6, [pc, #312]	@ (8003b3c <HAL_RCC_ClockConfig+0x14c>)
 8003a02:	6833      	ldr	r3, [r6, #0]
 8003a04:	403b      	ands	r3, r7
 8003a06:	428b      	cmp	r3, r1
 8003a08:	d32a      	bcc.n	8003a60 <HAL_RCC_ClockConfig+0x70>
 8003a0a:	6822      	ldr	r2, [r4, #0]
 8003a0c:	0793      	lsls	r3, r2, #30
 8003a0e:	d43b      	bmi.n	8003a88 <HAL_RCC_ClockConfig+0x98>
 8003a10:	07d2      	lsls	r2, r2, #31
 8003a12:	d44a      	bmi.n	8003aaa <HAL_RCC_ClockConfig+0xba>
 8003a14:	2707      	movs	r7, #7
 8003a16:	6833      	ldr	r3, [r6, #0]
 8003a18:	403b      	ands	r3, r7
 8003a1a:	42ab      	cmp	r3, r5
 8003a1c:	d90a      	bls.n	8003a34 <HAL_RCC_ClockConfig+0x44>
 8003a1e:	6833      	ldr	r3, [r6, #0]
 8003a20:	43bb      	bics	r3, r7
 8003a22:	432b      	orrs	r3, r5
 8003a24:	6033      	str	r3, [r6, #0]
 8003a26:	f7fd ff09 	bl	800183c <HAL_GetTick>
 8003a2a:	9001      	str	r0, [sp, #4]
 8003a2c:	6833      	ldr	r3, [r6, #0]
 8003a2e:	403b      	ands	r3, r7
 8003a30:	42ab      	cmp	r3, r5
 8003a32:	d173      	bne.n	8003b1c <HAL_RCC_ClockConfig+0x12c>
 8003a34:	6823      	ldr	r3, [r4, #0]
 8003a36:	4d42      	ldr	r5, [pc, #264]	@ (8003b40 <HAL_RCC_ClockConfig+0x150>)
 8003a38:	075b      	lsls	r3, r3, #29
 8003a3a:	d477      	bmi.n	8003b2c <HAL_RCC_ClockConfig+0x13c>
 8003a3c:	f7ff ff9e 	bl	800397c <HAL_RCC_GetSysClockFreq>
 8003a40:	68ab      	ldr	r3, [r5, #8]
 8003a42:	4940      	ldr	r1, [pc, #256]	@ (8003b44 <HAL_RCC_ClockConfig+0x154>)
 8003a44:	051b      	lsls	r3, r3, #20
 8003a46:	0f1b      	lsrs	r3, r3, #28
 8003a48:	009b      	lsls	r3, r3, #2
 8003a4a:	585b      	ldr	r3, [r3, r1]
 8003a4c:	211f      	movs	r1, #31
 8003a4e:	400b      	ands	r3, r1
 8003a50:	40d8      	lsrs	r0, r3
 8003a52:	4a3d      	ldr	r2, [pc, #244]	@ (8003b48 <HAL_RCC_ClockConfig+0x158>)
 8003a54:	4b3d      	ldr	r3, [pc, #244]	@ (8003b4c <HAL_RCC_ClockConfig+0x15c>)
 8003a56:	6010      	str	r0, [r2, #0]
 8003a58:	6818      	ldr	r0, [r3, #0]
 8003a5a:	f7fd feaf 	bl	80017bc <HAL_InitTick>
 8003a5e:	e7cd      	b.n	80039fc <HAL_RCC_ClockConfig+0xc>
 8003a60:	6833      	ldr	r3, [r6, #0]
 8003a62:	43bb      	bics	r3, r7
 8003a64:	430b      	orrs	r3, r1
 8003a66:	6033      	str	r3, [r6, #0]
 8003a68:	f7fd fee8 	bl	800183c <HAL_GetTick>
 8003a6c:	9001      	str	r0, [sp, #4]
 8003a6e:	6833      	ldr	r3, [r6, #0]
 8003a70:	403b      	ands	r3, r7
 8003a72:	42ab      	cmp	r3, r5
 8003a74:	d0c9      	beq.n	8003a0a <HAL_RCC_ClockConfig+0x1a>
 8003a76:	f7fd fee1 	bl	800183c <HAL_GetTick>
 8003a7a:	9b01      	ldr	r3, [sp, #4]
 8003a7c:	1ac0      	subs	r0, r0, r3
 8003a7e:	4b34      	ldr	r3, [pc, #208]	@ (8003b50 <HAL_RCC_ClockConfig+0x160>)
 8003a80:	4298      	cmp	r0, r3
 8003a82:	d9f4      	bls.n	8003a6e <HAL_RCC_ClockConfig+0x7e>
 8003a84:	2003      	movs	r0, #3
 8003a86:	e7b9      	b.n	80039fc <HAL_RCC_ClockConfig+0xc>
 8003a88:	492d      	ldr	r1, [pc, #180]	@ (8003b40 <HAL_RCC_ClockConfig+0x150>)
 8003a8a:	0753      	lsls	r3, r2, #29
 8003a8c:	d506      	bpl.n	8003a9c <HAL_RCC_ClockConfig+0xac>
 8003a8e:	6888      	ldr	r0, [r1, #8]
 8003a90:	4b30      	ldr	r3, [pc, #192]	@ (8003b54 <HAL_RCC_ClockConfig+0x164>)
 8003a92:	4018      	ands	r0, r3
 8003a94:	23b0      	movs	r3, #176	@ 0xb0
 8003a96:	011b      	lsls	r3, r3, #4
 8003a98:	4303      	orrs	r3, r0
 8003a9a:	608b      	str	r3, [r1, #8]
 8003a9c:	688b      	ldr	r3, [r1, #8]
 8003a9e:	482e      	ldr	r0, [pc, #184]	@ (8003b58 <HAL_RCC_ClockConfig+0x168>)
 8003aa0:	4003      	ands	r3, r0
 8003aa2:	68e0      	ldr	r0, [r4, #12]
 8003aa4:	4303      	orrs	r3, r0
 8003aa6:	608b      	str	r3, [r1, #8]
 8003aa8:	e7b2      	b.n	8003a10 <HAL_RCC_ClockConfig+0x20>
 8003aaa:	221c      	movs	r2, #28
 8003aac:	4f24      	ldr	r7, [pc, #144]	@ (8003b40 <HAL_RCC_ClockConfig+0x150>)
 8003aae:	683b      	ldr	r3, [r7, #0]
 8003ab0:	4393      	bics	r3, r2
 8003ab2:	68a2      	ldr	r2, [r4, #8]
 8003ab4:	4313      	orrs	r3, r2
 8003ab6:	603b      	str	r3, [r7, #0]
 8003ab8:	6862      	ldr	r2, [r4, #4]
 8003aba:	2a01      	cmp	r2, #1
 8003abc:	d119      	bne.n	8003af2 <HAL_RCC_ClockConfig+0x102>
 8003abe:	683b      	ldr	r3, [r7, #0]
 8003ac0:	039b      	lsls	r3, r3, #14
 8003ac2:	d59a      	bpl.n	80039fa <HAL_RCC_ClockConfig+0xa>
 8003ac4:	2107      	movs	r1, #7
 8003ac6:	68bb      	ldr	r3, [r7, #8]
 8003ac8:	438b      	bics	r3, r1
 8003aca:	4313      	orrs	r3, r2
 8003acc:	60bb      	str	r3, [r7, #8]
 8003ace:	f7fd feb5 	bl	800183c <HAL_GetTick>
 8003ad2:	9001      	str	r0, [sp, #4]
 8003ad4:	2338      	movs	r3, #56	@ 0x38
 8003ad6:	68ba      	ldr	r2, [r7, #8]
 8003ad8:	401a      	ands	r2, r3
 8003ada:	6863      	ldr	r3, [r4, #4]
 8003adc:	00db      	lsls	r3, r3, #3
 8003ade:	429a      	cmp	r2, r3
 8003ae0:	d098      	beq.n	8003a14 <HAL_RCC_ClockConfig+0x24>
 8003ae2:	f7fd feab 	bl	800183c <HAL_GetTick>
 8003ae6:	9b01      	ldr	r3, [sp, #4]
 8003ae8:	1ac0      	subs	r0, r0, r3
 8003aea:	4b19      	ldr	r3, [pc, #100]	@ (8003b50 <HAL_RCC_ClockConfig+0x160>)
 8003aec:	4298      	cmp	r0, r3
 8003aee:	d9f1      	bls.n	8003ad4 <HAL_RCC_ClockConfig+0xe4>
 8003af0:	e7c8      	b.n	8003a84 <HAL_RCC_ClockConfig+0x94>
 8003af2:	2a00      	cmp	r2, #0
 8003af4:	d103      	bne.n	8003afe <HAL_RCC_ClockConfig+0x10e>
 8003af6:	683b      	ldr	r3, [r7, #0]
 8003af8:	055b      	lsls	r3, r3, #21
 8003afa:	d4e3      	bmi.n	8003ac4 <HAL_RCC_ClockConfig+0xd4>
 8003afc:	e77d      	b.n	80039fa <HAL_RCC_ClockConfig+0xa>
 8003afe:	2a02      	cmp	r2, #2
 8003b00:	d103      	bne.n	8003b0a <HAL_RCC_ClockConfig+0x11a>
 8003b02:	683b      	ldr	r3, [r7, #0]
 8003b04:	021b      	lsls	r3, r3, #8
 8003b06:	d4dd      	bmi.n	8003ac4 <HAL_RCC_ClockConfig+0xd4>
 8003b08:	e777      	b.n	80039fa <HAL_RCC_ClockConfig+0xa>
 8003b0a:	2302      	movs	r3, #2
 8003b0c:	2a03      	cmp	r2, #3
 8003b0e:	d103      	bne.n	8003b18 <HAL_RCC_ClockConfig+0x128>
 8003b10:	6e39      	ldr	r1, [r7, #96]	@ 0x60
 8003b12:	4219      	tst	r1, r3
 8003b14:	d1d6      	bne.n	8003ac4 <HAL_RCC_ClockConfig+0xd4>
 8003b16:	e770      	b.n	80039fa <HAL_RCC_ClockConfig+0xa>
 8003b18:	6df9      	ldr	r1, [r7, #92]	@ 0x5c
 8003b1a:	e7fa      	b.n	8003b12 <HAL_RCC_ClockConfig+0x122>
 8003b1c:	f7fd fe8e 	bl	800183c <HAL_GetTick>
 8003b20:	9b01      	ldr	r3, [sp, #4]
 8003b22:	1ac0      	subs	r0, r0, r3
 8003b24:	4b0a      	ldr	r3, [pc, #40]	@ (8003b50 <HAL_RCC_ClockConfig+0x160>)
 8003b26:	4298      	cmp	r0, r3
 8003b28:	d980      	bls.n	8003a2c <HAL_RCC_ClockConfig+0x3c>
 8003b2a:	e7ab      	b.n	8003a84 <HAL_RCC_ClockConfig+0x94>
 8003b2c:	68ab      	ldr	r3, [r5, #8]
 8003b2e:	4a0b      	ldr	r2, [pc, #44]	@ (8003b5c <HAL_RCC_ClockConfig+0x16c>)
 8003b30:	4013      	ands	r3, r2
 8003b32:	6922      	ldr	r2, [r4, #16]
 8003b34:	4313      	orrs	r3, r2
 8003b36:	60ab      	str	r3, [r5, #8]
 8003b38:	e780      	b.n	8003a3c <HAL_RCC_ClockConfig+0x4c>
 8003b3a:	46c0      	nop			@ (mov r8, r8)
 8003b3c:	40022000 	.word	0x40022000
 8003b40:	40021000 	.word	0x40021000
 8003b44:	08005b40 	.word	0x08005b40
 8003b48:	20000068 	.word	0x20000068
 8003b4c:	20000070 	.word	0x20000070
 8003b50:	00001388 	.word	0x00001388
 8003b54:	ffff84ff 	.word	0xffff84ff
 8003b58:	fffff0ff 	.word	0xfffff0ff
 8003b5c:	ffff8fff 	.word	0xffff8fff

08003b60 <HAL_RCC_GetHCLKFreq>:
 8003b60:	b510      	push	{r4, lr}
 8003b62:	f7ff ff0b 	bl	800397c <HAL_RCC_GetSysClockFreq>
 8003b66:	4b06      	ldr	r3, [pc, #24]	@ (8003b80 <HAL_RCC_GetHCLKFreq+0x20>)
 8003b68:	4a06      	ldr	r2, [pc, #24]	@ (8003b84 <HAL_RCC_GetHCLKFreq+0x24>)
 8003b6a:	689b      	ldr	r3, [r3, #8]
 8003b6c:	051b      	lsls	r3, r3, #20
 8003b6e:	0f1b      	lsrs	r3, r3, #28
 8003b70:	009b      	lsls	r3, r3, #2
 8003b72:	589b      	ldr	r3, [r3, r2]
 8003b74:	221f      	movs	r2, #31
 8003b76:	4013      	ands	r3, r2
 8003b78:	40d8      	lsrs	r0, r3
 8003b7a:	4b03      	ldr	r3, [pc, #12]	@ (8003b88 <HAL_RCC_GetHCLKFreq+0x28>)
 8003b7c:	6018      	str	r0, [r3, #0]
 8003b7e:	bd10      	pop	{r4, pc}
 8003b80:	40021000 	.word	0x40021000
 8003b84:	08005b40 	.word	0x08005b40
 8003b88:	20000068 	.word	0x20000068

08003b8c <HAL_RCC_GetPCLK1Freq>:
 8003b8c:	b510      	push	{r4, lr}
 8003b8e:	f7ff ffe7 	bl	8003b60 <HAL_RCC_GetHCLKFreq>
 8003b92:	4b05      	ldr	r3, [pc, #20]	@ (8003ba8 <HAL_RCC_GetPCLK1Freq+0x1c>)
 8003b94:	4a05      	ldr	r2, [pc, #20]	@ (8003bac <HAL_RCC_GetPCLK1Freq+0x20>)
 8003b96:	689b      	ldr	r3, [r3, #8]
 8003b98:	045b      	lsls	r3, r3, #17
 8003b9a:	0f5b      	lsrs	r3, r3, #29
 8003b9c:	009b      	lsls	r3, r3, #2
 8003b9e:	589b      	ldr	r3, [r3, r2]
 8003ba0:	221f      	movs	r2, #31
 8003ba2:	4013      	ands	r3, r2
 8003ba4:	40d8      	lsrs	r0, r3
 8003ba6:	bd10      	pop	{r4, pc}
 8003ba8:	40021000 	.word	0x40021000
 8003bac:	08005b20 	.word	0x08005b20

08003bb0 <HAL_RCCEx_PeriphCLKConfig>:
 8003bb0:	6803      	ldr	r3, [r0, #0]
 8003bb2:	b5f7      	push	{r0, r1, r2, r4, r5, r6, r7, lr}
 8003bb4:	0005      	movs	r5, r0
 8003bb6:	2000      	movs	r0, #0
 8003bb8:	065b      	lsls	r3, r3, #25
 8003bba:	d523      	bpl.n	8003c04 <HAL_RCCEx_PeriphCLKConfig+0x54>
 8003bbc:	2280      	movs	r2, #128	@ 0x80
 8003bbe:	4c3d      	ldr	r4, [pc, #244]	@ (8003cb4 <HAL_RCCEx_PeriphCLKConfig+0x104>)
 8003bc0:	0552      	lsls	r2, r2, #21
 8003bc2:	6be3      	ldr	r3, [r4, #60]	@ 0x3c
 8003bc4:	0007      	movs	r7, r0
 8003bc6:	4213      	tst	r3, r2
 8003bc8:	d107      	bne.n	8003bda <HAL_RCCEx_PeriphCLKConfig+0x2a>
 8003bca:	6be3      	ldr	r3, [r4, #60]	@ 0x3c
 8003bcc:	3701      	adds	r7, #1
 8003bce:	4313      	orrs	r3, r2
 8003bd0:	63e3      	str	r3, [r4, #60]	@ 0x3c
 8003bd2:	6be3      	ldr	r3, [r4, #60]	@ 0x3c
 8003bd4:	4013      	ands	r3, r2
 8003bd6:	9301      	str	r3, [sp, #4]
 8003bd8:	9b01      	ldr	r3, [sp, #4]
 8003bda:	6de1      	ldr	r1, [r4, #92]	@ 0x5c
 8003bdc:	22c0      	movs	r2, #192	@ 0xc0
 8003bde:	0008      	movs	r0, r1
 8003be0:	0092      	lsls	r2, r2, #2
 8003be2:	69eb      	ldr	r3, [r5, #28]
 8003be4:	4010      	ands	r0, r2
 8003be6:	4211      	tst	r1, r2
 8003be8:	d144      	bne.n	8003c74 <HAL_RCCEx_PeriphCLKConfig+0xc4>
 8003bea:	2000      	movs	r0, #0
 8003bec:	6de3      	ldr	r3, [r4, #92]	@ 0x5c
 8003bee:	4a32      	ldr	r2, [pc, #200]	@ (8003cb8 <HAL_RCCEx_PeriphCLKConfig+0x108>)
 8003bf0:	4013      	ands	r3, r2
 8003bf2:	69ea      	ldr	r2, [r5, #28]
 8003bf4:	4313      	orrs	r3, r2
 8003bf6:	65e3      	str	r3, [r4, #92]	@ 0x5c
 8003bf8:	2f01      	cmp	r7, #1
 8003bfa:	d103      	bne.n	8003c04 <HAL_RCCEx_PeriphCLKConfig+0x54>
 8003bfc:	6be3      	ldr	r3, [r4, #60]	@ 0x3c
 8003bfe:	4a2f      	ldr	r2, [pc, #188]	@ (8003cbc <HAL_RCCEx_PeriphCLKConfig+0x10c>)
 8003c00:	4013      	ands	r3, r2
 8003c02:	63e3      	str	r3, [r4, #60]	@ 0x3c
 8003c04:	682b      	ldr	r3, [r5, #0]
 8003c06:	07da      	lsls	r2, r3, #31
 8003c08:	d506      	bpl.n	8003c18 <HAL_RCCEx_PeriphCLKConfig+0x68>
 8003c0a:	2403      	movs	r4, #3
 8003c0c:	4929      	ldr	r1, [pc, #164]	@ (8003cb4 <HAL_RCCEx_PeriphCLKConfig+0x104>)
 8003c0e:	6d4a      	ldr	r2, [r1, #84]	@ 0x54
 8003c10:	43a2      	bics	r2, r4
 8003c12:	68ac      	ldr	r4, [r5, #8]
 8003c14:	4322      	orrs	r2, r4
 8003c16:	654a      	str	r2, [r1, #84]	@ 0x54
 8003c18:	079a      	lsls	r2, r3, #30
 8003c1a:	d506      	bpl.n	8003c2a <HAL_RCCEx_PeriphCLKConfig+0x7a>
 8003c1c:	4925      	ldr	r1, [pc, #148]	@ (8003cb4 <HAL_RCCEx_PeriphCLKConfig+0x104>)
 8003c1e:	4c28      	ldr	r4, [pc, #160]	@ (8003cc0 <HAL_RCCEx_PeriphCLKConfig+0x110>)
 8003c20:	6d4a      	ldr	r2, [r1, #84]	@ 0x54
 8003c22:	4022      	ands	r2, r4
 8003c24:	68ec      	ldr	r4, [r5, #12]
 8003c26:	4322      	orrs	r2, r4
 8003c28:	654a      	str	r2, [r1, #84]	@ 0x54
 8003c2a:	069a      	lsls	r2, r3, #26
 8003c2c:	d506      	bpl.n	8003c3c <HAL_RCCEx_PeriphCLKConfig+0x8c>
 8003c2e:	4921      	ldr	r1, [pc, #132]	@ (8003cb4 <HAL_RCCEx_PeriphCLKConfig+0x104>)
 8003c30:	69ac      	ldr	r4, [r5, #24]
 8003c32:	6d4a      	ldr	r2, [r1, #84]	@ 0x54
 8003c34:	0092      	lsls	r2, r2, #2
 8003c36:	0892      	lsrs	r2, r2, #2
 8003c38:	4322      	orrs	r2, r4
 8003c3a:	654a      	str	r2, [r1, #84]	@ 0x54
 8003c3c:	071a      	lsls	r2, r3, #28
 8003c3e:	d506      	bpl.n	8003c4e <HAL_RCCEx_PeriphCLKConfig+0x9e>
 8003c40:	491c      	ldr	r1, [pc, #112]	@ (8003cb4 <HAL_RCCEx_PeriphCLKConfig+0x104>)
 8003c42:	4c20      	ldr	r4, [pc, #128]	@ (8003cc4 <HAL_RCCEx_PeriphCLKConfig+0x114>)
 8003c44:	6d8a      	ldr	r2, [r1, #88]	@ 0x58
 8003c46:	4022      	ands	r2, r4
 8003c48:	696c      	ldr	r4, [r5, #20]
 8003c4a:	4322      	orrs	r2, r4
 8003c4c:	658a      	str	r2, [r1, #88]	@ 0x58
 8003c4e:	075a      	lsls	r2, r3, #29
 8003c50:	d506      	bpl.n	8003c60 <HAL_RCCEx_PeriphCLKConfig+0xb0>
 8003c52:	4918      	ldr	r1, [pc, #96]	@ (8003cb4 <HAL_RCCEx_PeriphCLKConfig+0x104>)
 8003c54:	4c1c      	ldr	r4, [pc, #112]	@ (8003cc8 <HAL_RCCEx_PeriphCLKConfig+0x118>)
 8003c56:	6d4a      	ldr	r2, [r1, #84]	@ 0x54
 8003c58:	4022      	ands	r2, r4
 8003c5a:	692c      	ldr	r4, [r5, #16]
 8003c5c:	4322      	orrs	r2, r4
 8003c5e:	654a      	str	r2, [r1, #84]	@ 0x54
 8003c60:	061b      	lsls	r3, r3, #24
 8003c62:	d506      	bpl.n	8003c72 <HAL_RCCEx_PeriphCLKConfig+0xc2>
 8003c64:	21e0      	movs	r1, #224	@ 0xe0
 8003c66:	4a13      	ldr	r2, [pc, #76]	@ (8003cb4 <HAL_RCCEx_PeriphCLKConfig+0x104>)
 8003c68:	6813      	ldr	r3, [r2, #0]
 8003c6a:	438b      	bics	r3, r1
 8003c6c:	6869      	ldr	r1, [r5, #4]
 8003c6e:	430b      	orrs	r3, r1
 8003c70:	6013      	str	r3, [r2, #0]
 8003c72:	bdfe      	pop	{r1, r2, r3, r4, r5, r6, r7, pc}
 8003c74:	4298      	cmp	r0, r3
 8003c76:	d00c      	beq.n	8003c92 <HAL_RCCEx_PeriphCLKConfig+0xe2>
 8003c78:	6de3      	ldr	r3, [r4, #92]	@ 0x5c
 8003c7a:	4a0f      	ldr	r2, [pc, #60]	@ (8003cb8 <HAL_RCCEx_PeriphCLKConfig+0x108>)
 8003c7c:	6de1      	ldr	r1, [r4, #92]	@ 0x5c
 8003c7e:	4013      	ands	r3, r2
 8003c80:	2280      	movs	r2, #128	@ 0x80
 8003c82:	0252      	lsls	r2, r2, #9
 8003c84:	430a      	orrs	r2, r1
 8003c86:	65e2      	str	r2, [r4, #92]	@ 0x5c
 8003c88:	6de2      	ldr	r2, [r4, #92]	@ 0x5c
 8003c8a:	4910      	ldr	r1, [pc, #64]	@ (8003ccc <HAL_RCCEx_PeriphCLKConfig+0x11c>)
 8003c8c:	400a      	ands	r2, r1
 8003c8e:	65e2      	str	r2, [r4, #92]	@ 0x5c
 8003c90:	65e3      	str	r3, [r4, #92]	@ 0x5c
 8003c92:	07db      	lsls	r3, r3, #31
 8003c94:	d5a9      	bpl.n	8003bea <HAL_RCCEx_PeriphCLKConfig+0x3a>
 8003c96:	f7fd fdd1 	bl	800183c <HAL_GetTick>
 8003c9a:	0006      	movs	r6, r0
 8003c9c:	2202      	movs	r2, #2
 8003c9e:	6de3      	ldr	r3, [r4, #92]	@ 0x5c
 8003ca0:	4213      	tst	r3, r2
 8003ca2:	d1a2      	bne.n	8003bea <HAL_RCCEx_PeriphCLKConfig+0x3a>
 8003ca4:	f7fd fdca 	bl	800183c <HAL_GetTick>
 8003ca8:	4b09      	ldr	r3, [pc, #36]	@ (8003cd0 <HAL_RCCEx_PeriphCLKConfig+0x120>)
 8003caa:	1b80      	subs	r0, r0, r6
 8003cac:	4298      	cmp	r0, r3
 8003cae:	d9f5      	bls.n	8003c9c <HAL_RCCEx_PeriphCLKConfig+0xec>
 8003cb0:	2003      	movs	r0, #3
 8003cb2:	e7a1      	b.n	8003bf8 <HAL_RCCEx_PeriphCLKConfig+0x48>
 8003cb4:	40021000 	.word	0x40021000
 8003cb8:	fffffcff 	.word	0xfffffcff
 8003cbc:	efffffff 	.word	0xefffffff
 8003cc0:	ffffcfff 	.word	0xffffcfff
 8003cc4:	ffffefff 	.word	0xffffefff
 8003cc8:	ffff3fff 	.word	0xffff3fff
 8003ccc:	fffeffff 	.word	0xfffeffff
 8003cd0:	00001388 	.word	0x00001388

08003cd4 <TIM_OC1_SetConfig>:
 8003cd4:	b570      	push	{r4, r5, r6, lr}
 8003cd6:	2401      	movs	r4, #1
 8003cd8:	6a03      	ldr	r3, [r0, #32]
 8003cda:	6a02      	ldr	r2, [r0, #32]
 8003cdc:	43a2      	bics	r2, r4
 8003cde:	6202      	str	r2, [r0, #32]
 8003ce0:	6844      	ldr	r4, [r0, #4]
 8003ce2:	4a16      	ldr	r2, [pc, #88]	@ (8003d3c <TIM_OC1_SetConfig+0x68>)
 8003ce4:	6985      	ldr	r5, [r0, #24]
 8003ce6:	4015      	ands	r5, r2
 8003ce8:	680a      	ldr	r2, [r1, #0]
 8003cea:	4315      	orrs	r5, r2
 8003cec:	2202      	movs	r2, #2
 8003cee:	4393      	bics	r3, r2
 8003cf0:	688a      	ldr	r2, [r1, #8]
 8003cf2:	4313      	orrs	r3, r2
 8003cf4:	4a12      	ldr	r2, [pc, #72]	@ (8003d40 <TIM_OC1_SetConfig+0x6c>)
 8003cf6:	4290      	cmp	r0, r2
 8003cf8:	d005      	beq.n	8003d06 <TIM_OC1_SetConfig+0x32>
 8003cfa:	4e12      	ldr	r6, [pc, #72]	@ (8003d44 <TIM_OC1_SetConfig+0x70>)
 8003cfc:	42b0      	cmp	r0, r6
 8003cfe:	d002      	beq.n	8003d06 <TIM_OC1_SetConfig+0x32>
 8003d00:	4e11      	ldr	r6, [pc, #68]	@ (8003d48 <TIM_OC1_SetConfig+0x74>)
 8003d02:	42b0      	cmp	r0, r6
 8003d04:	d113      	bne.n	8003d2e <TIM_OC1_SetConfig+0x5a>
 8003d06:	2608      	movs	r6, #8
 8003d08:	43b3      	bics	r3, r6
 8003d0a:	68ce      	ldr	r6, [r1, #12]
 8003d0c:	4333      	orrs	r3, r6
 8003d0e:	2604      	movs	r6, #4
 8003d10:	43b3      	bics	r3, r6
 8003d12:	4290      	cmp	r0, r2
 8003d14:	d005      	beq.n	8003d22 <TIM_OC1_SetConfig+0x4e>
 8003d16:	4a0b      	ldr	r2, [pc, #44]	@ (8003d44 <TIM_OC1_SetConfig+0x70>)
 8003d18:	4290      	cmp	r0, r2
 8003d1a:	d002      	beq.n	8003d22 <TIM_OC1_SetConfig+0x4e>
 8003d1c:	4a0a      	ldr	r2, [pc, #40]	@ (8003d48 <TIM_OC1_SetConfig+0x74>)
 8003d1e:	4290      	cmp	r0, r2
 8003d20:	d105      	bne.n	8003d2e <TIM_OC1_SetConfig+0x5a>
 8003d22:	4a0a      	ldr	r2, [pc, #40]	@ (8003d4c <TIM_OC1_SetConfig+0x78>)
 8003d24:	698e      	ldr	r6, [r1, #24]
 8003d26:	4022      	ands	r2, r4
 8003d28:	694c      	ldr	r4, [r1, #20]
 8003d2a:	4334      	orrs	r4, r6
 8003d2c:	4314      	orrs	r4, r2
 8003d2e:	684a      	ldr	r2, [r1, #4]
 8003d30:	6044      	str	r4, [r0, #4]
 8003d32:	6185      	str	r5, [r0, #24]
 8003d34:	6342      	str	r2, [r0, #52]	@ 0x34
 8003d36:	6203      	str	r3, [r0, #32]
 8003d38:	bd70      	pop	{r4, r5, r6, pc}
 8003d3a:	46c0      	nop			@ (mov r8, r8)
 8003d3c:	fffeff8c 	.word	0xfffeff8c
 8003d40:	40012c00 	.word	0x40012c00
 8003d44:	40014400 	.word	0x40014400
 8003d48:	40014800 	.word	0x40014800
 8003d4c:	fffffcff 	.word	0xfffffcff

08003d50 <TIM_OC3_SetConfig>:
 8003d50:	b570      	push	{r4, r5, r6, lr}
 8003d52:	4a17      	ldr	r2, [pc, #92]	@ (8003db0 <TIM_OC3_SetConfig+0x60>)
 8003d54:	6a05      	ldr	r5, [r0, #32]
 8003d56:	6a03      	ldr	r3, [r0, #32]
 8003d58:	4013      	ands	r3, r2
 8003d5a:	6203      	str	r3, [r0, #32]
 8003d5c:	6842      	ldr	r2, [r0, #4]
 8003d5e:	4b15      	ldr	r3, [pc, #84]	@ (8003db4 <TIM_OC3_SetConfig+0x64>)
 8003d60:	69c4      	ldr	r4, [r0, #28]
 8003d62:	401c      	ands	r4, r3
 8003d64:	680b      	ldr	r3, [r1, #0]
 8003d66:	431c      	orrs	r4, r3
 8003d68:	4b13      	ldr	r3, [pc, #76]	@ (8003db8 <TIM_OC3_SetConfig+0x68>)
 8003d6a:	401d      	ands	r5, r3
 8003d6c:	688b      	ldr	r3, [r1, #8]
 8003d6e:	021b      	lsls	r3, r3, #8
 8003d70:	432b      	orrs	r3, r5
 8003d72:	4d12      	ldr	r5, [pc, #72]	@ (8003dbc <TIM_OC3_SetConfig+0x6c>)
 8003d74:	42a8      	cmp	r0, r5
 8003d76:	d10e      	bne.n	8003d96 <TIM_OC3_SetConfig+0x46>
 8003d78:	4d11      	ldr	r5, [pc, #68]	@ (8003dc0 <TIM_OC3_SetConfig+0x70>)
 8003d7a:	401d      	ands	r5, r3
 8003d7c:	68cb      	ldr	r3, [r1, #12]
 8003d7e:	021b      	lsls	r3, r3, #8
 8003d80:	432b      	orrs	r3, r5
 8003d82:	4d10      	ldr	r5, [pc, #64]	@ (8003dc4 <TIM_OC3_SetConfig+0x74>)
 8003d84:	402b      	ands	r3, r5
 8003d86:	4d10      	ldr	r5, [pc, #64]	@ (8003dc8 <TIM_OC3_SetConfig+0x78>)
 8003d88:	694e      	ldr	r6, [r1, #20]
 8003d8a:	4015      	ands	r5, r2
 8003d8c:	698a      	ldr	r2, [r1, #24]
 8003d8e:	4332      	orrs	r2, r6
 8003d90:	0112      	lsls	r2, r2, #4
 8003d92:	432a      	orrs	r2, r5
 8003d94:	e005      	b.n	8003da2 <TIM_OC3_SetConfig+0x52>
 8003d96:	4d0d      	ldr	r5, [pc, #52]	@ (8003dcc <TIM_OC3_SetConfig+0x7c>)
 8003d98:	42a8      	cmp	r0, r5
 8003d9a:	d0f4      	beq.n	8003d86 <TIM_OC3_SetConfig+0x36>
 8003d9c:	4d0c      	ldr	r5, [pc, #48]	@ (8003dd0 <TIM_OC3_SetConfig+0x80>)
 8003d9e:	42a8      	cmp	r0, r5
 8003da0:	d0f1      	beq.n	8003d86 <TIM_OC3_SetConfig+0x36>
 8003da2:	6042      	str	r2, [r0, #4]
 8003da4:	684a      	ldr	r2, [r1, #4]
 8003da6:	61c4      	str	r4, [r0, #28]
 8003da8:	63c2      	str	r2, [r0, #60]	@ 0x3c
 8003daa:	6203      	str	r3, [r0, #32]
 8003dac:	bd70      	pop	{r4, r5, r6, pc}
 8003dae:	46c0      	nop			@ (mov r8, r8)
 8003db0:	fffffeff 	.word	0xfffffeff
 8003db4:	fffeff8c 	.word	0xfffeff8c
 8003db8:	fffffdff 	.word	0xfffffdff
 8003dbc:	40012c00 	.word	0x40012c00
 8003dc0:	fffff7ff 	.word	0xfffff7ff
 8003dc4:	fffffbff 	.word	0xfffffbff
 8003dc8:	ffffcfff 	.word	0xffffcfff
 8003dcc:	40014400 	.word	0x40014400
 8003dd0:	40014800 	.word	0x40014800

08003dd4 <TIM_OC4_SetConfig>:
 8003dd4:	b530      	push	{r4, r5, lr}
 8003dd6:	4a12      	ldr	r2, [pc, #72]	@ (8003e20 <TIM_OC4_SetConfig+0x4c>)
 8003dd8:	6a04      	ldr	r4, [r0, #32]
 8003dda:	6a03      	ldr	r3, [r0, #32]
 8003ddc:	4d11      	ldr	r5, [pc, #68]	@ (8003e24 <TIM_OC4_SetConfig+0x50>)
 8003dde:	4013      	ands	r3, r2
 8003de0:	6203      	str	r3, [r0, #32]
 8003de2:	6843      	ldr	r3, [r0, #4]
 8003de4:	69c2      	ldr	r2, [r0, #28]
 8003de6:	402a      	ands	r2, r5
 8003de8:	680d      	ldr	r5, [r1, #0]
 8003dea:	022d      	lsls	r5, r5, #8
 8003dec:	4315      	orrs	r5, r2
 8003dee:	4a0e      	ldr	r2, [pc, #56]	@ (8003e28 <TIM_OC4_SetConfig+0x54>)
 8003df0:	4014      	ands	r4, r2
 8003df2:	688a      	ldr	r2, [r1, #8]
 8003df4:	0312      	lsls	r2, r2, #12
 8003df6:	4322      	orrs	r2, r4
 8003df8:	4c0c      	ldr	r4, [pc, #48]	@ (8003e2c <TIM_OC4_SetConfig+0x58>)
 8003dfa:	42a0      	cmp	r0, r4
 8003dfc:	d005      	beq.n	8003e0a <TIM_OC4_SetConfig+0x36>
 8003dfe:	4c0c      	ldr	r4, [pc, #48]	@ (8003e30 <TIM_OC4_SetConfig+0x5c>)
 8003e00:	42a0      	cmp	r0, r4
 8003e02:	d002      	beq.n	8003e0a <TIM_OC4_SetConfig+0x36>
 8003e04:	4c0b      	ldr	r4, [pc, #44]	@ (8003e34 <TIM_OC4_SetConfig+0x60>)
 8003e06:	42a0      	cmp	r0, r4
 8003e08:	d104      	bne.n	8003e14 <TIM_OC4_SetConfig+0x40>
 8003e0a:	4c0b      	ldr	r4, [pc, #44]	@ (8003e38 <TIM_OC4_SetConfig+0x64>)
 8003e0c:	401c      	ands	r4, r3
 8003e0e:	694b      	ldr	r3, [r1, #20]
 8003e10:	019b      	lsls	r3, r3, #6
 8003e12:	4323      	orrs	r3, r4
 8003e14:	6043      	str	r3, [r0, #4]
 8003e16:	684b      	ldr	r3, [r1, #4]
 8003e18:	61c5      	str	r5, [r0, #28]
 8003e1a:	6403      	str	r3, [r0, #64]	@ 0x40
 8003e1c:	6202      	str	r2, [r0, #32]
 8003e1e:	bd30      	pop	{r4, r5, pc}
 8003e20:	ffffefff 	.word	0xffffefff
 8003e24:	feff8cff 	.word	0xfeff8cff
 8003e28:	ffffdfff 	.word	0xffffdfff
 8003e2c:	40012c00 	.word	0x40012c00
 8003e30:	40014400 	.word	0x40014400
 8003e34:	40014800 	.word	0x40014800
 8003e38:	ffffbfff 	.word	0xffffbfff

08003e3c <TIM_OC5_SetConfig>:
 8003e3c:	b570      	push	{r4, r5, r6, lr}
 8003e3e:	6a06      	ldr	r6, [r0, #32]
 8003e40:	4c10      	ldr	r4, [pc, #64]	@ (8003e84 <TIM_OC5_SetConfig+0x48>)
 8003e42:	6a03      	ldr	r3, [r0, #32]
 8003e44:	4a10      	ldr	r2, [pc, #64]	@ (8003e88 <TIM_OC5_SetConfig+0x4c>)
 8003e46:	4023      	ands	r3, r4
 8003e48:	6203      	str	r3, [r0, #32]
 8003e4a:	6843      	ldr	r3, [r0, #4]
 8003e4c:	6d45      	ldr	r5, [r0, #84]	@ 0x54
 8003e4e:	4015      	ands	r5, r2
 8003e50:	680a      	ldr	r2, [r1, #0]
 8003e52:	4315      	orrs	r5, r2
 8003e54:	4a0d      	ldr	r2, [pc, #52]	@ (8003e8c <TIM_OC5_SetConfig+0x50>)
 8003e56:	4016      	ands	r6, r2
 8003e58:	688a      	ldr	r2, [r1, #8]
 8003e5a:	0412      	lsls	r2, r2, #16
 8003e5c:	4332      	orrs	r2, r6
 8003e5e:	4e0c      	ldr	r6, [pc, #48]	@ (8003e90 <TIM_OC5_SetConfig+0x54>)
 8003e60:	42b0      	cmp	r0, r6
 8003e62:	d005      	beq.n	8003e70 <TIM_OC5_SetConfig+0x34>
 8003e64:	4e0b      	ldr	r6, [pc, #44]	@ (8003e94 <TIM_OC5_SetConfig+0x58>)
 8003e66:	42b0      	cmp	r0, r6
 8003e68:	d002      	beq.n	8003e70 <TIM_OC5_SetConfig+0x34>
 8003e6a:	4e0b      	ldr	r6, [pc, #44]	@ (8003e98 <TIM_OC5_SetConfig+0x5c>)
 8003e6c:	42b0      	cmp	r0, r6
 8003e6e:	d103      	bne.n	8003e78 <TIM_OC5_SetConfig+0x3c>
 8003e70:	401c      	ands	r4, r3
 8003e72:	694b      	ldr	r3, [r1, #20]
 8003e74:	021b      	lsls	r3, r3, #8
 8003e76:	4323      	orrs	r3, r4
 8003e78:	6043      	str	r3, [r0, #4]
 8003e7a:	684b      	ldr	r3, [r1, #4]
 8003e7c:	6545      	str	r5, [r0, #84]	@ 0x54
 8003e7e:	6583      	str	r3, [r0, #88]	@ 0x58
 8003e80:	6202      	str	r2, [r0, #32]
 8003e82:	bd70      	pop	{r4, r5, r6, pc}
 8003e84:	fffeffff 	.word	0xfffeffff
 8003e88:	fffeff8f 	.word	0xfffeff8f
 8003e8c:	fffdffff 	.word	0xfffdffff
 8003e90:	40012c00 	.word	0x40012c00
 8003e94:	40014400 	.word	0x40014400
 8003e98:	40014800 	.word	0x40014800

08003e9c <TIM_OC6_SetConfig>:
 8003e9c:	b530      	push	{r4, r5, lr}
 8003e9e:	4a12      	ldr	r2, [pc, #72]	@ (8003ee8 <TIM_OC6_SetConfig+0x4c>)
 8003ea0:	6a04      	ldr	r4, [r0, #32]
 8003ea2:	6a03      	ldr	r3, [r0, #32]
 8003ea4:	4d11      	ldr	r5, [pc, #68]	@ (8003eec <TIM_OC6_SetConfig+0x50>)
 8003ea6:	4013      	ands	r3, r2
 8003ea8:	6203      	str	r3, [r0, #32]
 8003eaa:	6843      	ldr	r3, [r0, #4]
 8003eac:	6d42      	ldr	r2, [r0, #84]	@ 0x54
 8003eae:	402a      	ands	r2, r5
 8003eb0:	680d      	ldr	r5, [r1, #0]
 8003eb2:	022d      	lsls	r5, r5, #8
 8003eb4:	4315      	orrs	r5, r2
 8003eb6:	4a0e      	ldr	r2, [pc, #56]	@ (8003ef0 <TIM_OC6_SetConfig+0x54>)
 8003eb8:	4014      	ands	r4, r2
 8003eba:	688a      	ldr	r2, [r1, #8]
 8003ebc:	0512      	lsls	r2, r2, #20
 8003ebe:	4322      	orrs	r2, r4
 8003ec0:	4c0c      	ldr	r4, [pc, #48]	@ (8003ef4 <TIM_OC6_SetConfig+0x58>)
 8003ec2:	42a0      	cmp	r0, r4
 8003ec4:	d005      	beq.n	8003ed2 <TIM_OC6_SetConfig+0x36>
 8003ec6:	4c0c      	ldr	r4, [pc, #48]	@ (8003ef8 <TIM_OC6_SetConfig+0x5c>)
 8003ec8:	42a0      	cmp	r0, r4
 8003eca:	d002      	beq.n	8003ed2 <TIM_OC6_SetConfig+0x36>
 8003ecc:	4c0b      	ldr	r4, [pc, #44]	@ (8003efc <TIM_OC6_SetConfig+0x60>)
 8003ece:	42a0      	cmp	r0, r4
 8003ed0:	d104      	bne.n	8003edc <TIM_OC6_SetConfig+0x40>
 8003ed2:	4c0b      	ldr	r4, [pc, #44]	@ (8003f00 <TIM_OC6_SetConfig+0x64>)
 8003ed4:	401c      	ands	r4, r3
 8003ed6:	694b      	ldr	r3, [r1, #20]
 8003ed8:	029b      	lsls	r3, r3, #10
 8003eda:	4323      	orrs	r3, r4
 8003edc:	6043      	str	r3, [r0, #4]
 8003ede:	684b      	ldr	r3, [r1, #4]
 8003ee0:	6545      	str	r5, [r0, #84]	@ 0x54
 8003ee2:	65c3      	str	r3, [r0, #92]	@ 0x5c
 8003ee4:	6202      	str	r2, [r0, #32]
 8003ee6:	bd30      	pop	{r4, r5, pc}
 8003ee8:	ffefffff 	.word	0xffefffff
 8003eec:	feff8fff 	.word	0xfeff8fff
 8003ef0:	ffdfffff 	.word	0xffdfffff
 8003ef4:	40012c00 	.word	0x40012c00
 8003ef8:	40014400 	.word	0x40014400
 8003efc:	40014800 	.word	0x40014800
 8003f00:	fffbffff 	.word	0xfffbffff

08003f04 <TIM_Base_SetConfig>:
 8003f04:	4a20      	ldr	r2, [pc, #128]	@ (8003f88 <TIM_Base_SetConfig+0x84>)
 8003f06:	b510      	push	{r4, lr}
 8003f08:	6803      	ldr	r3, [r0, #0]
 8003f0a:	4290      	cmp	r0, r2
 8003f0c:	d006      	beq.n	8003f1c <TIM_Base_SetConfig+0x18>
 8003f0e:	2480      	movs	r4, #128	@ 0x80
 8003f10:	05e4      	lsls	r4, r4, #23
 8003f12:	42a0      	cmp	r0, r4
 8003f14:	d002      	beq.n	8003f1c <TIM_Base_SetConfig+0x18>
 8003f16:	4c1d      	ldr	r4, [pc, #116]	@ (8003f8c <TIM_Base_SetConfig+0x88>)
 8003f18:	42a0      	cmp	r0, r4
 8003f1a:	d10c      	bne.n	8003f36 <TIM_Base_SetConfig+0x32>
 8003f1c:	2470      	movs	r4, #112	@ 0x70
 8003f1e:	43a3      	bics	r3, r4
 8003f20:	684c      	ldr	r4, [r1, #4]
 8003f22:	4323      	orrs	r3, r4
 8003f24:	4290      	cmp	r0, r2
 8003f26:	d00f      	beq.n	8003f48 <TIM_Base_SetConfig+0x44>
 8003f28:	2480      	movs	r4, #128	@ 0x80
 8003f2a:	05e4      	lsls	r4, r4, #23
 8003f2c:	42a0      	cmp	r0, r4
 8003f2e:	d00b      	beq.n	8003f48 <TIM_Base_SetConfig+0x44>
 8003f30:	4c16      	ldr	r4, [pc, #88]	@ (8003f8c <TIM_Base_SetConfig+0x88>)
 8003f32:	42a0      	cmp	r0, r4
 8003f34:	d008      	beq.n	8003f48 <TIM_Base_SetConfig+0x44>
 8003f36:	4c16      	ldr	r4, [pc, #88]	@ (8003f90 <TIM_Base_SetConfig+0x8c>)
 8003f38:	42a0      	cmp	r0, r4
 8003f3a:	d005      	beq.n	8003f48 <TIM_Base_SetConfig+0x44>
 8003f3c:	4c15      	ldr	r4, [pc, #84]	@ (8003f94 <TIM_Base_SetConfig+0x90>)
 8003f3e:	42a0      	cmp	r0, r4
 8003f40:	d002      	beq.n	8003f48 <TIM_Base_SetConfig+0x44>
 8003f42:	4c15      	ldr	r4, [pc, #84]	@ (8003f98 <TIM_Base_SetConfig+0x94>)
 8003f44:	42a0      	cmp	r0, r4
 8003f46:	d103      	bne.n	8003f50 <TIM_Base_SetConfig+0x4c>
 8003f48:	4c14      	ldr	r4, [pc, #80]	@ (8003f9c <TIM_Base_SetConfig+0x98>)
 8003f4a:	401c      	ands	r4, r3
 8003f4c:	68cb      	ldr	r3, [r1, #12]
 8003f4e:	4323      	orrs	r3, r4
 8003f50:	2480      	movs	r4, #128	@ 0x80
 8003f52:	43a3      	bics	r3, r4
 8003f54:	694c      	ldr	r4, [r1, #20]
 8003f56:	4323      	orrs	r3, r4
 8003f58:	6003      	str	r3, [r0, #0]
 8003f5a:	688b      	ldr	r3, [r1, #8]
 8003f5c:	62c3      	str	r3, [r0, #44]	@ 0x2c
 8003f5e:	680b      	ldr	r3, [r1, #0]
 8003f60:	6283      	str	r3, [r0, #40]	@ 0x28
 8003f62:	4290      	cmp	r0, r2
 8003f64:	d005      	beq.n	8003f72 <TIM_Base_SetConfig+0x6e>
 8003f66:	4b0b      	ldr	r3, [pc, #44]	@ (8003f94 <TIM_Base_SetConfig+0x90>)
 8003f68:	4298      	cmp	r0, r3
 8003f6a:	d002      	beq.n	8003f72 <TIM_Base_SetConfig+0x6e>
 8003f6c:	4b0a      	ldr	r3, [pc, #40]	@ (8003f98 <TIM_Base_SetConfig+0x94>)
 8003f6e:	4298      	cmp	r0, r3
 8003f70:	d101      	bne.n	8003f76 <TIM_Base_SetConfig+0x72>
 8003f72:	690b      	ldr	r3, [r1, #16]
 8003f74:	6303      	str	r3, [r0, #48]	@ 0x30
 8003f76:	2201      	movs	r2, #1
 8003f78:	6142      	str	r2, [r0, #20]
 8003f7a:	6903      	ldr	r3, [r0, #16]
 8003f7c:	4213      	tst	r3, r2
 8003f7e:	d002      	beq.n	8003f86 <TIM_Base_SetConfig+0x82>
 8003f80:	6903      	ldr	r3, [r0, #16]
 8003f82:	4393      	bics	r3, r2
 8003f84:	6103      	str	r3, [r0, #16]
 8003f86:	bd10      	pop	{r4, pc}
 8003f88:	40012c00 	.word	0x40012c00
 8003f8c:	40000400 	.word	0x40000400
 8003f90:	40002000 	.word	0x40002000
 8003f94:	40014400 	.word	0x40014400
 8003f98:	40014800 	.word	0x40014800
 8003f9c:	fffffcff 	.word	0xfffffcff

08003fa0 <HAL_TIM_Base_Init>:
 8003fa0:	b570      	push	{r4, r5, r6, lr}
 8003fa2:	0004      	movs	r4, r0
 8003fa4:	2001      	movs	r0, #1
 8003fa6:	2c00      	cmp	r4, #0
 8003fa8:	d023      	beq.n	8003ff2 <HAL_TIM_Base_Init+0x52>
 8003faa:	0025      	movs	r5, r4
 8003fac:	353d      	adds	r5, #61	@ 0x3d
 8003fae:	782b      	ldrb	r3, [r5, #0]
 8003fb0:	b2da      	uxtb	r2, r3
 8003fb2:	2b00      	cmp	r3, #0
 8003fb4:	d105      	bne.n	8003fc2 <HAL_TIM_Base_Init+0x22>
 8003fb6:	0023      	movs	r3, r4
 8003fb8:	333c      	adds	r3, #60	@ 0x3c
 8003fba:	0020      	movs	r0, r4
 8003fbc:	701a      	strb	r2, [r3, #0]
 8003fbe:	f7fd fa83 	bl	80014c8 <HAL_TIM_Base_MspInit>
 8003fc2:	2302      	movs	r3, #2
 8003fc4:	702b      	strb	r3, [r5, #0]
 8003fc6:	6820      	ldr	r0, [r4, #0]
 8003fc8:	1d21      	adds	r1, r4, #4
 8003fca:	f7ff ff9b 	bl	8003f04 <TIM_Base_SetConfig>
 8003fce:	0022      	movs	r2, r4
 8003fd0:	2301      	movs	r3, #1
 8003fd2:	2000      	movs	r0, #0
 8003fd4:	3248      	adds	r2, #72	@ 0x48
 8003fd6:	7013      	strb	r3, [r2, #0]
 8003fd8:	3447      	adds	r4, #71	@ 0x47
 8003fda:	3a0a      	subs	r2, #10
 8003fdc:	7013      	strb	r3, [r2, #0]
 8003fde:	7053      	strb	r3, [r2, #1]
 8003fe0:	7093      	strb	r3, [r2, #2]
 8003fe2:	70d3      	strb	r3, [r2, #3]
 8003fe4:	7113      	strb	r3, [r2, #4]
 8003fe6:	7153      	strb	r3, [r2, #5]
 8003fe8:	7193      	strb	r3, [r2, #6]
 8003fea:	71d3      	strb	r3, [r2, #7]
 8003fec:	7213      	strb	r3, [r2, #8]
 8003fee:	7023      	strb	r3, [r4, #0]
 8003ff0:	702b      	strb	r3, [r5, #0]
 8003ff2:	bd70      	pop	{r4, r5, r6, pc}

08003ff4 <HAL_TIM_PWM_Init>:
 8003ff4:	b570      	push	{r4, r5, r6, lr}
 8003ff6:	0004      	movs	r4, r0
 8003ff8:	2001      	movs	r0, #1
 8003ffa:	2c00      	cmp	r4, #0
 8003ffc:	d023      	beq.n	8004046 <HAL_TIM_PWM_Init+0x52>
 8003ffe:	0025      	movs	r5, r4
 8004000:	353d      	adds	r5, #61	@ 0x3d
 8004002:	782b      	ldrb	r3, [r5, #0]
 8004004:	b2da      	uxtb	r2, r3
 8004006:	2b00      	cmp	r3, #0
 8004008:	d105      	bne.n	8004016 <HAL_TIM_PWM_Init+0x22>
 800400a:	0023      	movs	r3, r4
 800400c:	333c      	adds	r3, #60	@ 0x3c
 800400e:	0020      	movs	r0, r4
 8004010:	701a      	strb	r2, [r3, #0]
 8004012:	f7fd fa45 	bl	80014a0 <HAL_TIM_PWM_MspInit>
 8004016:	2302      	movs	r3, #2
 8004018:	702b      	strb	r3, [r5, #0]
 800401a:	6820      	ldr	r0, [r4, #0]
 800401c:	1d21      	adds	r1, r4, #4
 800401e:	f7ff ff71 	bl	8003f04 <TIM_Base_SetConfig>
 8004022:	0022      	movs	r2, r4
 8004024:	2301      	movs	r3, #1
 8004026:	2000      	movs	r0, #0
 8004028:	3248      	adds	r2, #72	@ 0x48
 800402a:	7013      	strb	r3, [r2, #0]
 800402c:	3447      	adds	r4, #71	@ 0x47
 800402e:	3a0a      	subs	r2, #10
 8004030:	7013      	strb	r3, [r2, #0]
 8004032:	7053      	strb	r3, [r2, #1]
 8004034:	7093      	strb	r3, [r2, #2]
 8004036:	70d3      	strb	r3, [r2, #3]
 8004038:	7113      	strb	r3, [r2, #4]
 800403a:	7153      	strb	r3, [r2, #5]
 800403c:	7193      	strb	r3, [r2, #6]
 800403e:	71d3      	strb	r3, [r2, #7]
 8004040:	7213      	strb	r3, [r2, #8]
 8004042:	7023      	strb	r3, [r4, #0]
 8004044:	702b      	strb	r3, [r5, #0]
 8004046:	bd70      	pop	{r4, r5, r6, pc}

08004048 <TIM_OC2_SetConfig>:
 8004048:	2210      	movs	r2, #16
 800404a:	b570      	push	{r4, r5, r6, lr}
 800404c:	6a05      	ldr	r5, [r0, #32]
 800404e:	6a03      	ldr	r3, [r0, #32]
 8004050:	4c16      	ldr	r4, [pc, #88]	@ (80040ac <TIM_OC2_SetConfig+0x64>)
 8004052:	4393      	bics	r3, r2
 8004054:	6203      	str	r3, [r0, #32]
 8004056:	6842      	ldr	r2, [r0, #4]
 8004058:	6983      	ldr	r3, [r0, #24]
 800405a:	4023      	ands	r3, r4
 800405c:	680c      	ldr	r4, [r1, #0]
 800405e:	0224      	lsls	r4, r4, #8
 8004060:	431c      	orrs	r4, r3
 8004062:	2320      	movs	r3, #32
 8004064:	439d      	bics	r5, r3
 8004066:	688b      	ldr	r3, [r1, #8]
 8004068:	011b      	lsls	r3, r3, #4
 800406a:	432b      	orrs	r3, r5
 800406c:	4d10      	ldr	r5, [pc, #64]	@ (80040b0 <TIM_OC2_SetConfig+0x68>)
 800406e:	42a8      	cmp	r0, r5
 8004070:	d10f      	bne.n	8004092 <TIM_OC2_SetConfig+0x4a>
 8004072:	2580      	movs	r5, #128	@ 0x80
 8004074:	43ab      	bics	r3, r5
 8004076:	001e      	movs	r6, r3
 8004078:	68cb      	ldr	r3, [r1, #12]
 800407a:	3d40      	subs	r5, #64	@ 0x40
 800407c:	011b      	lsls	r3, r3, #4
 800407e:	4333      	orrs	r3, r6
 8004080:	43ab      	bics	r3, r5
 8004082:	4d0c      	ldr	r5, [pc, #48]	@ (80040b4 <TIM_OC2_SetConfig+0x6c>)
 8004084:	694e      	ldr	r6, [r1, #20]
 8004086:	4015      	ands	r5, r2
 8004088:	698a      	ldr	r2, [r1, #24]
 800408a:	4332      	orrs	r2, r6
 800408c:	0092      	lsls	r2, r2, #2
 800408e:	432a      	orrs	r2, r5
 8004090:	e005      	b.n	800409e <TIM_OC2_SetConfig+0x56>
 8004092:	4d09      	ldr	r5, [pc, #36]	@ (80040b8 <TIM_OC2_SetConfig+0x70>)
 8004094:	42a8      	cmp	r0, r5
 8004096:	d0f4      	beq.n	8004082 <TIM_OC2_SetConfig+0x3a>
 8004098:	4d08      	ldr	r5, [pc, #32]	@ (80040bc <TIM_OC2_SetConfig+0x74>)
 800409a:	42a8      	cmp	r0, r5
 800409c:	d0f1      	beq.n	8004082 <TIM_OC2_SetConfig+0x3a>
 800409e:	6042      	str	r2, [r0, #4]
 80040a0:	684a      	ldr	r2, [r1, #4]
 80040a2:	6184      	str	r4, [r0, #24]
 80040a4:	6382      	str	r2, [r0, #56]	@ 0x38
 80040a6:	6203      	str	r3, [r0, #32]
 80040a8:	bd70      	pop	{r4, r5, r6, pc}
 80040aa:	46c0      	nop			@ (mov r8, r8)
 80040ac:	feff8cff 	.word	0xfeff8cff
 80040b0:	40012c00 	.word	0x40012c00
 80040b4:	fffff3ff 	.word	0xfffff3ff
 80040b8:	40014400 	.word	0x40014400
 80040bc:	40014800 	.word	0x40014800

080040c0 <HAL_TIM_PWM_ConfigChannel>:
 80040c0:	b5f8      	push	{r3, r4, r5, r6, r7, lr}
 80040c2:	0007      	movs	r7, r0
 80040c4:	373c      	adds	r7, #60	@ 0x3c
 80040c6:	0015      	movs	r5, r2
 80040c8:	783a      	ldrb	r2, [r7, #0]
 80040ca:	0003      	movs	r3, r0
 80040cc:	000c      	movs	r4, r1
 80040ce:	2002      	movs	r0, #2
 80040d0:	2a01      	cmp	r2, #1
 80040d2:	d00c      	beq.n	80040ee <HAL_TIM_PWM_ConfigChannel+0x2e>
 80040d4:	3801      	subs	r0, #1
 80040d6:	7038      	strb	r0, [r7, #0]
 80040d8:	2d0c      	cmp	r5, #12
 80040da:	d051      	beq.n	8004180 <HAL_TIM_PWM_ConfigChannel+0xc0>
 80040dc:	d808      	bhi.n	80040f0 <HAL_TIM_PWM_ConfigChannel+0x30>
 80040de:	2d04      	cmp	r5, #4
 80040e0:	d02d      	beq.n	800413e <HAL_TIM_PWM_ConfigChannel+0x7e>
 80040e2:	2d08      	cmp	r5, #8
 80040e4:	d03c      	beq.n	8004160 <HAL_TIM_PWM_ConfigChannel+0xa0>
 80040e6:	2d00      	cmp	r5, #0
 80040e8:	d017      	beq.n	800411a <HAL_TIM_PWM_ConfigChannel+0x5a>
 80040ea:	2300      	movs	r3, #0
 80040ec:	703b      	strb	r3, [r7, #0]
 80040ee:	bdf8      	pop	{r3, r4, r5, r6, r7, pc}
 80040f0:	2d10      	cmp	r5, #16
 80040f2:	d058      	beq.n	80041a6 <HAL_TIM_PWM_ConfigChannel+0xe6>
 80040f4:	2d14      	cmp	r5, #20
 80040f6:	d1f8      	bne.n	80040ea <HAL_TIM_PWM_ConfigChannel+0x2a>
 80040f8:	681d      	ldr	r5, [r3, #0]
 80040fa:	0028      	movs	r0, r5
 80040fc:	f7ff fece 	bl	8003e9c <TIM_OC6_SetConfig>
 8004100:	2380      	movs	r3, #128	@ 0x80
 8004102:	6d6a      	ldr	r2, [r5, #84]	@ 0x54
 8004104:	011b      	lsls	r3, r3, #4
 8004106:	4313      	orrs	r3, r2
 8004108:	656b      	str	r3, [r5, #84]	@ 0x54
 800410a:	6d6b      	ldr	r3, [r5, #84]	@ 0x54
 800410c:	4a2e      	ldr	r2, [pc, #184]	@ (80041c8 <HAL_TIM_PWM_ConfigChannel+0x108>)
 800410e:	4013      	ands	r3, r2
 8004110:	656b      	str	r3, [r5, #84]	@ 0x54
 8004112:	6923      	ldr	r3, [r4, #16]
 8004114:	6d6a      	ldr	r2, [r5, #84]	@ 0x54
 8004116:	021b      	lsls	r3, r3, #8
 8004118:	e053      	b.n	80041c2 <HAL_TIM_PWM_ConfigChannel+0x102>
 800411a:	681d      	ldr	r5, [r3, #0]
 800411c:	0028      	movs	r0, r5
 800411e:	f7ff fdd9 	bl	8003cd4 <TIM_OC1_SetConfig>
 8004122:	2308      	movs	r3, #8
 8004124:	69aa      	ldr	r2, [r5, #24]
 8004126:	4313      	orrs	r3, r2
 8004128:	2204      	movs	r2, #4
 800412a:	61ab      	str	r3, [r5, #24]
 800412c:	69ab      	ldr	r3, [r5, #24]
 800412e:	4393      	bics	r3, r2
 8004130:	61ab      	str	r3, [r5, #24]
 8004132:	69ab      	ldr	r3, [r5, #24]
 8004134:	6922      	ldr	r2, [r4, #16]
 8004136:	4313      	orrs	r3, r2
 8004138:	61ab      	str	r3, [r5, #24]
 800413a:	2000      	movs	r0, #0
 800413c:	e7d5      	b.n	80040ea <HAL_TIM_PWM_ConfigChannel+0x2a>
 800413e:	681d      	ldr	r5, [r3, #0]
 8004140:	0028      	movs	r0, r5
 8004142:	f7ff ff81 	bl	8004048 <TIM_OC2_SetConfig>
 8004146:	2380      	movs	r3, #128	@ 0x80
 8004148:	69aa      	ldr	r2, [r5, #24]
 800414a:	011b      	lsls	r3, r3, #4
 800414c:	4313      	orrs	r3, r2
 800414e:	61ab      	str	r3, [r5, #24]
 8004150:	69ab      	ldr	r3, [r5, #24]
 8004152:	4a1d      	ldr	r2, [pc, #116]	@ (80041c8 <HAL_TIM_PWM_ConfigChannel+0x108>)
 8004154:	4013      	ands	r3, r2
 8004156:	61ab      	str	r3, [r5, #24]
 8004158:	6923      	ldr	r3, [r4, #16]
 800415a:	69aa      	ldr	r2, [r5, #24]
 800415c:	021b      	lsls	r3, r3, #8
 800415e:	e7ea      	b.n	8004136 <HAL_TIM_PWM_ConfigChannel+0x76>
 8004160:	681e      	ldr	r6, [r3, #0]
 8004162:	0030      	movs	r0, r6
 8004164:	f7ff fdf4 	bl	8003d50 <TIM_OC3_SetConfig>
 8004168:	2204      	movs	r2, #4
 800416a:	69f3      	ldr	r3, [r6, #28]
 800416c:	431d      	orrs	r5, r3
 800416e:	61f5      	str	r5, [r6, #28]
 8004170:	69f3      	ldr	r3, [r6, #28]
 8004172:	4393      	bics	r3, r2
 8004174:	61f3      	str	r3, [r6, #28]
 8004176:	69f3      	ldr	r3, [r6, #28]
 8004178:	6922      	ldr	r2, [r4, #16]
 800417a:	4313      	orrs	r3, r2
 800417c:	61f3      	str	r3, [r6, #28]
 800417e:	e7dc      	b.n	800413a <HAL_TIM_PWM_ConfigChannel+0x7a>
 8004180:	681d      	ldr	r5, [r3, #0]
 8004182:	0028      	movs	r0, r5
 8004184:	f7ff fe26 	bl	8003dd4 <TIM_OC4_SetConfig>
 8004188:	2380      	movs	r3, #128	@ 0x80
 800418a:	69ea      	ldr	r2, [r5, #28]
 800418c:	011b      	lsls	r3, r3, #4
 800418e:	4313      	orrs	r3, r2
 8004190:	61eb      	str	r3, [r5, #28]
 8004192:	69eb      	ldr	r3, [r5, #28]
 8004194:	4a0c      	ldr	r2, [pc, #48]	@ (80041c8 <HAL_TIM_PWM_ConfigChannel+0x108>)
 8004196:	4013      	ands	r3, r2
 8004198:	61eb      	str	r3, [r5, #28]
 800419a:	6923      	ldr	r3, [r4, #16]
 800419c:	69ea      	ldr	r2, [r5, #28]
 800419e:	021b      	lsls	r3, r3, #8
 80041a0:	4313      	orrs	r3, r2
 80041a2:	61eb      	str	r3, [r5, #28]
 80041a4:	e7c9      	b.n	800413a <HAL_TIM_PWM_ConfigChannel+0x7a>
 80041a6:	681d      	ldr	r5, [r3, #0]
 80041a8:	0028      	movs	r0, r5
 80041aa:	f7ff fe47 	bl	8003e3c <TIM_OC5_SetConfig>
 80041ae:	2308      	movs	r3, #8
 80041b0:	6d6a      	ldr	r2, [r5, #84]	@ 0x54
 80041b2:	4313      	orrs	r3, r2
 80041b4:	2204      	movs	r2, #4
 80041b6:	656b      	str	r3, [r5, #84]	@ 0x54
 80041b8:	6d6b      	ldr	r3, [r5, #84]	@ 0x54
 80041ba:	4393      	bics	r3, r2
 80041bc:	656b      	str	r3, [r5, #84]	@ 0x54
 80041be:	6d6b      	ldr	r3, [r5, #84]	@ 0x54
 80041c0:	6922      	ldr	r2, [r4, #16]
 80041c2:	4313      	orrs	r3, r2
 80041c4:	656b      	str	r3, [r5, #84]	@ 0x54
 80041c6:	e7b8      	b.n	800413a <HAL_TIM_PWM_ConfigChannel+0x7a>
 80041c8:	fffffbff 	.word	0xfffffbff

080041cc <TIM_CCxChannelCmd>:
 80041cc:	231f      	movs	r3, #31
 80041ce:	b510      	push	{r4, lr}
 80041d0:	2401      	movs	r4, #1
 80041d2:	4019      	ands	r1, r3
 80041d4:	408c      	lsls	r4, r1
 80041d6:	408a      	lsls	r2, r1
 80041d8:	6a03      	ldr	r3, [r0, #32]
 80041da:	43a3      	bics	r3, r4
 80041dc:	6203      	str	r3, [r0, #32]
 80041de:	6a03      	ldr	r3, [r0, #32]
 80041e0:	431a      	orrs	r2, r3
 80041e2:	6202      	str	r2, [r0, #32]
 80041e4:	bd10      	pop	{r4, pc}
	...

080041e8 <HAL_TIM_OC_Start>:
 80041e8:	0002      	movs	r2, r0
 80041ea:	b510      	push	{r4, lr}
 80041ec:	2908      	cmp	r1, #8
 80041ee:	d01c      	beq.n	800422a <HAL_TIM_OC_Start+0x42>
 80041f0:	d806      	bhi.n	8004200 <HAL_TIM_OC_Start+0x18>
 80041f2:	2900      	cmp	r1, #0
 80041f4:	d00b      	beq.n	800420e <HAL_TIM_OC_Start+0x26>
 80041f6:	2904      	cmp	r1, #4
 80041f8:	d014      	beq.n	8004224 <HAL_TIM_OC_Start+0x3c>
 80041fa:	0013      	movs	r3, r2
 80041fc:	3343      	adds	r3, #67	@ 0x43
 80041fe:	e008      	b.n	8004212 <HAL_TIM_OC_Start+0x2a>
 8004200:	290c      	cmp	r1, #12
 8004202:	d015      	beq.n	8004230 <HAL_TIM_OC_Start+0x48>
 8004204:	2910      	cmp	r1, #16
 8004206:	d1f8      	bne.n	80041fa <HAL_TIM_OC_Start+0x12>
 8004208:	0003      	movs	r3, r0
 800420a:	3342      	adds	r3, #66	@ 0x42
 800420c:	e001      	b.n	8004212 <HAL_TIM_OC_Start+0x2a>
 800420e:	0003      	movs	r3, r0
 8004210:	333e      	adds	r3, #62	@ 0x3e
 8004212:	781b      	ldrb	r3, [r3, #0]
 8004214:	3b01      	subs	r3, #1
 8004216:	1e58      	subs	r0, r3, #1
 8004218:	4183      	sbcs	r3, r0
 800421a:	b2db      	uxtb	r3, r3
 800421c:	2001      	movs	r0, #1
 800421e:	2b00      	cmp	r3, #0
 8004220:	d009      	beq.n	8004236 <HAL_TIM_OC_Start+0x4e>
 8004222:	bd10      	pop	{r4, pc}
 8004224:	0003      	movs	r3, r0
 8004226:	333f      	adds	r3, #63	@ 0x3f
 8004228:	e7f3      	b.n	8004212 <HAL_TIM_OC_Start+0x2a>
 800422a:	0003      	movs	r3, r0
 800422c:	3340      	adds	r3, #64	@ 0x40
 800422e:	e7f0      	b.n	8004212 <HAL_TIM_OC_Start+0x2a>
 8004230:	0003      	movs	r3, r0
 8004232:	3341      	adds	r3, #65	@ 0x41
 8004234:	e7ed      	b.n	8004212 <HAL_TIM_OC_Start+0x2a>
 8004236:	2302      	movs	r3, #2
 8004238:	2908      	cmp	r1, #8
 800423a:	d02d      	beq.n	8004298 <HAL_TIM_OC_Start+0xb0>
 800423c:	d806      	bhi.n	800424c <HAL_TIM_OC_Start+0x64>
 800423e:	2900      	cmp	r1, #0
 8004240:	d00b      	beq.n	800425a <HAL_TIM_OC_Start+0x72>
 8004242:	2904      	cmp	r1, #4
 8004244:	d025      	beq.n	8004292 <HAL_TIM_OC_Start+0xaa>
 8004246:	0010      	movs	r0, r2
 8004248:	3043      	adds	r0, #67	@ 0x43
 800424a:	e008      	b.n	800425e <HAL_TIM_OC_Start+0x76>
 800424c:	290c      	cmp	r1, #12
 800424e:	d026      	beq.n	800429e <HAL_TIM_OC_Start+0xb6>
 8004250:	2910      	cmp	r1, #16
 8004252:	d1f8      	bne.n	8004246 <HAL_TIM_OC_Start+0x5e>
 8004254:	0010      	movs	r0, r2
 8004256:	3042      	adds	r0, #66	@ 0x42
 8004258:	e001      	b.n	800425e <HAL_TIM_OC_Start+0x76>
 800425a:	0010      	movs	r0, r2
 800425c:	303e      	adds	r0, #62	@ 0x3e
 800425e:	7003      	strb	r3, [r0, #0]
 8004260:	6814      	ldr	r4, [r2, #0]
 8004262:	2201      	movs	r2, #1
 8004264:	0020      	movs	r0, r4
 8004266:	f7ff ffb1 	bl	80041cc <TIM_CCxChannelCmd>
 800426a:	4a19      	ldr	r2, [pc, #100]	@ (80042d0 <HAL_TIM_OC_Start+0xe8>)
 800426c:	4294      	cmp	r4, r2
 800426e:	d019      	beq.n	80042a4 <HAL_TIM_OC_Start+0xbc>
 8004270:	4b18      	ldr	r3, [pc, #96]	@ (80042d4 <HAL_TIM_OC_Start+0xec>)
 8004272:	429c      	cmp	r4, r3
 8004274:	d016      	beq.n	80042a4 <HAL_TIM_OC_Start+0xbc>
 8004276:	4b18      	ldr	r3, [pc, #96]	@ (80042d8 <HAL_TIM_OC_Start+0xf0>)
 8004278:	429c      	cmp	r4, r3
 800427a:	d013      	beq.n	80042a4 <HAL_TIM_OC_Start+0xbc>
 800427c:	2380      	movs	r3, #128	@ 0x80
 800427e:	05db      	lsls	r3, r3, #23
 8004280:	429c      	cmp	r4, r3
 8004282:	d117      	bne.n	80042b4 <HAL_TIM_OC_Start+0xcc>
 8004284:	68a3      	ldr	r3, [r4, #8]
 8004286:	4a15      	ldr	r2, [pc, #84]	@ (80042dc <HAL_TIM_OC_Start+0xf4>)
 8004288:	4013      	ands	r3, r2
 800428a:	2b06      	cmp	r3, #6
 800428c:	d11a      	bne.n	80042c4 <HAL_TIM_OC_Start+0xdc>
 800428e:	2000      	movs	r0, #0
 8004290:	e7c7      	b.n	8004222 <HAL_TIM_OC_Start+0x3a>
 8004292:	0010      	movs	r0, r2
 8004294:	303f      	adds	r0, #63	@ 0x3f
 8004296:	e7e2      	b.n	800425e <HAL_TIM_OC_Start+0x76>
 8004298:	0010      	movs	r0, r2
 800429a:	3040      	adds	r0, #64	@ 0x40
 800429c:	e7df      	b.n	800425e <HAL_TIM_OC_Start+0x76>
 800429e:	0010      	movs	r0, r2
 80042a0:	3041      	adds	r0, #65	@ 0x41
 80042a2:	e7dc      	b.n	800425e <HAL_TIM_OC_Start+0x76>
 80042a4:	2380      	movs	r3, #128	@ 0x80
 80042a6:	6c61      	ldr	r1, [r4, #68]	@ 0x44
 80042a8:	021b      	lsls	r3, r3, #8
 80042aa:	430b      	orrs	r3, r1
 80042ac:	6463      	str	r3, [r4, #68]	@ 0x44
 80042ae:	4294      	cmp	r4, r2
 80042b0:	d0e8      	beq.n	8004284 <HAL_TIM_OC_Start+0x9c>
 80042b2:	e7e3      	b.n	800427c <HAL_TIM_OC_Start+0x94>
 80042b4:	4b0a      	ldr	r3, [pc, #40]	@ (80042e0 <HAL_TIM_OC_Start+0xf8>)
 80042b6:	429c      	cmp	r4, r3
 80042b8:	d0e4      	beq.n	8004284 <HAL_TIM_OC_Start+0x9c>
 80042ba:	2301      	movs	r3, #1
 80042bc:	6822      	ldr	r2, [r4, #0]
 80042be:	4313      	orrs	r3, r2
 80042c0:	6023      	str	r3, [r4, #0]
 80042c2:	e7e4      	b.n	800428e <HAL_TIM_OC_Start+0xa6>
 80042c4:	2280      	movs	r2, #128	@ 0x80
 80042c6:	0252      	lsls	r2, r2, #9
 80042c8:	4293      	cmp	r3, r2
 80042ca:	d1f6      	bne.n	80042ba <HAL_TIM_OC_Start+0xd2>
 80042cc:	e7df      	b.n	800428e <HAL_TIM_OC_Start+0xa6>
 80042ce:	46c0      	nop			@ (mov r8, r8)
 80042d0:	40012c00 	.word	0x40012c00
 80042d4:	40014400 	.word	0x40014400
 80042d8:	40014800 	.word	0x40014800
 80042dc:	00010007 	.word	0x00010007
 80042e0:	40000400 	.word	0x40000400

080042e4 <HAL_TIM_PWM_Start>:
 80042e4:	b510      	push	{r4, lr}
 80042e6:	f7ff ff7f 	bl	80041e8 <HAL_TIM_OC_Start>
 80042ea:	bd10      	pop	{r4, pc}

080042ec <HAL_TIMEx_MasterConfigSynchronization>:
 80042ec:	b5f0      	push	{r4, r5, r6, r7, lr}
 80042ee:	0004      	movs	r4, r0
 80042f0:	2202      	movs	r2, #2
 80042f2:	343c      	adds	r4, #60	@ 0x3c
 80042f4:	7825      	ldrb	r5, [r4, #0]
 80042f6:	0003      	movs	r3, r0
 80042f8:	0010      	movs	r0, r2
 80042fa:	2d01      	cmp	r5, #1
 80042fc:	d023      	beq.n	8004346 <HAL_TIMEx_MasterConfigSynchronization+0x5a>
 80042fe:	001d      	movs	r5, r3
 8004300:	353d      	adds	r5, #61	@ 0x3d
 8004302:	702a      	strb	r2, [r5, #0]
 8004304:	681a      	ldr	r2, [r3, #0]
 8004306:	4e10      	ldr	r6, [pc, #64]	@ (8004348 <HAL_TIMEx_MasterConfigSynchronization+0x5c>)
 8004308:	6853      	ldr	r3, [r2, #4]
 800430a:	6890      	ldr	r0, [r2, #8]
 800430c:	42b2      	cmp	r2, r6
 800430e:	d103      	bne.n	8004318 <HAL_TIMEx_MasterConfigSynchronization+0x2c>
 8004310:	4f0e      	ldr	r7, [pc, #56]	@ (800434c <HAL_TIMEx_MasterConfigSynchronization+0x60>)
 8004312:	403b      	ands	r3, r7
 8004314:	684f      	ldr	r7, [r1, #4]
 8004316:	433b      	orrs	r3, r7
 8004318:	2770      	movs	r7, #112	@ 0x70
 800431a:	43bb      	bics	r3, r7
 800431c:	680f      	ldr	r7, [r1, #0]
 800431e:	433b      	orrs	r3, r7
 8004320:	6053      	str	r3, [r2, #4]
 8004322:	42b2      	cmp	r2, r6
 8004324:	d006      	beq.n	8004334 <HAL_TIMEx_MasterConfigSynchronization+0x48>
 8004326:	2380      	movs	r3, #128	@ 0x80
 8004328:	05db      	lsls	r3, r3, #23
 800432a:	429a      	cmp	r2, r3
 800432c:	d002      	beq.n	8004334 <HAL_TIMEx_MasterConfigSynchronization+0x48>
 800432e:	4b08      	ldr	r3, [pc, #32]	@ (8004350 <HAL_TIMEx_MasterConfigSynchronization+0x64>)
 8004330:	429a      	cmp	r2, r3
 8004332:	d104      	bne.n	800433e <HAL_TIMEx_MasterConfigSynchronization+0x52>
 8004334:	2380      	movs	r3, #128	@ 0x80
 8004336:	4398      	bics	r0, r3
 8004338:	688b      	ldr	r3, [r1, #8]
 800433a:	4318      	orrs	r0, r3
 800433c:	6090      	str	r0, [r2, #8]
 800433e:	2301      	movs	r3, #1
 8004340:	2000      	movs	r0, #0
 8004342:	702b      	strb	r3, [r5, #0]
 8004344:	7020      	strb	r0, [r4, #0]
 8004346:	bdf0      	pop	{r4, r5, r6, r7, pc}
 8004348:	40012c00 	.word	0x40012c00
 800434c:	ff0fffff 	.word	0xff0fffff
 8004350:	40000400 	.word	0x40000400

08004354 <HAL_TIMEx_ConfigBreakDeadTime>:
 8004354:	b510      	push	{r4, lr}
 8004356:	0004      	movs	r4, r0
 8004358:	343c      	adds	r4, #60	@ 0x3c
 800435a:	7823      	ldrb	r3, [r4, #0]
 800435c:	0002      	movs	r2, r0
 800435e:	2002      	movs	r0, #2
 8004360:	2b01      	cmp	r3, #1
 8004362:	d039      	beq.n	80043d8 <HAL_TIMEx_ConfigBreakDeadTime+0x84>
 8004364:	481d      	ldr	r0, [pc, #116]	@ (80043dc <HAL_TIMEx_ConfigBreakDeadTime+0x88>)
 8004366:	68cb      	ldr	r3, [r1, #12]
 8004368:	4003      	ands	r3, r0
 800436a:	6888      	ldr	r0, [r1, #8]
 800436c:	4303      	orrs	r3, r0
 800436e:	481c      	ldr	r0, [pc, #112]	@ (80043e0 <HAL_TIMEx_ConfigBreakDeadTime+0x8c>)
 8004370:	4003      	ands	r3, r0
 8004372:	6848      	ldr	r0, [r1, #4]
 8004374:	4303      	orrs	r3, r0
 8004376:	481b      	ldr	r0, [pc, #108]	@ (80043e4 <HAL_TIMEx_ConfigBreakDeadTime+0x90>)
 8004378:	4003      	ands	r3, r0
 800437a:	6808      	ldr	r0, [r1, #0]
 800437c:	4303      	orrs	r3, r0
 800437e:	481a      	ldr	r0, [pc, #104]	@ (80043e8 <HAL_TIMEx_ConfigBreakDeadTime+0x94>)
 8004380:	4003      	ands	r3, r0
 8004382:	6908      	ldr	r0, [r1, #16]
 8004384:	4303      	orrs	r3, r0
 8004386:	4819      	ldr	r0, [pc, #100]	@ (80043ec <HAL_TIMEx_ConfigBreakDeadTime+0x98>)
 8004388:	4003      	ands	r3, r0
 800438a:	6948      	ldr	r0, [r1, #20]
 800438c:	4303      	orrs	r3, r0
 800438e:	4818      	ldr	r0, [pc, #96]	@ (80043f0 <HAL_TIMEx_ConfigBreakDeadTime+0x9c>)
 8004390:	4003      	ands	r3, r0
 8004392:	6b08      	ldr	r0, [r1, #48]	@ 0x30
 8004394:	4303      	orrs	r3, r0
 8004396:	4817      	ldr	r0, [pc, #92]	@ (80043f4 <HAL_TIMEx_ConfigBreakDeadTime+0xa0>)
 8004398:	4003      	ands	r3, r0
 800439a:	6988      	ldr	r0, [r1, #24]
 800439c:	0400      	lsls	r0, r0, #16
 800439e:	4303      	orrs	r3, r0
 80043a0:	4815      	ldr	r0, [pc, #84]	@ (80043f8 <HAL_TIMEx_ConfigBreakDeadTime+0xa4>)
 80043a2:	4003      	ands	r3, r0
 80043a4:	69c8      	ldr	r0, [r1, #28]
 80043a6:	4303      	orrs	r3, r0
 80043a8:	6810      	ldr	r0, [r2, #0]
 80043aa:	4a14      	ldr	r2, [pc, #80]	@ (80043fc <HAL_TIMEx_ConfigBreakDeadTime+0xa8>)
 80043ac:	4290      	cmp	r0, r2
 80043ae:	d110      	bne.n	80043d2 <HAL_TIMEx_ConfigBreakDeadTime+0x7e>
 80043b0:	4a13      	ldr	r2, [pc, #76]	@ (8004400 <HAL_TIMEx_ConfigBreakDeadTime+0xac>)
 80043b2:	4013      	ands	r3, r2
 80043b4:	6a8a      	ldr	r2, [r1, #40]	@ 0x28
 80043b6:	0512      	lsls	r2, r2, #20
 80043b8:	431a      	orrs	r2, r3
 80043ba:	4b12      	ldr	r3, [pc, #72]	@ (8004404 <HAL_TIMEx_ConfigBreakDeadTime+0xb0>)
 80043bc:	401a      	ands	r2, r3
 80043be:	6a0b      	ldr	r3, [r1, #32]
 80043c0:	431a      	orrs	r2, r3
 80043c2:	4b11      	ldr	r3, [pc, #68]	@ (8004408 <HAL_TIMEx_ConfigBreakDeadTime+0xb4>)
 80043c4:	401a      	ands	r2, r3
 80043c6:	6a4b      	ldr	r3, [r1, #36]	@ 0x24
 80043c8:	431a      	orrs	r2, r3
 80043ca:	4b10      	ldr	r3, [pc, #64]	@ (800440c <HAL_TIMEx_ConfigBreakDeadTime+0xb8>)
 80043cc:	401a      	ands	r2, r3
 80043ce:	6acb      	ldr	r3, [r1, #44]	@ 0x2c
 80043d0:	4313      	orrs	r3, r2
 80043d2:	6443      	str	r3, [r0, #68]	@ 0x44
 80043d4:	2000      	movs	r0, #0
 80043d6:	7020      	strb	r0, [r4, #0]
 80043d8:	bd10      	pop	{r4, pc}
 80043da:	46c0      	nop			@ (mov r8, r8)
 80043dc:	fffffcff 	.word	0xfffffcff
 80043e0:	fffffbff 	.word	0xfffffbff
 80043e4:	fffff7ff 	.word	0xfffff7ff
 80043e8:	ffffefff 	.word	0xffffefff
 80043ec:	ffffdfff 	.word	0xffffdfff
 80043f0:	ffffbfff 	.word	0xffffbfff
 80043f4:	fff0ffff 	.word	0xfff0ffff
 80043f8:	efffffff 	.word	0xefffffff
 80043fc:	40012c00 	.word	0x40012c00
 8004400:	ff0fffff 	.word	0xff0fffff
 8004404:	feffffff 	.word	0xfeffffff
 8004408:	fdffffff 	.word	0xfdffffff
 800440c:	dfffffff 	.word	0xdfffffff

08004410 <UART_EndRxTransfer>:
 8004410:	b530      	push	{r4, r5, lr}
 8004412:	f3ef 8410 	mrs	r4, PRIMASK
 8004416:	2201      	movs	r2, #1
 8004418:	f382 8810 	msr	PRIMASK, r2
 800441c:	6801      	ldr	r1, [r0, #0]
 800441e:	4d13      	ldr	r5, [pc, #76]	@ (800446c <UART_EndRxTransfer+0x5c>)
 8004420:	680b      	ldr	r3, [r1, #0]
 8004422:	402b      	ands	r3, r5
 8004424:	600b      	str	r3, [r1, #0]
 8004426:	f384 8810 	msr	PRIMASK, r4
 800442a:	f3ef 8110 	mrs	r1, PRIMASK
 800442e:	f382 8810 	msr	PRIMASK, r2
 8004432:	6802      	ldr	r2, [r0, #0]
 8004434:	4c0e      	ldr	r4, [pc, #56]	@ (8004470 <UART_EndRxTransfer+0x60>)
 8004436:	6893      	ldr	r3, [r2, #8]
 8004438:	4023      	ands	r3, r4
 800443a:	6093      	str	r3, [r2, #8]
 800443c:	f381 8810 	msr	PRIMASK, r1
 8004440:	6ec3      	ldr	r3, [r0, #108]	@ 0x6c
 8004442:	2b01      	cmp	r3, #1
 8004444:	d10a      	bne.n	800445c <UART_EndRxTransfer+0x4c>
 8004446:	f3ef 8110 	mrs	r1, PRIMASK
 800444a:	f383 8810 	msr	PRIMASK, r3
 800444e:	2410      	movs	r4, #16
 8004450:	6802      	ldr	r2, [r0, #0]
 8004452:	6813      	ldr	r3, [r2, #0]
 8004454:	43a3      	bics	r3, r4
 8004456:	6013      	str	r3, [r2, #0]
 8004458:	f381 8810 	msr	PRIMASK, r1
 800445c:	0003      	movs	r3, r0
 800445e:	2220      	movs	r2, #32
 8004460:	338c      	adds	r3, #140	@ 0x8c
 8004462:	601a      	str	r2, [r3, #0]
 8004464:	2300      	movs	r3, #0
 8004466:	66c3      	str	r3, [r0, #108]	@ 0x6c
 8004468:	6743      	str	r3, [r0, #116]	@ 0x74
 800446a:	bd30      	pop	{r4, r5, pc}
 800446c:	fffffedf 	.word	0xfffffedf
 8004470:	effffffe 	.word	0xeffffffe

08004474 <UART_SetConfig>:
 8004474:	b570      	push	{r4, r5, r6, lr}
 8004476:	0004      	movs	r4, r0
 8004478:	6925      	ldr	r5, [r4, #16]
 800447a:	68a1      	ldr	r1, [r4, #8]
 800447c:	6803      	ldr	r3, [r0, #0]
 800447e:	4329      	orrs	r1, r5
 8004480:	6965      	ldr	r5, [r4, #20]
 8004482:	69c2      	ldr	r2, [r0, #28]
 8004484:	4329      	orrs	r1, r5
 8004486:	6818      	ldr	r0, [r3, #0]
 8004488:	4d50      	ldr	r5, [pc, #320]	@ (80045cc <UART_SetConfig+0x158>)
 800448a:	4311      	orrs	r1, r2
 800448c:	4028      	ands	r0, r5
 800448e:	4301      	orrs	r1, r0
 8004490:	6019      	str	r1, [r3, #0]
 8004492:	6859      	ldr	r1, [r3, #4]
 8004494:	484e      	ldr	r0, [pc, #312]	@ (80045d0 <UART_SetConfig+0x15c>)
 8004496:	6a25      	ldr	r5, [r4, #32]
 8004498:	4001      	ands	r1, r0
 800449a:	68e0      	ldr	r0, [r4, #12]
 800449c:	4301      	orrs	r1, r0
 800449e:	6059      	str	r1, [r3, #4]
 80044a0:	69a1      	ldr	r1, [r4, #24]
 80044a2:	6898      	ldr	r0, [r3, #8]
 80044a4:	4329      	orrs	r1, r5
 80044a6:	4d4b      	ldr	r5, [pc, #300]	@ (80045d4 <UART_SetConfig+0x160>)
 80044a8:	4028      	ands	r0, r5
 80044aa:	4301      	orrs	r1, r0
 80044ac:	200f      	movs	r0, #15
 80044ae:	6099      	str	r1, [r3, #8]
 80044b0:	6ad9      	ldr	r1, [r3, #44]	@ 0x2c
 80044b2:	4381      	bics	r1, r0
 80044b4:	6a60      	ldr	r0, [r4, #36]	@ 0x24
 80044b6:	4301      	orrs	r1, r0
 80044b8:	62d9      	str	r1, [r3, #44]	@ 0x2c
 80044ba:	4947      	ldr	r1, [pc, #284]	@ (80045d8 <UART_SetConfig+0x164>)
 80044bc:	428b      	cmp	r3, r1
 80044be:	d115      	bne.n	80044ec <UART_SetConfig+0x78>
 80044c0:	2103      	movs	r1, #3
 80044c2:	4b46      	ldr	r3, [pc, #280]	@ (80045dc <UART_SetConfig+0x168>)
 80044c4:	6d5b      	ldr	r3, [r3, #84]	@ 0x54
 80044c6:	400b      	ands	r3, r1
 80044c8:	3b01      	subs	r3, #1
 80044ca:	2b02      	cmp	r3, #2
 80044cc:	d86f      	bhi.n	80045ae <UART_SetConfig+0x13a>
 80044ce:	4944      	ldr	r1, [pc, #272]	@ (80045e0 <UART_SetConfig+0x16c>)
 80044d0:	5cc8      	ldrb	r0, [r1, r3]
 80044d2:	2380      	movs	r3, #128	@ 0x80
 80044d4:	021b      	lsls	r3, r3, #8
 80044d6:	429a      	cmp	r2, r3
 80044d8:	d137      	bne.n	800454a <UART_SetConfig+0xd6>
 80044da:	2808      	cmp	r0, #8
 80044dc:	d865      	bhi.n	80045aa <UART_SetConfig+0x136>
 80044de:	f7fb fe13 	bl	8000108 <__gnu_thumb1_case_uqi>
 80044e2:	646a      	.short	0x646a
 80044e4:	6431640b 	.word	0x6431640b
 80044e8:	6464      	.short	0x6464
 80044ea:	14          	.byte	0x14
 80044eb:	00          	.byte	0x00
 80044ec:	493d      	ldr	r1, [pc, #244]	@ (80045e4 <UART_SetConfig+0x170>)
 80044ee:	185b      	adds	r3, r3, r1
 80044f0:	1e59      	subs	r1, r3, #1
 80044f2:	418b      	sbcs	r3, r1
 80044f4:	0118      	lsls	r0, r3, #4
 80044f6:	e7ec      	b.n	80044d2 <UART_SetConfig+0x5e>
 80044f8:	4b38      	ldr	r3, [pc, #224]	@ (80045dc <UART_SetConfig+0x168>)
 80044fa:	483b      	ldr	r0, [pc, #236]	@ (80045e8 <UART_SetConfig+0x174>)
 80044fc:	6819      	ldr	r1, [r3, #0]
 80044fe:	0609      	lsls	r1, r1, #24
 8004500:	0f49      	lsrs	r1, r1, #29
 8004502:	3101      	adds	r1, #1
 8004504:	f7fb fe14 	bl	8000130 <__udivsi3>
 8004508:	0002      	movs	r2, r0
 800450a:	6a61      	ldr	r1, [r4, #36]	@ 0x24
 800450c:	4b37      	ldr	r3, [pc, #220]	@ (80045ec <UART_SetConfig+0x178>)
 800450e:	0049      	lsls	r1, r1, #1
 8004510:	0010      	movs	r0, r2
 8004512:	5ac9      	ldrh	r1, [r1, r3]
 8004514:	f7fb fe0c 	bl	8000130 <__udivsi3>
 8004518:	6865      	ldr	r5, [r4, #4]
 800451a:	0040      	lsls	r0, r0, #1
 800451c:	086b      	lsrs	r3, r5, #1
 800451e:	18c0      	adds	r0, r0, r3
 8004520:	0029      	movs	r1, r5
 8004522:	f7fb fe05 	bl	8000130 <__udivsi3>
 8004526:	0002      	movs	r2, r0
 8004528:	4b31      	ldr	r3, [pc, #196]	@ (80045f0 <UART_SetConfig+0x17c>)
 800452a:	3a10      	subs	r2, #16
 800452c:	429a      	cmp	r2, r3
 800452e:	d83c      	bhi.n	80045aa <UART_SetConfig+0x136>
 8004530:	230f      	movs	r3, #15
 8004532:	0002      	movs	r2, r0
 8004534:	0700      	lsls	r0, r0, #28
 8004536:	439a      	bics	r2, r3
 8004538:	b293      	uxth	r3, r2
 800453a:	0f40      	lsrs	r0, r0, #29
 800453c:	6822      	ldr	r2, [r4, #0]
 800453e:	4303      	orrs	r3, r0
 8004540:	60d3      	str	r3, [r2, #12]
 8004542:	e03c      	b.n	80045be <UART_SetConfig+0x14a>
 8004544:	f7ff fa1a 	bl	800397c <HAL_RCC_GetSysClockFreq>
 8004548:	e037      	b.n	80045ba <UART_SetConfig+0x146>
 800454a:	2808      	cmp	r0, #8
 800454c:	d82d      	bhi.n	80045aa <UART_SetConfig+0x136>
 800454e:	f7fb fddb 	bl	8000108 <__gnu_thumb1_case_uqi>
 8004552:	2c05      	.short	0x2c05
 8004554:	2c262c0a 	.word	0x2c262c0a
 8004558:	2c2c      	.short	0x2c2c
 800455a:	29          	.byte	0x29
 800455b:	00          	.byte	0x00
 800455c:	f7ff fb16 	bl	8003b8c <HAL_RCC_GetPCLK1Freq>
 8004560:	2800      	cmp	r0, #0
 8004562:	d02c      	beq.n	80045be <UART_SetConfig+0x14a>
 8004564:	e007      	b.n	8004576 <UART_SetConfig+0x102>
 8004566:	4b1d      	ldr	r3, [pc, #116]	@ (80045dc <UART_SetConfig+0x168>)
 8004568:	481f      	ldr	r0, [pc, #124]	@ (80045e8 <UART_SetConfig+0x174>)
 800456a:	6819      	ldr	r1, [r3, #0]
 800456c:	0609      	lsls	r1, r1, #24
 800456e:	0f49      	lsrs	r1, r1, #29
 8004570:	3101      	adds	r1, #1
 8004572:	f7fb fddd 	bl	8000130 <__udivsi3>
 8004576:	6a62      	ldr	r2, [r4, #36]	@ 0x24
 8004578:	4b1c      	ldr	r3, [pc, #112]	@ (80045ec <UART_SetConfig+0x178>)
 800457a:	0052      	lsls	r2, r2, #1
 800457c:	5ad1      	ldrh	r1, [r2, r3]
 800457e:	f7fb fdd7 	bl	8000130 <__udivsi3>
 8004582:	6865      	ldr	r5, [r4, #4]
 8004584:	086b      	lsrs	r3, r5, #1
 8004586:	18c0      	adds	r0, r0, r3
 8004588:	0029      	movs	r1, r5
 800458a:	f7fb fdd1 	bl	8000130 <__udivsi3>
 800458e:	0002      	movs	r2, r0
 8004590:	4b17      	ldr	r3, [pc, #92]	@ (80045f0 <UART_SetConfig+0x17c>)
 8004592:	3a10      	subs	r2, #16
 8004594:	429a      	cmp	r2, r3
 8004596:	d808      	bhi.n	80045aa <UART_SetConfig+0x136>
 8004598:	6823      	ldr	r3, [r4, #0]
 800459a:	60d8      	str	r0, [r3, #12]
 800459c:	e00f      	b.n	80045be <UART_SetConfig+0x14a>
 800459e:	f7ff f9ed 	bl	800397c <HAL_RCC_GetSysClockFreq>
 80045a2:	e7dd      	b.n	8004560 <UART_SetConfig+0xec>
 80045a4:	2080      	movs	r0, #128	@ 0x80
 80045a6:	0200      	lsls	r0, r0, #8
 80045a8:	e7e5      	b.n	8004576 <UART_SetConfig+0x102>
 80045aa:	2001      	movs	r0, #1
 80045ac:	e008      	b.n	80045c0 <UART_SetConfig+0x14c>
 80045ae:	2380      	movs	r3, #128	@ 0x80
 80045b0:	021b      	lsls	r3, r3, #8
 80045b2:	429a      	cmp	r2, r3
 80045b4:	d1d2      	bne.n	800455c <UART_SetConfig+0xe8>
 80045b6:	f7ff fae9 	bl	8003b8c <HAL_RCC_GetPCLK1Freq>
 80045ba:	1e02      	subs	r2, r0, #0
 80045bc:	d1a5      	bne.n	800450a <UART_SetConfig+0x96>
 80045be:	2000      	movs	r0, #0
 80045c0:	4b0c      	ldr	r3, [pc, #48]	@ (80045f4 <UART_SetConfig+0x180>)
 80045c2:	66a3      	str	r3, [r4, #104]	@ 0x68
 80045c4:	2300      	movs	r3, #0
 80045c6:	6763      	str	r3, [r4, #116]	@ 0x74
 80045c8:	67a3      	str	r3, [r4, #120]	@ 0x78
 80045ca:	bd70      	pop	{r4, r5, r6, pc}
 80045cc:	cfff69f3 	.word	0xcfff69f3
 80045d0:	ffffcfff 	.word	0xffffcfff
 80045d4:	11fff4ff 	.word	0x11fff4ff
 80045d8:	40013800 	.word	0x40013800
 80045dc:	40021000 	.word	0x40021000
 80045e0:	08005b93 	.word	0x08005b93
 80045e4:	bfffbc00 	.word	0xbfffbc00
 80045e8:	02dc6c00 	.word	0x02dc6c00
 80045ec:	08005b96 	.word	0x08005b96
 80045f0:	0000ffef 	.word	0x0000ffef
 80045f4:	00010001 	.word	0x00010001

080045f8 <UART_AdvFeatureConfig>:
 80045f8:	6a83      	ldr	r3, [r0, #40]	@ 0x28
 80045fa:	b530      	push	{r4, r5, lr}
 80045fc:	071a      	lsls	r2, r3, #28
 80045fe:	d506      	bpl.n	800460e <UART_AdvFeatureConfig+0x16>
 8004600:	6801      	ldr	r1, [r0, #0]
 8004602:	4c28      	ldr	r4, [pc, #160]	@ (80046a4 <UART_AdvFeatureConfig+0xac>)
 8004604:	684a      	ldr	r2, [r1, #4]
 8004606:	4022      	ands	r2, r4
 8004608:	6b84      	ldr	r4, [r0, #56]	@ 0x38
 800460a:	4322      	orrs	r2, r4
 800460c:	604a      	str	r2, [r1, #4]
 800460e:	07da      	lsls	r2, r3, #31
 8004610:	d506      	bpl.n	8004620 <UART_AdvFeatureConfig+0x28>
 8004612:	6801      	ldr	r1, [r0, #0]
 8004614:	4c24      	ldr	r4, [pc, #144]	@ (80046a8 <UART_AdvFeatureConfig+0xb0>)
 8004616:	684a      	ldr	r2, [r1, #4]
 8004618:	4022      	ands	r2, r4
 800461a:	6ac4      	ldr	r4, [r0, #44]	@ 0x2c
 800461c:	4322      	orrs	r2, r4
 800461e:	604a      	str	r2, [r1, #4]
 8004620:	079a      	lsls	r2, r3, #30
 8004622:	d506      	bpl.n	8004632 <UART_AdvFeatureConfig+0x3a>
 8004624:	6801      	ldr	r1, [r0, #0]
 8004626:	4c21      	ldr	r4, [pc, #132]	@ (80046ac <UART_AdvFeatureConfig+0xb4>)
 8004628:	684a      	ldr	r2, [r1, #4]
 800462a:	4022      	ands	r2, r4
 800462c:	6b04      	ldr	r4, [r0, #48]	@ 0x30
 800462e:	4322      	orrs	r2, r4
 8004630:	604a      	str	r2, [r1, #4]
 8004632:	075a      	lsls	r2, r3, #29
 8004634:	d506      	bpl.n	8004644 <UART_AdvFeatureConfig+0x4c>
 8004636:	6801      	ldr	r1, [r0, #0]
 8004638:	4c1d      	ldr	r4, [pc, #116]	@ (80046b0 <UART_AdvFeatureConfig+0xb8>)
 800463a:	684a      	ldr	r2, [r1, #4]
 800463c:	4022      	ands	r2, r4
 800463e:	6b44      	ldr	r4, [r0, #52]	@ 0x34
 8004640:	4322      	orrs	r2, r4
 8004642:	604a      	str	r2, [r1, #4]
 8004644:	06da      	lsls	r2, r3, #27
 8004646:	d506      	bpl.n	8004656 <UART_AdvFeatureConfig+0x5e>
 8004648:	6801      	ldr	r1, [r0, #0]
 800464a:	4c1a      	ldr	r4, [pc, #104]	@ (80046b4 <UART_AdvFeatureConfig+0xbc>)
 800464c:	688a      	ldr	r2, [r1, #8]
 800464e:	4022      	ands	r2, r4
 8004650:	6bc4      	ldr	r4, [r0, #60]	@ 0x3c
 8004652:	4322      	orrs	r2, r4
 8004654:	608a      	str	r2, [r1, #8]
 8004656:	069a      	lsls	r2, r3, #26
 8004658:	d506      	bpl.n	8004668 <UART_AdvFeatureConfig+0x70>
 800465a:	6801      	ldr	r1, [r0, #0]
 800465c:	4c16      	ldr	r4, [pc, #88]	@ (80046b8 <UART_AdvFeatureConfig+0xc0>)
 800465e:	688a      	ldr	r2, [r1, #8]
 8004660:	4022      	ands	r2, r4
 8004662:	6c04      	ldr	r4, [r0, #64]	@ 0x40
 8004664:	4322      	orrs	r2, r4
 8004666:	608a      	str	r2, [r1, #8]
 8004668:	065a      	lsls	r2, r3, #25
 800466a:	d510      	bpl.n	800468e <UART_AdvFeatureConfig+0x96>
 800466c:	6801      	ldr	r1, [r0, #0]
 800466e:	4d13      	ldr	r5, [pc, #76]	@ (80046bc <UART_AdvFeatureConfig+0xc4>)
 8004670:	684a      	ldr	r2, [r1, #4]
 8004672:	6c44      	ldr	r4, [r0, #68]	@ 0x44
 8004674:	402a      	ands	r2, r5
 8004676:	4322      	orrs	r2, r4
 8004678:	604a      	str	r2, [r1, #4]
 800467a:	2280      	movs	r2, #128	@ 0x80
 800467c:	0352      	lsls	r2, r2, #13
 800467e:	4294      	cmp	r4, r2
 8004680:	d105      	bne.n	800468e <UART_AdvFeatureConfig+0x96>
 8004682:	684a      	ldr	r2, [r1, #4]
 8004684:	4c0e      	ldr	r4, [pc, #56]	@ (80046c0 <UART_AdvFeatureConfig+0xc8>)
 8004686:	4022      	ands	r2, r4
 8004688:	6c84      	ldr	r4, [r0, #72]	@ 0x48
 800468a:	4322      	orrs	r2, r4
 800468c:	604a      	str	r2, [r1, #4]
 800468e:	061b      	lsls	r3, r3, #24
 8004690:	d506      	bpl.n	80046a0 <UART_AdvFeatureConfig+0xa8>
 8004692:	6802      	ldr	r2, [r0, #0]
 8004694:	490b      	ldr	r1, [pc, #44]	@ (80046c4 <UART_AdvFeatureConfig+0xcc>)
 8004696:	6853      	ldr	r3, [r2, #4]
 8004698:	400b      	ands	r3, r1
 800469a:	6cc1      	ldr	r1, [r0, #76]	@ 0x4c
 800469c:	430b      	orrs	r3, r1
 800469e:	6053      	str	r3, [r2, #4]
 80046a0:	bd30      	pop	{r4, r5, pc}
 80046a2:	46c0      	nop			@ (mov r8, r8)
 80046a4:	ffff7fff 	.word	0xffff7fff
 80046a8:	fffdffff 	.word	0xfffdffff
 80046ac:	fffeffff 	.word	0xfffeffff
 80046b0:	fffbffff 	.word	0xfffbffff
 80046b4:	ffffefff 	.word	0xffffefff
 80046b8:	ffffdfff 	.word	0xffffdfff
 80046bc:	ffefffff 	.word	0xffefffff
 80046c0:	ff9fffff 	.word	0xff9fffff
 80046c4:	fff7ffff 	.word	0xfff7ffff

080046c8 <UART_WaitOnFlagUntilTimeout>:
 80046c8:	b5f7      	push	{r0, r1, r2, r4, r5, r6, r7, lr}
 80046ca:	0004      	movs	r4, r0
 80046cc:	000d      	movs	r5, r1
 80046ce:	0017      	movs	r7, r2
 80046d0:	9300      	str	r3, [sp, #0]
 80046d2:	6822      	ldr	r2, [r4, #0]
 80046d4:	69d3      	ldr	r3, [r2, #28]
 80046d6:	402b      	ands	r3, r5
 80046d8:	1b5b      	subs	r3, r3, r5
 80046da:	4259      	negs	r1, r3
 80046dc:	414b      	adcs	r3, r1
 80046de:	42bb      	cmp	r3, r7
 80046e0:	d001      	beq.n	80046e6 <UART_WaitOnFlagUntilTimeout+0x1e>
 80046e2:	2000      	movs	r0, #0
 80046e4:	e026      	b.n	8004734 <UART_WaitOnFlagUntilTimeout+0x6c>
 80046e6:	9b08      	ldr	r3, [sp, #32]
 80046e8:	3301      	adds	r3, #1
 80046ea:	d0f3      	beq.n	80046d4 <UART_WaitOnFlagUntilTimeout+0xc>
 80046ec:	f7fd f8a6 	bl	800183c <HAL_GetTick>
 80046f0:	9b00      	ldr	r3, [sp, #0]
 80046f2:	1ac0      	subs	r0, r0, r3
 80046f4:	9b08      	ldr	r3, [sp, #32]
 80046f6:	4298      	cmp	r0, r3
 80046f8:	d82d      	bhi.n	8004756 <UART_WaitOnFlagUntilTimeout+0x8e>
 80046fa:	2b00      	cmp	r3, #0
 80046fc:	d02b      	beq.n	8004756 <UART_WaitOnFlagUntilTimeout+0x8e>
 80046fe:	6823      	ldr	r3, [r4, #0]
 8004700:	681a      	ldr	r2, [r3, #0]
 8004702:	0752      	lsls	r2, r2, #29
 8004704:	d5e5      	bpl.n	80046d2 <UART_WaitOnFlagUntilTimeout+0xa>
 8004706:	002a      	movs	r2, r5
 8004708:	2140      	movs	r1, #64	@ 0x40
 800470a:	3a40      	subs	r2, #64	@ 0x40
 800470c:	438a      	bics	r2, r1
 800470e:	d0e0      	beq.n	80046d2 <UART_WaitOnFlagUntilTimeout+0xa>
 8004710:	69da      	ldr	r2, [r3, #28]
 8004712:	2608      	movs	r6, #8
 8004714:	0011      	movs	r1, r2
 8004716:	4031      	ands	r1, r6
 8004718:	9101      	str	r1, [sp, #4]
 800471a:	4232      	tst	r2, r6
 800471c:	d00b      	beq.n	8004736 <UART_WaitOnFlagUntilTimeout+0x6e>
 800471e:	0020      	movs	r0, r4
 8004720:	621e      	str	r6, [r3, #32]
 8004722:	f7ff fe75 	bl	8004410 <UART_EndRxTransfer>
 8004726:	0023      	movs	r3, r4
 8004728:	3390      	adds	r3, #144	@ 0x90
 800472a:	601e      	str	r6, [r3, #0]
 800472c:	2300      	movs	r3, #0
 800472e:	2001      	movs	r0, #1
 8004730:	3484      	adds	r4, #132	@ 0x84
 8004732:	7023      	strb	r3, [r4, #0]
 8004734:	bdfe      	pop	{r1, r2, r3, r4, r5, r6, r7, pc}
 8004736:	2280      	movs	r2, #128	@ 0x80
 8004738:	69d9      	ldr	r1, [r3, #28]
 800473a:	0112      	lsls	r2, r2, #4
 800473c:	4211      	tst	r1, r2
 800473e:	d0c8      	beq.n	80046d2 <UART_WaitOnFlagUntilTimeout+0xa>
 8004740:	621a      	str	r2, [r3, #32]
 8004742:	0020      	movs	r0, r4
 8004744:	f7ff fe64 	bl	8004410 <UART_EndRxTransfer>
 8004748:	0023      	movs	r3, r4
 800474a:	2220      	movs	r2, #32
 800474c:	3390      	adds	r3, #144	@ 0x90
 800474e:	601a      	str	r2, [r3, #0]
 8004750:	9b01      	ldr	r3, [sp, #4]
 8004752:	3484      	adds	r4, #132	@ 0x84
 8004754:	7023      	strb	r3, [r4, #0]
 8004756:	2003      	movs	r0, #3
 8004758:	e7ec      	b.n	8004734 <UART_WaitOnFlagUntilTimeout+0x6c>
	...

0800475c <UART_CheckIdleState>:
 800475c:	0003      	movs	r3, r0
 800475e:	b573      	push	{r0, r1, r4, r5, r6, lr}
 8004760:	2600      	movs	r6, #0
 8004762:	0004      	movs	r4, r0
 8004764:	3390      	adds	r3, #144	@ 0x90
 8004766:	601e      	str	r6, [r3, #0]
 8004768:	f7fd f868 	bl	800183c <HAL_GetTick>
 800476c:	6823      	ldr	r3, [r4, #0]
 800476e:	0005      	movs	r5, r0
 8004770:	681b      	ldr	r3, [r3, #0]
 8004772:	071b      	lsls	r3, r3, #28
 8004774:	d51f      	bpl.n	80047b6 <UART_CheckIdleState+0x5a>
 8004776:	2180      	movs	r1, #128	@ 0x80
 8004778:	4b28      	ldr	r3, [pc, #160]	@ (800481c <UART_CheckIdleState+0xc0>)
 800477a:	0032      	movs	r2, r6
 800477c:	9300      	str	r3, [sp, #0]
 800477e:	0389      	lsls	r1, r1, #14
 8004780:	0003      	movs	r3, r0
 8004782:	0020      	movs	r0, r4
 8004784:	f7ff ffa0 	bl	80046c8 <UART_WaitOnFlagUntilTimeout>
 8004788:	42b0      	cmp	r0, r6
 800478a:	d014      	beq.n	80047b6 <UART_CheckIdleState+0x5a>
 800478c:	f3ef 8110 	mrs	r1, PRIMASK
 8004790:	2301      	movs	r3, #1
 8004792:	f383 8810 	msr	PRIMASK, r3
 8004796:	2080      	movs	r0, #128	@ 0x80
 8004798:	6822      	ldr	r2, [r4, #0]
 800479a:	6813      	ldr	r3, [r2, #0]
 800479c:	4383      	bics	r3, r0
 800479e:	6013      	str	r3, [r2, #0]
 80047a0:	f381 8810 	msr	PRIMASK, r1
 80047a4:	0023      	movs	r3, r4
 80047a6:	2220      	movs	r2, #32
 80047a8:	3388      	adds	r3, #136	@ 0x88
 80047aa:	601a      	str	r2, [r3, #0]
 80047ac:	2003      	movs	r0, #3
 80047ae:	2300      	movs	r3, #0
 80047b0:	3484      	adds	r4, #132	@ 0x84
 80047b2:	7023      	strb	r3, [r4, #0]
 80047b4:	bd76      	pop	{r1, r2, r4, r5, r6, pc}
 80047b6:	0026      	movs	r6, r4
 80047b8:	6823      	ldr	r3, [r4, #0]
 80047ba:	368c      	adds	r6, #140	@ 0x8c
 80047bc:	681b      	ldr	r3, [r3, #0]
 80047be:	075b      	lsls	r3, r3, #29
 80047c0:	d523      	bpl.n	800480a <UART_CheckIdleState+0xae>
 80047c2:	2180      	movs	r1, #128	@ 0x80
 80047c4:	4b15      	ldr	r3, [pc, #84]	@ (800481c <UART_CheckIdleState+0xc0>)
 80047c6:	2200      	movs	r2, #0
 80047c8:	9300      	str	r3, [sp, #0]
 80047ca:	0020      	movs	r0, r4
 80047cc:	002b      	movs	r3, r5
 80047ce:	03c9      	lsls	r1, r1, #15
 80047d0:	f7ff ff7a 	bl	80046c8 <UART_WaitOnFlagUntilTimeout>
 80047d4:	2800      	cmp	r0, #0
 80047d6:	d018      	beq.n	800480a <UART_CheckIdleState+0xae>
 80047d8:	f3ef 8010 	mrs	r0, PRIMASK
 80047dc:	2201      	movs	r2, #1
 80047de:	f382 8810 	msr	PRIMASK, r2
 80047e2:	6821      	ldr	r1, [r4, #0]
 80047e4:	4d0e      	ldr	r5, [pc, #56]	@ (8004820 <UART_CheckIdleState+0xc4>)
 80047e6:	680b      	ldr	r3, [r1, #0]
 80047e8:	402b      	ands	r3, r5
 80047ea:	600b      	str	r3, [r1, #0]
 80047ec:	f380 8810 	msr	PRIMASK, r0
 80047f0:	f3ef 8010 	mrs	r0, PRIMASK
 80047f4:	f382 8810 	msr	PRIMASK, r2
 80047f8:	6821      	ldr	r1, [r4, #0]
 80047fa:	688b      	ldr	r3, [r1, #8]
 80047fc:	4393      	bics	r3, r2
 80047fe:	608b      	str	r3, [r1, #8]
 8004800:	f380 8810 	msr	PRIMASK, r0
 8004804:	2320      	movs	r3, #32
 8004806:	6033      	str	r3, [r6, #0]
 8004808:	e7d0      	b.n	80047ac <UART_CheckIdleState+0x50>
 800480a:	0023      	movs	r3, r4
 800480c:	2220      	movs	r2, #32
 800480e:	2000      	movs	r0, #0
 8004810:	3388      	adds	r3, #136	@ 0x88
 8004812:	601a      	str	r2, [r3, #0]
 8004814:	6032      	str	r2, [r6, #0]
 8004816:	66e0      	str	r0, [r4, #108]	@ 0x6c
 8004818:	6720      	str	r0, [r4, #112]	@ 0x70
 800481a:	e7c8      	b.n	80047ae <UART_CheckIdleState+0x52>
 800481c:	01ffffff 	.word	0x01ffffff
 8004820:	fffffedf 	.word	0xfffffedf

08004824 <HAL_UART_Init>:
 8004824:	b570      	push	{r4, r5, r6, lr}
 8004826:	1e04      	subs	r4, r0, #0
 8004828:	d101      	bne.n	800482e <HAL_UART_Init+0xa>
 800482a:	2001      	movs	r0, #1
 800482c:	bd70      	pop	{r4, r5, r6, pc}
 800482e:	0005      	movs	r5, r0
 8004830:	3588      	adds	r5, #136	@ 0x88
 8004832:	682b      	ldr	r3, [r5, #0]
 8004834:	2b00      	cmp	r3, #0
 8004836:	d104      	bne.n	8004842 <HAL_UART_Init+0x1e>
 8004838:	0002      	movs	r2, r0
 800483a:	3284      	adds	r2, #132	@ 0x84
 800483c:	7013      	strb	r3, [r2, #0]
 800483e:	f7fc ff65 	bl	800170c <HAL_UART_MspInit>
 8004842:	2324      	movs	r3, #36	@ 0x24
 8004844:	2101      	movs	r1, #1
 8004846:	6822      	ldr	r2, [r4, #0]
 8004848:	602b      	str	r3, [r5, #0]
 800484a:	6813      	ldr	r3, [r2, #0]
 800484c:	438b      	bics	r3, r1
 800484e:	6013      	str	r3, [r2, #0]
 8004850:	6aa3      	ldr	r3, [r4, #40]	@ 0x28
 8004852:	2b00      	cmp	r3, #0
 8004854:	d002      	beq.n	800485c <HAL_UART_Init+0x38>
 8004856:	0020      	movs	r0, r4
 8004858:	f7ff fece 	bl	80045f8 <UART_AdvFeatureConfig>
 800485c:	0020      	movs	r0, r4
 800485e:	f7ff fe09 	bl	8004474 <UART_SetConfig>
 8004862:	2801      	cmp	r0, #1
 8004864:	d0e1      	beq.n	800482a <HAL_UART_Init+0x6>
 8004866:	6823      	ldr	r3, [r4, #0]
 8004868:	4907      	ldr	r1, [pc, #28]	@ (8004888 <HAL_UART_Init+0x64>)
 800486a:	685a      	ldr	r2, [r3, #4]
 800486c:	0020      	movs	r0, r4
 800486e:	400a      	ands	r2, r1
 8004870:	212a      	movs	r1, #42	@ 0x2a
 8004872:	605a      	str	r2, [r3, #4]
 8004874:	689a      	ldr	r2, [r3, #8]
 8004876:	438a      	bics	r2, r1
 8004878:	609a      	str	r2, [r3, #8]
 800487a:	2201      	movs	r2, #1
 800487c:	6819      	ldr	r1, [r3, #0]
 800487e:	430a      	orrs	r2, r1
 8004880:	601a      	str	r2, [r3, #0]
 8004882:	f7ff ff6b 	bl	800475c <UART_CheckIdleState>
 8004886:	e7d1      	b.n	800482c <HAL_UART_Init+0x8>
 8004888:	ffffb7ff 	.word	0xffffb7ff

0800488c <UARTEx_SetNbDataToProcess>:
 800488c:	b5f7      	push	{r0, r1, r2, r4, r5, r6, r7, lr}
 800488e:	0007      	movs	r7, r0
 8004890:	6e43      	ldr	r3, [r0, #100]	@ 0x64
 8004892:	0004      	movs	r4, r0
 8004894:	376a      	adds	r7, #106	@ 0x6a
 8004896:	2b00      	cmp	r3, #0
 8004898:	d104      	bne.n	80048a4 <UARTEx_SetNbDataToProcess+0x18>
 800489a:	2001      	movs	r0, #1
 800489c:	8038      	strh	r0, [r7, #0]
 800489e:	3468      	adds	r4, #104	@ 0x68
 80048a0:	8020      	strh	r0, [r4, #0]
 80048a2:	bdf7      	pop	{r0, r1, r2, r4, r5, r6, r7, pc}
 80048a4:	6803      	ldr	r3, [r0, #0]
 80048a6:	4e0b      	ldr	r6, [pc, #44]	@ (80048d4 <UARTEx_SetNbDataToProcess+0x48>)
 80048a8:	689a      	ldr	r2, [r3, #8]
 80048aa:	689b      	ldr	r3, [r3, #8]
 80048ac:	4d0a      	ldr	r5, [pc, #40]	@ (80048d8 <UARTEx_SetNbDataToProcess+0x4c>)
 80048ae:	0f5b      	lsrs	r3, r3, #29
 80048b0:	5cf0      	ldrb	r0, [r6, r3]
 80048b2:	5ce9      	ldrb	r1, [r5, r3]
 80048b4:	00c0      	lsls	r0, r0, #3
 80048b6:	9201      	str	r2, [sp, #4]
 80048b8:	f7fb fcc4 	bl	8000244 <__divsi3>
 80048bc:	9b01      	ldr	r3, [sp, #4]
 80048be:	8038      	strh	r0, [r7, #0]
 80048c0:	011b      	lsls	r3, r3, #4
 80048c2:	0f5b      	lsrs	r3, r3, #29
 80048c4:	5cf0      	ldrb	r0, [r6, r3]
 80048c6:	5ce9      	ldrb	r1, [r5, r3]
 80048c8:	00c0      	lsls	r0, r0, #3
 80048ca:	f7fb fcbb 	bl	8000244 <__divsi3>
 80048ce:	b280      	uxth	r0, r0
 80048d0:	e7e5      	b.n	800489e <UARTEx_SetNbDataToProcess+0x12>
 80048d2:	46c0      	nop			@ (mov r8, r8)
 80048d4:	08005bb6 	.word	0x08005bb6
 80048d8:	08005bae 	.word	0x08005bae

080048dc <HAL_UARTEx_DisableFifoMode>:
 80048dc:	b570      	push	{r4, r5, r6, lr}
 80048de:	0004      	movs	r4, r0
 80048e0:	3484      	adds	r4, #132	@ 0x84
 80048e2:	7822      	ldrb	r2, [r4, #0]
 80048e4:	0003      	movs	r3, r0
 80048e6:	2002      	movs	r0, #2
 80048e8:	2a01      	cmp	r2, #1
 80048ea:	d011      	beq.n	8004910 <HAL_UARTEx_DisableFifoMode+0x34>
 80048ec:	001d      	movs	r5, r3
 80048ee:	2224      	movs	r2, #36	@ 0x24
 80048f0:	2601      	movs	r6, #1
 80048f2:	3588      	adds	r5, #136	@ 0x88
 80048f4:	602a      	str	r2, [r5, #0]
 80048f6:	681a      	ldr	r2, [r3, #0]
 80048f8:	6811      	ldr	r1, [r2, #0]
 80048fa:	6810      	ldr	r0, [r2, #0]
 80048fc:	43b0      	bics	r0, r6
 80048fe:	6010      	str	r0, [r2, #0]
 8004900:	4804      	ldr	r0, [pc, #16]	@ (8004914 <HAL_UARTEx_DisableFifoMode+0x38>)
 8004902:	4001      	ands	r1, r0
 8004904:	2000      	movs	r0, #0
 8004906:	6658      	str	r0, [r3, #100]	@ 0x64
 8004908:	2320      	movs	r3, #32
 800490a:	6011      	str	r1, [r2, #0]
 800490c:	602b      	str	r3, [r5, #0]
 800490e:	7020      	strb	r0, [r4, #0]
 8004910:	bd70      	pop	{r4, r5, r6, pc}
 8004912:	46c0      	nop			@ (mov r8, r8)
 8004914:	dfffffff 	.word	0xdfffffff

08004918 <HAL_UARTEx_SetTxFifoThreshold>:
 8004918:	b5f8      	push	{r3, r4, r5, r6, r7, lr}
 800491a:	0005      	movs	r5, r0
 800491c:	3584      	adds	r5, #132	@ 0x84
 800491e:	000b      	movs	r3, r1
 8004920:	7829      	ldrb	r1, [r5, #0]
 8004922:	2202      	movs	r2, #2
 8004924:	2901      	cmp	r1, #1
 8004926:	d015      	beq.n	8004954 <HAL_UARTEx_SetTxFifoThreshold+0x3c>
 8004928:	0006      	movs	r6, r0
 800492a:	2101      	movs	r1, #1
 800492c:	6804      	ldr	r4, [r0, #0]
 800492e:	3688      	adds	r6, #136	@ 0x88
 8004930:	3222      	adds	r2, #34	@ 0x22
 8004932:	6032      	str	r2, [r6, #0]
 8004934:	6827      	ldr	r7, [r4, #0]
 8004936:	6822      	ldr	r2, [r4, #0]
 8004938:	438a      	bics	r2, r1
 800493a:	6022      	str	r2, [r4, #0]
 800493c:	68a1      	ldr	r1, [r4, #8]
 800493e:	00c9      	lsls	r1, r1, #3
 8004940:	08c9      	lsrs	r1, r1, #3
 8004942:	4319      	orrs	r1, r3
 8004944:	60a1      	str	r1, [r4, #8]
 8004946:	f7ff ffa1 	bl	800488c <UARTEx_SetNbDataToProcess>
 800494a:	2320      	movs	r3, #32
 800494c:	2200      	movs	r2, #0
 800494e:	6027      	str	r7, [r4, #0]
 8004950:	6033      	str	r3, [r6, #0]
 8004952:	702a      	strb	r2, [r5, #0]
 8004954:	0010      	movs	r0, r2
 8004956:	bdf8      	pop	{r3, r4, r5, r6, r7, pc}

08004958 <HAL_UARTEx_SetRxFifoThreshold>:
 8004958:	b5f8      	push	{r3, r4, r5, r6, r7, lr}
 800495a:	0005      	movs	r5, r0
 800495c:	3584      	adds	r5, #132	@ 0x84
 800495e:	000a      	movs	r2, r1
 8004960:	7829      	ldrb	r1, [r5, #0]
 8004962:	2302      	movs	r3, #2
 8004964:	2901      	cmp	r1, #1
 8004966:	d015      	beq.n	8004994 <HAL_UARTEx_SetRxFifoThreshold+0x3c>
 8004968:	0006      	movs	r6, r0
 800496a:	2101      	movs	r1, #1
 800496c:	6804      	ldr	r4, [r0, #0]
 800496e:	3688      	adds	r6, #136	@ 0x88
 8004970:	3322      	adds	r3, #34	@ 0x22
 8004972:	6033      	str	r3, [r6, #0]
 8004974:	6827      	ldr	r7, [r4, #0]
 8004976:	6823      	ldr	r3, [r4, #0]
 8004978:	438b      	bics	r3, r1
 800497a:	6023      	str	r3, [r4, #0]
 800497c:	68a1      	ldr	r1, [r4, #8]
 800497e:	4b06      	ldr	r3, [pc, #24]	@ (8004998 <HAL_UARTEx_SetRxFifoThreshold+0x40>)
 8004980:	4019      	ands	r1, r3
 8004982:	4311      	orrs	r1, r2
 8004984:	60a1      	str	r1, [r4, #8]
 8004986:	f7ff ff81 	bl	800488c <UARTEx_SetNbDataToProcess>
 800498a:	2320      	movs	r3, #32
 800498c:	6027      	str	r7, [r4, #0]
 800498e:	6033      	str	r3, [r6, #0]
 8004990:	2300      	movs	r3, #0
 8004992:	702b      	strb	r3, [r5, #0]
 8004994:	0018      	movs	r0, r3
 8004996:	bdf8      	pop	{r3, r4, r5, r6, r7, pc}
 8004998:	f1ffffff 	.word	0xf1ffffff

0800499c <sniprintf>:
 800499c:	b40c      	push	{r2, r3}
 800499e:	b530      	push	{r4, r5, lr}
 80049a0:	4b17      	ldr	r3, [pc, #92]	@ (8004a00 <sniprintf+0x64>)
 80049a2:	000c      	movs	r4, r1
 80049a4:	681d      	ldr	r5, [r3, #0]
 80049a6:	b09d      	sub	sp, #116	@ 0x74
 80049a8:	2900      	cmp	r1, #0
 80049aa:	da08      	bge.n	80049be <sniprintf+0x22>
 80049ac:	238b      	movs	r3, #139	@ 0x8b
 80049ae:	2001      	movs	r0, #1
 80049b0:	602b      	str	r3, [r5, #0]
 80049b2:	4240      	negs	r0, r0
 80049b4:	b01d      	add	sp, #116	@ 0x74
 80049b6:	bc30      	pop	{r4, r5}
 80049b8:	bc08      	pop	{r3}
 80049ba:	b002      	add	sp, #8
 80049bc:	4718      	bx	r3
 80049be:	2382      	movs	r3, #130	@ 0x82
 80049c0:	466a      	mov	r2, sp
 80049c2:	009b      	lsls	r3, r3, #2
 80049c4:	8293      	strh	r3, [r2, #20]
 80049c6:	2300      	movs	r3, #0
 80049c8:	9002      	str	r0, [sp, #8]
 80049ca:	9006      	str	r0, [sp, #24]
 80049cc:	4299      	cmp	r1, r3
 80049ce:	d000      	beq.n	80049d2 <sniprintf+0x36>
 80049d0:	1e4b      	subs	r3, r1, #1
 80049d2:	9304      	str	r3, [sp, #16]
 80049d4:	9307      	str	r3, [sp, #28]
 80049d6:	2301      	movs	r3, #1
 80049d8:	466a      	mov	r2, sp
 80049da:	425b      	negs	r3, r3
 80049dc:	82d3      	strh	r3, [r2, #22]
 80049de:	0028      	movs	r0, r5
 80049e0:	ab21      	add	r3, sp, #132	@ 0x84
 80049e2:	9a20      	ldr	r2, [sp, #128]	@ 0x80
 80049e4:	a902      	add	r1, sp, #8
 80049e6:	9301      	str	r3, [sp, #4]
 80049e8:	f000 f8aa 	bl	8004b40 <_svfiprintf_r>
 80049ec:	1c43      	adds	r3, r0, #1
 80049ee:	da01      	bge.n	80049f4 <sniprintf+0x58>
 80049f0:	238b      	movs	r3, #139	@ 0x8b
 80049f2:	602b      	str	r3, [r5, #0]
 80049f4:	2c00      	cmp	r4, #0
 80049f6:	d0dd      	beq.n	80049b4 <sniprintf+0x18>
 80049f8:	2200      	movs	r2, #0
 80049fa:	9b02      	ldr	r3, [sp, #8]
 80049fc:	701a      	strb	r2, [r3, #0]
 80049fe:	e7d9      	b.n	80049b4 <sniprintf+0x18>
 8004a00:	20000074 	.word	0x20000074

08004a04 <memset>:
 8004a04:	0003      	movs	r3, r0
 8004a06:	1882      	adds	r2, r0, r2
 8004a08:	4293      	cmp	r3, r2
 8004a0a:	d100      	bne.n	8004a0e <memset+0xa>
 8004a0c:	4770      	bx	lr
 8004a0e:	7019      	strb	r1, [r3, #0]
 8004a10:	3301      	adds	r3, #1
 8004a12:	e7f9      	b.n	8004a08 <memset+0x4>

08004a14 <__errno>:
 8004a14:	4b01      	ldr	r3, [pc, #4]	@ (8004a1c <__errno+0x8>)
 8004a16:	6818      	ldr	r0, [r3, #0]
 8004a18:	4770      	bx	lr
 8004a1a:	46c0      	nop			@ (mov r8, r8)
 8004a1c:	20000074 	.word	0x20000074

08004a20 <__libc_init_array>:
 8004a20:	b570      	push	{r4, r5, r6, lr}
 8004a22:	2600      	movs	r6, #0
 8004a24:	4c0c      	ldr	r4, [pc, #48]	@ (8004a58 <__libc_init_array+0x38>)
 8004a26:	4d0d      	ldr	r5, [pc, #52]	@ (8004a5c <__libc_init_array+0x3c>)
 8004a28:	1b64      	subs	r4, r4, r5
 8004a2a:	10a4      	asrs	r4, r4, #2
 8004a2c:	42a6      	cmp	r6, r4
 8004a2e:	d109      	bne.n	8004a44 <__libc_init_array+0x24>
 8004a30:	2600      	movs	r6, #0
 8004a32:	f000 fc65 	bl	8005300 <_init>
 8004a36:	4c0a      	ldr	r4, [pc, #40]	@ (8004a60 <__libc_init_array+0x40>)
 8004a38:	4d0a      	ldr	r5, [pc, #40]	@ (8004a64 <__libc_init_array+0x44>)
 8004a3a:	1b64      	subs	r4, r4, r5
 8004a3c:	10a4      	asrs	r4, r4, #2
 8004a3e:	42a6      	cmp	r6, r4
 8004a40:	d105      	bne.n	8004a4e <__libc_init_array+0x2e>
 8004a42:	bd70      	pop	{r4, r5, r6, pc}
 8004a44:	00b3      	lsls	r3, r6, #2
 8004a46:	58eb      	ldr	r3, [r5, r3]
 8004a48:	4798      	blx	r3
 8004a4a:	3601      	adds	r6, #1
 8004a4c:	e7ee      	b.n	8004a2c <__libc_init_array+0xc>
 8004a4e:	00b3      	lsls	r3, r6, #2
 8004a50:	58eb      	ldr	r3, [r5, r3]
 8004a52:	4798      	blx	r3
 8004a54:	3601      	adds	r6, #1
 8004a56:	e7f2      	b.n	8004a3e <__libc_init_array+0x1e>
 8004a58:	08005bf4 	.word	0x08005bf4
 8004a5c:	08005bf4 	.word	0x08005bf4
 8004a60:	08005bf8 	.word	0x08005bf8
 8004a64:	08005bf4 	.word	0x08005bf4

08004a68 <__retarget_lock_acquire_recursive>:
 8004a68:	4770      	bx	lr

08004a6a <__retarget_lock_release_recursive>:
 8004a6a:	4770      	bx	lr

08004a6c <memcpy>:
 8004a6c:	2300      	movs	r3, #0
 8004a6e:	b510      	push	{r4, lr}
 8004a70:	429a      	cmp	r2, r3
 8004a72:	d100      	bne.n	8004a76 <memcpy+0xa>
 8004a74:	bd10      	pop	{r4, pc}
 8004a76:	5ccc      	ldrb	r4, [r1, r3]
 8004a78:	54c4      	strb	r4, [r0, r3]
 8004a7a:	3301      	adds	r3, #1
 8004a7c:	e7f8      	b.n	8004a70 <memcpy+0x4>
	...

08004a80 <__ssputs_r>:
 8004a80:	b5f0      	push	{r4, r5, r6, r7, lr}
 8004a82:	688e      	ldr	r6, [r1, #8]
 8004a84:	b085      	sub	sp, #20
 8004a86:	001f      	movs	r7, r3
 8004a88:	000c      	movs	r4, r1
 8004a8a:	680b      	ldr	r3, [r1, #0]
 8004a8c:	9002      	str	r0, [sp, #8]
 8004a8e:	9203      	str	r2, [sp, #12]
 8004a90:	42be      	cmp	r6, r7
 8004a92:	d830      	bhi.n	8004af6 <__ssputs_r+0x76>
 8004a94:	210c      	movs	r1, #12
 8004a96:	5e62      	ldrsh	r2, [r4, r1]
 8004a98:	2190      	movs	r1, #144	@ 0x90
 8004a9a:	00c9      	lsls	r1, r1, #3
 8004a9c:	420a      	tst	r2, r1
 8004a9e:	d028      	beq.n	8004af2 <__ssputs_r+0x72>
 8004aa0:	2003      	movs	r0, #3
 8004aa2:	6921      	ldr	r1, [r4, #16]
 8004aa4:	1a5b      	subs	r3, r3, r1
 8004aa6:	9301      	str	r3, [sp, #4]
 8004aa8:	6963      	ldr	r3, [r4, #20]
 8004aaa:	4343      	muls	r3, r0
 8004aac:	9801      	ldr	r0, [sp, #4]
 8004aae:	0fdd      	lsrs	r5, r3, #31
 8004ab0:	18ed      	adds	r5, r5, r3
 8004ab2:	1c7b      	adds	r3, r7, #1
 8004ab4:	181b      	adds	r3, r3, r0
 8004ab6:	106d      	asrs	r5, r5, #1
 8004ab8:	42ab      	cmp	r3, r5
 8004aba:	d900      	bls.n	8004abe <__ssputs_r+0x3e>
 8004abc:	001d      	movs	r5, r3
 8004abe:	0552      	lsls	r2, r2, #21
 8004ac0:	d528      	bpl.n	8004b14 <__ssputs_r+0x94>
 8004ac2:	0029      	movs	r1, r5
 8004ac4:	9802      	ldr	r0, [sp, #8]
 8004ac6:	f000 f95b 	bl	8004d80 <_malloc_r>
 8004aca:	1e06      	subs	r6, r0, #0
 8004acc:	d02c      	beq.n	8004b28 <__ssputs_r+0xa8>
 8004ace:	9a01      	ldr	r2, [sp, #4]
 8004ad0:	6921      	ldr	r1, [r4, #16]
 8004ad2:	f7ff ffcb 	bl	8004a6c <memcpy>
 8004ad6:	89a2      	ldrh	r2, [r4, #12]
 8004ad8:	4b18      	ldr	r3, [pc, #96]	@ (8004b3c <__ssputs_r+0xbc>)
 8004ada:	401a      	ands	r2, r3
 8004adc:	2380      	movs	r3, #128	@ 0x80
 8004ade:	4313      	orrs	r3, r2
 8004ae0:	81a3      	strh	r3, [r4, #12]
 8004ae2:	9b01      	ldr	r3, [sp, #4]
 8004ae4:	6126      	str	r6, [r4, #16]
 8004ae6:	18f6      	adds	r6, r6, r3
 8004ae8:	6026      	str	r6, [r4, #0]
 8004aea:	003e      	movs	r6, r7
 8004aec:	6165      	str	r5, [r4, #20]
 8004aee:	1aed      	subs	r5, r5, r3
 8004af0:	60a5      	str	r5, [r4, #8]
 8004af2:	42be      	cmp	r6, r7
 8004af4:	d900      	bls.n	8004af8 <__ssputs_r+0x78>
 8004af6:	003e      	movs	r6, r7
 8004af8:	0032      	movs	r2, r6
 8004afa:	9903      	ldr	r1, [sp, #12]
 8004afc:	6820      	ldr	r0, [r4, #0]
 8004afe:	f000 fb7c 	bl	80051fa <memmove>
 8004b02:	2000      	movs	r0, #0
 8004b04:	68a3      	ldr	r3, [r4, #8]
 8004b06:	1b9b      	subs	r3, r3, r6
 8004b08:	60a3      	str	r3, [r4, #8]
 8004b0a:	6823      	ldr	r3, [r4, #0]
 8004b0c:	199b      	adds	r3, r3, r6
 8004b0e:	6023      	str	r3, [r4, #0]
 8004b10:	b005      	add	sp, #20
 8004b12:	bdf0      	pop	{r4, r5, r6, r7, pc}
 8004b14:	002a      	movs	r2, r5
 8004b16:	9802      	ldr	r0, [sp, #8]
 8004b18:	f000 fb40 	bl	800519c <_realloc_r>
 8004b1c:	1e06      	subs	r6, r0, #0
 8004b1e:	d1e0      	bne.n	8004ae2 <__ssputs_r+0x62>
 8004b20:	6921      	ldr	r1, [r4, #16]
 8004b22:	9802      	ldr	r0, [sp, #8]
 8004b24:	f000 fb9a 	bl	800525c <_free_r>
 8004b28:	230c      	movs	r3, #12
 8004b2a:	2001      	movs	r0, #1
 8004b2c:	9a02      	ldr	r2, [sp, #8]
 8004b2e:	4240      	negs	r0, r0
 8004b30:	6013      	str	r3, [r2, #0]
 8004b32:	89a2      	ldrh	r2, [r4, #12]
 8004b34:	3334      	adds	r3, #52	@ 0x34
 8004b36:	4313      	orrs	r3, r2
 8004b38:	81a3      	strh	r3, [r4, #12]
 8004b3a:	e7e9      	b.n	8004b10 <__ssputs_r+0x90>
 8004b3c:	fffffb7f 	.word	0xfffffb7f

08004b40 <_svfiprintf_r>:
 8004b40:	b5f0      	push	{r4, r5, r6, r7, lr}
 8004b42:	b0a1      	sub	sp, #132	@ 0x84
 8004b44:	9003      	str	r0, [sp, #12]
 8004b46:	001d      	movs	r5, r3
 8004b48:	898b      	ldrh	r3, [r1, #12]
 8004b4a:	000f      	movs	r7, r1
 8004b4c:	0016      	movs	r6, r2
 8004b4e:	061b      	lsls	r3, r3, #24
 8004b50:	d511      	bpl.n	8004b76 <_svfiprintf_r+0x36>
 8004b52:	690b      	ldr	r3, [r1, #16]
 8004b54:	2b00      	cmp	r3, #0
 8004b56:	d10e      	bne.n	8004b76 <_svfiprintf_r+0x36>
 8004b58:	2140      	movs	r1, #64	@ 0x40
 8004b5a:	f000 f911 	bl	8004d80 <_malloc_r>
 8004b5e:	6038      	str	r0, [r7, #0]
 8004b60:	6138      	str	r0, [r7, #16]
 8004b62:	2800      	cmp	r0, #0
 8004b64:	d105      	bne.n	8004b72 <_svfiprintf_r+0x32>
 8004b66:	230c      	movs	r3, #12
 8004b68:	9a03      	ldr	r2, [sp, #12]
 8004b6a:	6013      	str	r3, [r2, #0]
 8004b6c:	2001      	movs	r0, #1
 8004b6e:	4240      	negs	r0, r0
 8004b70:	e0cf      	b.n	8004d12 <_svfiprintf_r+0x1d2>
 8004b72:	2340      	movs	r3, #64	@ 0x40
 8004b74:	617b      	str	r3, [r7, #20]
 8004b76:	2300      	movs	r3, #0
 8004b78:	ac08      	add	r4, sp, #32
 8004b7a:	6163      	str	r3, [r4, #20]
 8004b7c:	3320      	adds	r3, #32
 8004b7e:	7663      	strb	r3, [r4, #25]
 8004b80:	3310      	adds	r3, #16
 8004b82:	76a3      	strb	r3, [r4, #26]
 8004b84:	9507      	str	r5, [sp, #28]
 8004b86:	0035      	movs	r5, r6
 8004b88:	782b      	ldrb	r3, [r5, #0]
 8004b8a:	2b00      	cmp	r3, #0
 8004b8c:	d001      	beq.n	8004b92 <_svfiprintf_r+0x52>
 8004b8e:	2b25      	cmp	r3, #37	@ 0x25
 8004b90:	d148      	bne.n	8004c24 <_svfiprintf_r+0xe4>
 8004b92:	1bab      	subs	r3, r5, r6
 8004b94:	9305      	str	r3, [sp, #20]
 8004b96:	42b5      	cmp	r5, r6
 8004b98:	d00b      	beq.n	8004bb2 <_svfiprintf_r+0x72>
 8004b9a:	0032      	movs	r2, r6
 8004b9c:	0039      	movs	r1, r7
 8004b9e:	9803      	ldr	r0, [sp, #12]
 8004ba0:	f7ff ff6e 	bl	8004a80 <__ssputs_r>
 8004ba4:	3001      	adds	r0, #1
 8004ba6:	d100      	bne.n	8004baa <_svfiprintf_r+0x6a>
 8004ba8:	e0ae      	b.n	8004d08 <_svfiprintf_r+0x1c8>
 8004baa:	6963      	ldr	r3, [r4, #20]
 8004bac:	9a05      	ldr	r2, [sp, #20]
 8004bae:	189b      	adds	r3, r3, r2
 8004bb0:	6163      	str	r3, [r4, #20]
 8004bb2:	782b      	ldrb	r3, [r5, #0]
 8004bb4:	2b00      	cmp	r3, #0
 8004bb6:	d100      	bne.n	8004bba <_svfiprintf_r+0x7a>
 8004bb8:	e0a6      	b.n	8004d08 <_svfiprintf_r+0x1c8>
 8004bba:	2201      	movs	r2, #1
 8004bbc:	2300      	movs	r3, #0
 8004bbe:	4252      	negs	r2, r2
 8004bc0:	6062      	str	r2, [r4, #4]
 8004bc2:	a904      	add	r1, sp, #16
 8004bc4:	3254      	adds	r2, #84	@ 0x54
 8004bc6:	1852      	adds	r2, r2, r1
 8004bc8:	1c6e      	adds	r6, r5, #1
 8004bca:	6023      	str	r3, [r4, #0]
 8004bcc:	60e3      	str	r3, [r4, #12]
 8004bce:	60a3      	str	r3, [r4, #8]
 8004bd0:	7013      	strb	r3, [r2, #0]
 8004bd2:	65a3      	str	r3, [r4, #88]	@ 0x58
 8004bd4:	4b54      	ldr	r3, [pc, #336]	@ (8004d28 <_svfiprintf_r+0x1e8>)
 8004bd6:	2205      	movs	r2, #5
 8004bd8:	0018      	movs	r0, r3
 8004bda:	7831      	ldrb	r1, [r6, #0]
 8004bdc:	9305      	str	r3, [sp, #20]
 8004bde:	f000 fb31 	bl	8005244 <memchr>
 8004be2:	1c75      	adds	r5, r6, #1
 8004be4:	2800      	cmp	r0, #0
 8004be6:	d11f      	bne.n	8004c28 <_svfiprintf_r+0xe8>
 8004be8:	6822      	ldr	r2, [r4, #0]
 8004bea:	06d3      	lsls	r3, r2, #27
 8004bec:	d504      	bpl.n	8004bf8 <_svfiprintf_r+0xb8>
 8004bee:	2353      	movs	r3, #83	@ 0x53
 8004bf0:	a904      	add	r1, sp, #16
 8004bf2:	185b      	adds	r3, r3, r1
 8004bf4:	2120      	movs	r1, #32
 8004bf6:	7019      	strb	r1, [r3, #0]
 8004bf8:	0713      	lsls	r3, r2, #28
 8004bfa:	d504      	bpl.n	8004c06 <_svfiprintf_r+0xc6>
 8004bfc:	2353      	movs	r3, #83	@ 0x53
 8004bfe:	a904      	add	r1, sp, #16
 8004c00:	185b      	adds	r3, r3, r1
 8004c02:	212b      	movs	r1, #43	@ 0x2b
 8004c04:	7019      	strb	r1, [r3, #0]
 8004c06:	7833      	ldrb	r3, [r6, #0]
 8004c08:	2b2a      	cmp	r3, #42	@ 0x2a
 8004c0a:	d016      	beq.n	8004c3a <_svfiprintf_r+0xfa>
 8004c0c:	0035      	movs	r5, r6
 8004c0e:	2100      	movs	r1, #0
 8004c10:	200a      	movs	r0, #10
 8004c12:	68e3      	ldr	r3, [r4, #12]
 8004c14:	782a      	ldrb	r2, [r5, #0]
 8004c16:	1c6e      	adds	r6, r5, #1
 8004c18:	3a30      	subs	r2, #48	@ 0x30
 8004c1a:	2a09      	cmp	r2, #9
 8004c1c:	d950      	bls.n	8004cc0 <_svfiprintf_r+0x180>
 8004c1e:	2900      	cmp	r1, #0
 8004c20:	d111      	bne.n	8004c46 <_svfiprintf_r+0x106>
 8004c22:	e017      	b.n	8004c54 <_svfiprintf_r+0x114>
 8004c24:	3501      	adds	r5, #1
 8004c26:	e7af      	b.n	8004b88 <_svfiprintf_r+0x48>
 8004c28:	9b05      	ldr	r3, [sp, #20]
 8004c2a:	6822      	ldr	r2, [r4, #0]
 8004c2c:	1ac0      	subs	r0, r0, r3
 8004c2e:	2301      	movs	r3, #1
 8004c30:	4083      	lsls	r3, r0
 8004c32:	4313      	orrs	r3, r2
 8004c34:	002e      	movs	r6, r5
 8004c36:	6023      	str	r3, [r4, #0]
 8004c38:	e7cc      	b.n	8004bd4 <_svfiprintf_r+0x94>
 8004c3a:	9b07      	ldr	r3, [sp, #28]
 8004c3c:	1d19      	adds	r1, r3, #4
 8004c3e:	681b      	ldr	r3, [r3, #0]
 8004c40:	9107      	str	r1, [sp, #28]
 8004c42:	2b00      	cmp	r3, #0
 8004c44:	db01      	blt.n	8004c4a <_svfiprintf_r+0x10a>
 8004c46:	930b      	str	r3, [sp, #44]	@ 0x2c
 8004c48:	e004      	b.n	8004c54 <_svfiprintf_r+0x114>
 8004c4a:	425b      	negs	r3, r3
 8004c4c:	60e3      	str	r3, [r4, #12]
 8004c4e:	2302      	movs	r3, #2
 8004c50:	4313      	orrs	r3, r2
 8004c52:	6023      	str	r3, [r4, #0]
 8004c54:	782b      	ldrb	r3, [r5, #0]
 8004c56:	2b2e      	cmp	r3, #46	@ 0x2e
 8004c58:	d10c      	bne.n	8004c74 <_svfiprintf_r+0x134>
 8004c5a:	786b      	ldrb	r3, [r5, #1]
 8004c5c:	2b2a      	cmp	r3, #42	@ 0x2a
 8004c5e:	d134      	bne.n	8004cca <_svfiprintf_r+0x18a>
 8004c60:	9b07      	ldr	r3, [sp, #28]
 8004c62:	3502      	adds	r5, #2
 8004c64:	1d1a      	adds	r2, r3, #4
 8004c66:	681b      	ldr	r3, [r3, #0]
 8004c68:	9207      	str	r2, [sp, #28]
 8004c6a:	2b00      	cmp	r3, #0
 8004c6c:	da01      	bge.n	8004c72 <_svfiprintf_r+0x132>
 8004c6e:	2301      	movs	r3, #1
 8004c70:	425b      	negs	r3, r3
 8004c72:	9309      	str	r3, [sp, #36]	@ 0x24
 8004c74:	4e2d      	ldr	r6, [pc, #180]	@ (8004d2c <_svfiprintf_r+0x1ec>)
 8004c76:	2203      	movs	r2, #3
 8004c78:	0030      	movs	r0, r6
 8004c7a:	7829      	ldrb	r1, [r5, #0]
 8004c7c:	f000 fae2 	bl	8005244 <memchr>
 8004c80:	2800      	cmp	r0, #0
 8004c82:	d006      	beq.n	8004c92 <_svfiprintf_r+0x152>
 8004c84:	2340      	movs	r3, #64	@ 0x40
 8004c86:	1b80      	subs	r0, r0, r6
 8004c88:	4083      	lsls	r3, r0
 8004c8a:	6822      	ldr	r2, [r4, #0]
 8004c8c:	3501      	adds	r5, #1
 8004c8e:	4313      	orrs	r3, r2
 8004c90:	6023      	str	r3, [r4, #0]
 8004c92:	7829      	ldrb	r1, [r5, #0]
 8004c94:	2206      	movs	r2, #6
 8004c96:	4826      	ldr	r0, [pc, #152]	@ (8004d30 <_svfiprintf_r+0x1f0>)
 8004c98:	1c6e      	adds	r6, r5, #1
 8004c9a:	7621      	strb	r1, [r4, #24]
 8004c9c:	f000 fad2 	bl	8005244 <memchr>
 8004ca0:	2800      	cmp	r0, #0
 8004ca2:	d038      	beq.n	8004d16 <_svfiprintf_r+0x1d6>
 8004ca4:	4b23      	ldr	r3, [pc, #140]	@ (8004d34 <_svfiprintf_r+0x1f4>)
 8004ca6:	2b00      	cmp	r3, #0
 8004ca8:	d122      	bne.n	8004cf0 <_svfiprintf_r+0x1b0>
 8004caa:	2207      	movs	r2, #7
 8004cac:	9b07      	ldr	r3, [sp, #28]
 8004cae:	3307      	adds	r3, #7
 8004cb0:	4393      	bics	r3, r2
 8004cb2:	3308      	adds	r3, #8
 8004cb4:	9307      	str	r3, [sp, #28]
 8004cb6:	6963      	ldr	r3, [r4, #20]
 8004cb8:	9a04      	ldr	r2, [sp, #16]
 8004cba:	189b      	adds	r3, r3, r2
 8004cbc:	6163      	str	r3, [r4, #20]
 8004cbe:	e762      	b.n	8004b86 <_svfiprintf_r+0x46>
 8004cc0:	4343      	muls	r3, r0
 8004cc2:	0035      	movs	r5, r6
 8004cc4:	2101      	movs	r1, #1
 8004cc6:	189b      	adds	r3, r3, r2
 8004cc8:	e7a4      	b.n	8004c14 <_svfiprintf_r+0xd4>
 8004cca:	2300      	movs	r3, #0
 8004ccc:	200a      	movs	r0, #10
 8004cce:	0019      	movs	r1, r3
 8004cd0:	3501      	adds	r5, #1
 8004cd2:	6063      	str	r3, [r4, #4]
 8004cd4:	782a      	ldrb	r2, [r5, #0]
 8004cd6:	1c6e      	adds	r6, r5, #1
 8004cd8:	3a30      	subs	r2, #48	@ 0x30
 8004cda:	2a09      	cmp	r2, #9
 8004cdc:	d903      	bls.n	8004ce6 <_svfiprintf_r+0x1a6>
 8004cde:	2b00      	cmp	r3, #0
 8004ce0:	d0c8      	beq.n	8004c74 <_svfiprintf_r+0x134>
 8004ce2:	9109      	str	r1, [sp, #36]	@ 0x24
 8004ce4:	e7c6      	b.n	8004c74 <_svfiprintf_r+0x134>
 8004ce6:	4341      	muls	r1, r0
 8004ce8:	0035      	movs	r5, r6
 8004cea:	2301      	movs	r3, #1
 8004cec:	1889      	adds	r1, r1, r2
 8004cee:	e7f1      	b.n	8004cd4 <_svfiprintf_r+0x194>
 8004cf0:	aa07      	add	r2, sp, #28
 8004cf2:	9200      	str	r2, [sp, #0]
 8004cf4:	0021      	movs	r1, r4
 8004cf6:	003a      	movs	r2, r7
 8004cf8:	4b0f      	ldr	r3, [pc, #60]	@ (8004d38 <_svfiprintf_r+0x1f8>)
 8004cfa:	9803      	ldr	r0, [sp, #12]
 8004cfc:	e000      	b.n	8004d00 <_svfiprintf_r+0x1c0>
 8004cfe:	bf00      	nop
 8004d00:	9004      	str	r0, [sp, #16]
 8004d02:	9b04      	ldr	r3, [sp, #16]
 8004d04:	3301      	adds	r3, #1
 8004d06:	d1d6      	bne.n	8004cb6 <_svfiprintf_r+0x176>
 8004d08:	89bb      	ldrh	r3, [r7, #12]
 8004d0a:	980d      	ldr	r0, [sp, #52]	@ 0x34
 8004d0c:	065b      	lsls	r3, r3, #25
 8004d0e:	d500      	bpl.n	8004d12 <_svfiprintf_r+0x1d2>
 8004d10:	e72c      	b.n	8004b6c <_svfiprintf_r+0x2c>
 8004d12:	b021      	add	sp, #132	@ 0x84
 8004d14:	bdf0      	pop	{r4, r5, r6, r7, pc}
 8004d16:	aa07      	add	r2, sp, #28
 8004d18:	9200      	str	r2, [sp, #0]
 8004d1a:	0021      	movs	r1, r4
 8004d1c:	003a      	movs	r2, r7
 8004d1e:	4b06      	ldr	r3, [pc, #24]	@ (8004d38 <_svfiprintf_r+0x1f8>)
 8004d20:	9803      	ldr	r0, [sp, #12]
 8004d22:	f000 f91d 	bl	8004f60 <_printf_i>
 8004d26:	e7eb      	b.n	8004d00 <_svfiprintf_r+0x1c0>
 8004d28:	08005bbe 	.word	0x08005bbe
 8004d2c:	08005bc4 	.word	0x08005bc4
 8004d30:	08005bc8 	.word	0x08005bc8
 8004d34:	00000000 	.word	0x00000000
 8004d38:	08004a81 	.word	0x08004a81

08004d3c <sbrk_aligned>:
 8004d3c:	b570      	push	{r4, r5, r6, lr}
 8004d3e:	4e0f      	ldr	r6, [pc, #60]	@ (8004d7c <sbrk_aligned+0x40>)
 8004d40:	000d      	movs	r5, r1
 8004d42:	6831      	ldr	r1, [r6, #0]
 8004d44:	0004      	movs	r4, r0
 8004d46:	2900      	cmp	r1, #0
 8004d48:	d102      	bne.n	8004d50 <sbrk_aligned+0x14>
 8004d4a:	f000 fa69 	bl	8005220 <_sbrk_r>
 8004d4e:	6030      	str	r0, [r6, #0]
 8004d50:	0029      	movs	r1, r5
 8004d52:	0020      	movs	r0, r4
 8004d54:	f000 fa64 	bl	8005220 <_sbrk_r>
 8004d58:	1c43      	adds	r3, r0, #1
 8004d5a:	d103      	bne.n	8004d64 <sbrk_aligned+0x28>
 8004d5c:	2501      	movs	r5, #1
 8004d5e:	426d      	negs	r5, r5
 8004d60:	0028      	movs	r0, r5
 8004d62:	bd70      	pop	{r4, r5, r6, pc}
 8004d64:	2303      	movs	r3, #3
 8004d66:	1cc5      	adds	r5, r0, #3
 8004d68:	439d      	bics	r5, r3
 8004d6a:	42a8      	cmp	r0, r5
 8004d6c:	d0f8      	beq.n	8004d60 <sbrk_aligned+0x24>
 8004d6e:	1a29      	subs	r1, r5, r0
 8004d70:	0020      	movs	r0, r4
 8004d72:	f000 fa55 	bl	8005220 <_sbrk_r>
 8004d76:	3001      	adds	r0, #1
 8004d78:	d1f2      	bne.n	8004d60 <sbrk_aligned+0x24>
 8004d7a:	e7ef      	b.n	8004d5c <sbrk_aligned+0x20>
 8004d7c:	20000960 	.word	0x20000960

08004d80 <_malloc_r>:
 8004d80:	b5f7      	push	{r0, r1, r2, r4, r5, r6, r7, lr}
 8004d82:	2203      	movs	r2, #3
 8004d84:	1ccb      	adds	r3, r1, #3
 8004d86:	4393      	bics	r3, r2
 8004d88:	3308      	adds	r3, #8
 8004d8a:	0005      	movs	r5, r0
 8004d8c:	001f      	movs	r7, r3
 8004d8e:	2b0c      	cmp	r3, #12
 8004d90:	d234      	bcs.n	8004dfc <_malloc_r+0x7c>
 8004d92:	270c      	movs	r7, #12
 8004d94:	42b9      	cmp	r1, r7
 8004d96:	d833      	bhi.n	8004e00 <_malloc_r+0x80>
 8004d98:	0028      	movs	r0, r5
 8004d9a:	f000 f9ef 	bl	800517c <__malloc_lock>
 8004d9e:	4e37      	ldr	r6, [pc, #220]	@ (8004e7c <_malloc_r+0xfc>)
 8004da0:	6833      	ldr	r3, [r6, #0]
 8004da2:	001c      	movs	r4, r3
 8004da4:	2c00      	cmp	r4, #0
 8004da6:	d12f      	bne.n	8004e08 <_malloc_r+0x88>
 8004da8:	0039      	movs	r1, r7
 8004daa:	0028      	movs	r0, r5
 8004dac:	f7ff ffc6 	bl	8004d3c <sbrk_aligned>
 8004db0:	0004      	movs	r4, r0
 8004db2:	1c43      	adds	r3, r0, #1
 8004db4:	d15f      	bne.n	8004e76 <_malloc_r+0xf6>
 8004db6:	6834      	ldr	r4, [r6, #0]
 8004db8:	9400      	str	r4, [sp, #0]
 8004dba:	9b00      	ldr	r3, [sp, #0]
 8004dbc:	2b00      	cmp	r3, #0
 8004dbe:	d14a      	bne.n	8004e56 <_malloc_r+0xd6>
 8004dc0:	2c00      	cmp	r4, #0
 8004dc2:	d052      	beq.n	8004e6a <_malloc_r+0xea>
 8004dc4:	6823      	ldr	r3, [r4, #0]
 8004dc6:	0028      	movs	r0, r5
 8004dc8:	18e3      	adds	r3, r4, r3
 8004dca:	9900      	ldr	r1, [sp, #0]
 8004dcc:	9301      	str	r3, [sp, #4]
 8004dce:	f000 fa27 	bl	8005220 <_sbrk_r>
 8004dd2:	9b01      	ldr	r3, [sp, #4]
 8004dd4:	4283      	cmp	r3, r0
 8004dd6:	d148      	bne.n	8004e6a <_malloc_r+0xea>
 8004dd8:	6823      	ldr	r3, [r4, #0]
 8004dda:	0028      	movs	r0, r5
 8004ddc:	1aff      	subs	r7, r7, r3
 8004dde:	0039      	movs	r1, r7
 8004de0:	f7ff ffac 	bl	8004d3c <sbrk_aligned>
 8004de4:	3001      	adds	r0, #1
 8004de6:	d040      	beq.n	8004e6a <_malloc_r+0xea>
 8004de8:	6823      	ldr	r3, [r4, #0]
 8004dea:	19db      	adds	r3, r3, r7
 8004dec:	6023      	str	r3, [r4, #0]
 8004dee:	6833      	ldr	r3, [r6, #0]
 8004df0:	685a      	ldr	r2, [r3, #4]
 8004df2:	2a00      	cmp	r2, #0
 8004df4:	d133      	bne.n	8004e5e <_malloc_r+0xde>
 8004df6:	9b00      	ldr	r3, [sp, #0]
 8004df8:	6033      	str	r3, [r6, #0]
 8004dfa:	e019      	b.n	8004e30 <_malloc_r+0xb0>
 8004dfc:	2b00      	cmp	r3, #0
 8004dfe:	dac9      	bge.n	8004d94 <_malloc_r+0x14>
 8004e00:	230c      	movs	r3, #12
 8004e02:	602b      	str	r3, [r5, #0]
 8004e04:	2000      	movs	r0, #0
 8004e06:	bdfe      	pop	{r1, r2, r3, r4, r5, r6, r7, pc}
 8004e08:	6821      	ldr	r1, [r4, #0]
 8004e0a:	1bc9      	subs	r1, r1, r7
 8004e0c:	d420      	bmi.n	8004e50 <_malloc_r+0xd0>
 8004e0e:	290b      	cmp	r1, #11
 8004e10:	d90a      	bls.n	8004e28 <_malloc_r+0xa8>
 8004e12:	19e2      	adds	r2, r4, r7
 8004e14:	6027      	str	r7, [r4, #0]
 8004e16:	42a3      	cmp	r3, r4
 8004e18:	d104      	bne.n	8004e24 <_malloc_r+0xa4>
 8004e1a:	6032      	str	r2, [r6, #0]
 8004e1c:	6863      	ldr	r3, [r4, #4]
 8004e1e:	6011      	str	r1, [r2, #0]
 8004e20:	6053      	str	r3, [r2, #4]
 8004e22:	e005      	b.n	8004e30 <_malloc_r+0xb0>
 8004e24:	605a      	str	r2, [r3, #4]
 8004e26:	e7f9      	b.n	8004e1c <_malloc_r+0x9c>
 8004e28:	6862      	ldr	r2, [r4, #4]
 8004e2a:	42a3      	cmp	r3, r4
 8004e2c:	d10e      	bne.n	8004e4c <_malloc_r+0xcc>
 8004e2e:	6032      	str	r2, [r6, #0]
 8004e30:	0028      	movs	r0, r5
 8004e32:	f000 f9ab 	bl	800518c <__malloc_unlock>
 8004e36:	0020      	movs	r0, r4
 8004e38:	2207      	movs	r2, #7
 8004e3a:	300b      	adds	r0, #11
 8004e3c:	1d23      	adds	r3, r4, #4
 8004e3e:	4390      	bics	r0, r2
 8004e40:	1ac2      	subs	r2, r0, r3
 8004e42:	4298      	cmp	r0, r3
 8004e44:	d0df      	beq.n	8004e06 <_malloc_r+0x86>
 8004e46:	1a1b      	subs	r3, r3, r0
 8004e48:	50a3      	str	r3, [r4, r2]
 8004e4a:	e7dc      	b.n	8004e06 <_malloc_r+0x86>
 8004e4c:	605a      	str	r2, [r3, #4]
 8004e4e:	e7ef      	b.n	8004e30 <_malloc_r+0xb0>
 8004e50:	0023      	movs	r3, r4
 8004e52:	6864      	ldr	r4, [r4, #4]
 8004e54:	e7a6      	b.n	8004da4 <_malloc_r+0x24>
 8004e56:	9c00      	ldr	r4, [sp, #0]
 8004e58:	6863      	ldr	r3, [r4, #4]
 8004e5a:	9300      	str	r3, [sp, #0]
 8004e5c:	e7ad      	b.n	8004dba <_malloc_r+0x3a>
 8004e5e:	001a      	movs	r2, r3
 8004e60:	685b      	ldr	r3, [r3, #4]
 8004e62:	42a3      	cmp	r3, r4
 8004e64:	d1fb      	bne.n	8004e5e <_malloc_r+0xde>
 8004e66:	2300      	movs	r3, #0
 8004e68:	e7da      	b.n	8004e20 <_malloc_r+0xa0>
 8004e6a:	230c      	movs	r3, #12
 8004e6c:	0028      	movs	r0, r5
 8004e6e:	602b      	str	r3, [r5, #0]
 8004e70:	f000 f98c 	bl	800518c <__malloc_unlock>
 8004e74:	e7c6      	b.n	8004e04 <_malloc_r+0x84>
 8004e76:	6007      	str	r7, [r0, #0]
 8004e78:	e7da      	b.n	8004e30 <_malloc_r+0xb0>
 8004e7a:	46c0      	nop			@ (mov r8, r8)
 8004e7c:	20000964 	.word	0x20000964

08004e80 <_printf_common>:
 8004e80:	b5f7      	push	{r0, r1, r2, r4, r5, r6, r7, lr}
 8004e82:	0016      	movs	r6, r2
 8004e84:	9301      	str	r3, [sp, #4]
 8004e86:	688a      	ldr	r2, [r1, #8]
 8004e88:	690b      	ldr	r3, [r1, #16]
 8004e8a:	000c      	movs	r4, r1
 8004e8c:	9000      	str	r0, [sp, #0]
 8004e8e:	4293      	cmp	r3, r2
 8004e90:	da00      	bge.n	8004e94 <_printf_common+0x14>
 8004e92:	0013      	movs	r3, r2
 8004e94:	0022      	movs	r2, r4
 8004e96:	6033      	str	r3, [r6, #0]
 8004e98:	3243      	adds	r2, #67	@ 0x43
 8004e9a:	7812      	ldrb	r2, [r2, #0]
 8004e9c:	2a00      	cmp	r2, #0
 8004e9e:	d001      	beq.n	8004ea4 <_printf_common+0x24>
 8004ea0:	3301      	adds	r3, #1
 8004ea2:	6033      	str	r3, [r6, #0]
 8004ea4:	6823      	ldr	r3, [r4, #0]
 8004ea6:	069b      	lsls	r3, r3, #26
 8004ea8:	d502      	bpl.n	8004eb0 <_printf_common+0x30>
 8004eaa:	6833      	ldr	r3, [r6, #0]
 8004eac:	3302      	adds	r3, #2
 8004eae:	6033      	str	r3, [r6, #0]
 8004eb0:	6822      	ldr	r2, [r4, #0]
 8004eb2:	2306      	movs	r3, #6
 8004eb4:	0015      	movs	r5, r2
 8004eb6:	401d      	ands	r5, r3
 8004eb8:	421a      	tst	r2, r3
 8004eba:	d027      	beq.n	8004f0c <_printf_common+0x8c>
 8004ebc:	0023      	movs	r3, r4
 8004ebe:	3343      	adds	r3, #67	@ 0x43
 8004ec0:	781b      	ldrb	r3, [r3, #0]
 8004ec2:	1e5a      	subs	r2, r3, #1
 8004ec4:	4193      	sbcs	r3, r2
 8004ec6:	6822      	ldr	r2, [r4, #0]
 8004ec8:	0692      	lsls	r2, r2, #26
 8004eca:	d430      	bmi.n	8004f2e <_printf_common+0xae>
 8004ecc:	0022      	movs	r2, r4
 8004ece:	9901      	ldr	r1, [sp, #4]
 8004ed0:	9800      	ldr	r0, [sp, #0]
 8004ed2:	9d08      	ldr	r5, [sp, #32]
 8004ed4:	3243      	adds	r2, #67	@ 0x43
 8004ed6:	47a8      	blx	r5
 8004ed8:	3001      	adds	r0, #1
 8004eda:	d025      	beq.n	8004f28 <_printf_common+0xa8>
 8004edc:	2206      	movs	r2, #6
 8004ede:	6823      	ldr	r3, [r4, #0]
 8004ee0:	2500      	movs	r5, #0
 8004ee2:	4013      	ands	r3, r2
 8004ee4:	2b04      	cmp	r3, #4
 8004ee6:	d105      	bne.n	8004ef4 <_printf_common+0x74>
 8004ee8:	6833      	ldr	r3, [r6, #0]
 8004eea:	68e5      	ldr	r5, [r4, #12]
 8004eec:	1aed      	subs	r5, r5, r3
 8004eee:	43eb      	mvns	r3, r5
 8004ef0:	17db      	asrs	r3, r3, #31
 8004ef2:	401d      	ands	r5, r3
 8004ef4:	68a3      	ldr	r3, [r4, #8]
 8004ef6:	6922      	ldr	r2, [r4, #16]
 8004ef8:	4293      	cmp	r3, r2
 8004efa:	dd01      	ble.n	8004f00 <_printf_common+0x80>
 8004efc:	1a9b      	subs	r3, r3, r2
 8004efe:	18ed      	adds	r5, r5, r3
 8004f00:	2600      	movs	r6, #0
 8004f02:	42b5      	cmp	r5, r6
 8004f04:	d120      	bne.n	8004f48 <_printf_common+0xc8>
 8004f06:	2000      	movs	r0, #0
 8004f08:	e010      	b.n	8004f2c <_printf_common+0xac>
 8004f0a:	3501      	adds	r5, #1
 8004f0c:	68e3      	ldr	r3, [r4, #12]
 8004f0e:	6832      	ldr	r2, [r6, #0]
 8004f10:	1a9b      	subs	r3, r3, r2
 8004f12:	42ab      	cmp	r3, r5
 8004f14:	ddd2      	ble.n	8004ebc <_printf_common+0x3c>
 8004f16:	0022      	movs	r2, r4
 8004f18:	2301      	movs	r3, #1
 8004f1a:	9901      	ldr	r1, [sp, #4]
 8004f1c:	9800      	ldr	r0, [sp, #0]
 8004f1e:	9f08      	ldr	r7, [sp, #32]
 8004f20:	3219      	adds	r2, #25
 8004f22:	47b8      	blx	r7
 8004f24:	3001      	adds	r0, #1
 8004f26:	d1f0      	bne.n	8004f0a <_printf_common+0x8a>
 8004f28:	2001      	movs	r0, #1
 8004f2a:	4240      	negs	r0, r0
 8004f2c:	bdfe      	pop	{r1, r2, r3, r4, r5, r6, r7, pc}
 8004f2e:	2030      	movs	r0, #48	@ 0x30
 8004f30:	18e1      	adds	r1, r4, r3
 8004f32:	3143      	adds	r1, #67	@ 0x43
 8004f34:	7008      	strb	r0, [r1, #0]
 8004f36:	0021      	movs	r1, r4
 8004f38:	1c5a      	adds	r2, r3, #1
 8004f3a:	3145      	adds	r1, #69	@ 0x45
 8004f3c:	7809      	ldrb	r1, [r1, #0]
 8004f3e:	18a2      	adds	r2, r4, r2
 8004f40:	3243      	adds	r2, #67	@ 0x43
 8004f42:	3302      	adds	r3, #2
 8004f44:	7011      	strb	r1, [r2, #0]
 8004f46:	e7c1      	b.n	8004ecc <_printf_common+0x4c>
 8004f48:	0022      	movs	r2, r4
 8004f4a:	2301      	movs	r3, #1
 8004f4c:	9901      	ldr	r1, [sp, #4]
 8004f4e:	9800      	ldr	r0, [sp, #0]
 8004f50:	9f08      	ldr	r7, [sp, #32]
 8004f52:	321a      	adds	r2, #26
 8004f54:	47b8      	blx	r7
 8004f56:	3001      	adds	r0, #1
 8004f58:	d0e6      	beq.n	8004f28 <_printf_common+0xa8>
 8004f5a:	3601      	adds	r6, #1
 8004f5c:	e7d1      	b.n	8004f02 <_printf_common+0x82>
	...

08004f60 <_printf_i>:
 8004f60:	b5f0      	push	{r4, r5, r6, r7, lr}
 8004f62:	b08b      	sub	sp, #44	@ 0x2c
 8004f64:	9206      	str	r2, [sp, #24]
 8004f66:	000a      	movs	r2, r1
 8004f68:	3243      	adds	r2, #67	@ 0x43
 8004f6a:	9307      	str	r3, [sp, #28]
 8004f6c:	9005      	str	r0, [sp, #20]
 8004f6e:	9203      	str	r2, [sp, #12]
 8004f70:	7e0a      	ldrb	r2, [r1, #24]
 8004f72:	000c      	movs	r4, r1
 8004f74:	9b10      	ldr	r3, [sp, #64]	@ 0x40
 8004f76:	2a78      	cmp	r2, #120	@ 0x78
 8004f78:	d809      	bhi.n	8004f8e <_printf_i+0x2e>
 8004f7a:	2a62      	cmp	r2, #98	@ 0x62
 8004f7c:	d80b      	bhi.n	8004f96 <_printf_i+0x36>
 8004f7e:	2a00      	cmp	r2, #0
 8004f80:	d100      	bne.n	8004f84 <_printf_i+0x24>
 8004f82:	e0bc      	b.n	80050fe <_printf_i+0x19e>
 8004f84:	497b      	ldr	r1, [pc, #492]	@ (8005174 <_printf_i+0x214>)
 8004f86:	9104      	str	r1, [sp, #16]
 8004f88:	2a58      	cmp	r2, #88	@ 0x58
 8004f8a:	d100      	bne.n	8004f8e <_printf_i+0x2e>
 8004f8c:	e090      	b.n	80050b0 <_printf_i+0x150>
 8004f8e:	0025      	movs	r5, r4
 8004f90:	3542      	adds	r5, #66	@ 0x42
 8004f92:	702a      	strb	r2, [r5, #0]
 8004f94:	e022      	b.n	8004fdc <_printf_i+0x7c>
 8004f96:	0010      	movs	r0, r2
 8004f98:	3863      	subs	r0, #99	@ 0x63
 8004f9a:	2815      	cmp	r0, #21
 8004f9c:	d8f7      	bhi.n	8004f8e <_printf_i+0x2e>
 8004f9e:	f7fb f8bd 	bl	800011c <__gnu_thumb1_case_shi>
 8004fa2:	0016      	.short	0x0016
 8004fa4:	fff6001f 	.word	0xfff6001f
 8004fa8:	fff6fff6 	.word	0xfff6fff6
 8004fac:	001ffff6 	.word	0x001ffff6
 8004fb0:	fff6fff6 	.word	0xfff6fff6
 8004fb4:	fff6fff6 	.word	0xfff6fff6
 8004fb8:	003600a1 	.word	0x003600a1
 8004fbc:	fff60080 	.word	0xfff60080
 8004fc0:	00b2fff6 	.word	0x00b2fff6
 8004fc4:	0036fff6 	.word	0x0036fff6
 8004fc8:	fff6fff6 	.word	0xfff6fff6
 8004fcc:	0084      	.short	0x0084
 8004fce:	0025      	movs	r5, r4
 8004fd0:	681a      	ldr	r2, [r3, #0]
 8004fd2:	3542      	adds	r5, #66	@ 0x42
 8004fd4:	1d11      	adds	r1, r2, #4
 8004fd6:	6019      	str	r1, [r3, #0]
 8004fd8:	6813      	ldr	r3, [r2, #0]
 8004fda:	702b      	strb	r3, [r5, #0]
 8004fdc:	2301      	movs	r3, #1
 8004fde:	e0a0      	b.n	8005122 <_printf_i+0x1c2>
 8004fe0:	6818      	ldr	r0, [r3, #0]
 8004fe2:	6809      	ldr	r1, [r1, #0]
 8004fe4:	1d02      	adds	r2, r0, #4
 8004fe6:	060d      	lsls	r5, r1, #24
 8004fe8:	d50b      	bpl.n	8005002 <_printf_i+0xa2>
 8004fea:	6806      	ldr	r6, [r0, #0]
 8004fec:	601a      	str	r2, [r3, #0]
 8004fee:	2e00      	cmp	r6, #0
 8004ff0:	da03      	bge.n	8004ffa <_printf_i+0x9a>
 8004ff2:	232d      	movs	r3, #45	@ 0x2d
 8004ff4:	9a03      	ldr	r2, [sp, #12]
 8004ff6:	4276      	negs	r6, r6
 8004ff8:	7013      	strb	r3, [r2, #0]
 8004ffa:	4b5e      	ldr	r3, [pc, #376]	@ (8005174 <_printf_i+0x214>)
 8004ffc:	270a      	movs	r7, #10
 8004ffe:	9304      	str	r3, [sp, #16]
 8005000:	e018      	b.n	8005034 <_printf_i+0xd4>
 8005002:	6806      	ldr	r6, [r0, #0]
 8005004:	601a      	str	r2, [r3, #0]
 8005006:	0649      	lsls	r1, r1, #25
 8005008:	d5f1      	bpl.n	8004fee <_printf_i+0x8e>
 800500a:	b236      	sxth	r6, r6
 800500c:	e7ef      	b.n	8004fee <_printf_i+0x8e>
 800500e:	6808      	ldr	r0, [r1, #0]
 8005010:	6819      	ldr	r1, [r3, #0]
 8005012:	c940      	ldmia	r1!, {r6}
 8005014:	0605      	lsls	r5, r0, #24
 8005016:	d402      	bmi.n	800501e <_printf_i+0xbe>
 8005018:	0640      	lsls	r0, r0, #25
 800501a:	d500      	bpl.n	800501e <_printf_i+0xbe>
 800501c:	b2b6      	uxth	r6, r6
 800501e:	6019      	str	r1, [r3, #0]
 8005020:	4b54      	ldr	r3, [pc, #336]	@ (8005174 <_printf_i+0x214>)
 8005022:	270a      	movs	r7, #10
 8005024:	9304      	str	r3, [sp, #16]
 8005026:	2a6f      	cmp	r2, #111	@ 0x6f
 8005028:	d100      	bne.n	800502c <_printf_i+0xcc>
 800502a:	3f02      	subs	r7, #2
 800502c:	0023      	movs	r3, r4
 800502e:	2200      	movs	r2, #0
 8005030:	3343      	adds	r3, #67	@ 0x43
 8005032:	701a      	strb	r2, [r3, #0]
 8005034:	6863      	ldr	r3, [r4, #4]
 8005036:	60a3      	str	r3, [r4, #8]
 8005038:	2b00      	cmp	r3, #0
 800503a:	db03      	blt.n	8005044 <_printf_i+0xe4>
 800503c:	2104      	movs	r1, #4
 800503e:	6822      	ldr	r2, [r4, #0]
 8005040:	438a      	bics	r2, r1
 8005042:	6022      	str	r2, [r4, #0]
 8005044:	2e00      	cmp	r6, #0
 8005046:	d102      	bne.n	800504e <_printf_i+0xee>
 8005048:	9d03      	ldr	r5, [sp, #12]
 800504a:	2b00      	cmp	r3, #0
 800504c:	d00c      	beq.n	8005068 <_printf_i+0x108>
 800504e:	9d03      	ldr	r5, [sp, #12]
 8005050:	0030      	movs	r0, r6
 8005052:	0039      	movs	r1, r7
 8005054:	f7fb f8f2 	bl	800023c <__aeabi_uidivmod>
 8005058:	9b04      	ldr	r3, [sp, #16]
 800505a:	3d01      	subs	r5, #1
 800505c:	5c5b      	ldrb	r3, [r3, r1]
 800505e:	702b      	strb	r3, [r5, #0]
 8005060:	0033      	movs	r3, r6
 8005062:	0006      	movs	r6, r0
 8005064:	429f      	cmp	r7, r3
 8005066:	d9f3      	bls.n	8005050 <_printf_i+0xf0>
 8005068:	2f08      	cmp	r7, #8
 800506a:	d109      	bne.n	8005080 <_printf_i+0x120>
 800506c:	6823      	ldr	r3, [r4, #0]
 800506e:	07db      	lsls	r3, r3, #31
 8005070:	d506      	bpl.n	8005080 <_printf_i+0x120>
 8005072:	6862      	ldr	r2, [r4, #4]
 8005074:	6923      	ldr	r3, [r4, #16]
 8005076:	429a      	cmp	r2, r3
 8005078:	dc02      	bgt.n	8005080 <_printf_i+0x120>
 800507a:	2330      	movs	r3, #48	@ 0x30
 800507c:	3d01      	subs	r5, #1
 800507e:	702b      	strb	r3, [r5, #0]
 8005080:	9b03      	ldr	r3, [sp, #12]
 8005082:	1b5b      	subs	r3, r3, r5
 8005084:	6123      	str	r3, [r4, #16]
 8005086:	9b07      	ldr	r3, [sp, #28]
 8005088:	0021      	movs	r1, r4
 800508a:	9300      	str	r3, [sp, #0]
 800508c:	9805      	ldr	r0, [sp, #20]
 800508e:	9b06      	ldr	r3, [sp, #24]
 8005090:	aa09      	add	r2, sp, #36	@ 0x24
 8005092:	f7ff fef5 	bl	8004e80 <_printf_common>
 8005096:	3001      	adds	r0, #1
 8005098:	d148      	bne.n	800512c <_printf_i+0x1cc>
 800509a:	2001      	movs	r0, #1
 800509c:	4240      	negs	r0, r0
 800509e:	b00b      	add	sp, #44	@ 0x2c
 80050a0:	bdf0      	pop	{r4, r5, r6, r7, pc}
 80050a2:	2220      	movs	r2, #32
 80050a4:	6809      	ldr	r1, [r1, #0]
 80050a6:	430a      	orrs	r2, r1
 80050a8:	6022      	str	r2, [r4, #0]
 80050aa:	2278      	movs	r2, #120	@ 0x78
 80050ac:	4932      	ldr	r1, [pc, #200]	@ (8005178 <_printf_i+0x218>)
 80050ae:	9104      	str	r1, [sp, #16]
 80050b0:	0021      	movs	r1, r4
 80050b2:	3145      	adds	r1, #69	@ 0x45
 80050b4:	700a      	strb	r2, [r1, #0]
 80050b6:	6819      	ldr	r1, [r3, #0]
 80050b8:	6822      	ldr	r2, [r4, #0]
 80050ba:	c940      	ldmia	r1!, {r6}
 80050bc:	0610      	lsls	r0, r2, #24
 80050be:	d402      	bmi.n	80050c6 <_printf_i+0x166>
 80050c0:	0650      	lsls	r0, r2, #25
 80050c2:	d500      	bpl.n	80050c6 <_printf_i+0x166>
 80050c4:	b2b6      	uxth	r6, r6
 80050c6:	6019      	str	r1, [r3, #0]
 80050c8:	07d3      	lsls	r3, r2, #31
 80050ca:	d502      	bpl.n	80050d2 <_printf_i+0x172>
 80050cc:	2320      	movs	r3, #32
 80050ce:	4313      	orrs	r3, r2
 80050d0:	6023      	str	r3, [r4, #0]
 80050d2:	2e00      	cmp	r6, #0
 80050d4:	d001      	beq.n	80050da <_printf_i+0x17a>
 80050d6:	2710      	movs	r7, #16
 80050d8:	e7a8      	b.n	800502c <_printf_i+0xcc>
 80050da:	2220      	movs	r2, #32
 80050dc:	6823      	ldr	r3, [r4, #0]
 80050de:	4393      	bics	r3, r2
 80050e0:	6023      	str	r3, [r4, #0]
 80050e2:	e7f8      	b.n	80050d6 <_printf_i+0x176>
 80050e4:	681a      	ldr	r2, [r3, #0]
 80050e6:	680d      	ldr	r5, [r1, #0]
 80050e8:	1d10      	adds	r0, r2, #4
 80050ea:	6949      	ldr	r1, [r1, #20]
 80050ec:	6018      	str	r0, [r3, #0]
 80050ee:	6813      	ldr	r3, [r2, #0]
 80050f0:	062e      	lsls	r6, r5, #24
 80050f2:	d501      	bpl.n	80050f8 <_printf_i+0x198>
 80050f4:	6019      	str	r1, [r3, #0]
 80050f6:	e002      	b.n	80050fe <_printf_i+0x19e>
 80050f8:	066d      	lsls	r5, r5, #25
 80050fa:	d5fb      	bpl.n	80050f4 <_printf_i+0x194>
 80050fc:	8019      	strh	r1, [r3, #0]
 80050fe:	2300      	movs	r3, #0
 8005100:	9d03      	ldr	r5, [sp, #12]
 8005102:	6123      	str	r3, [r4, #16]
 8005104:	e7bf      	b.n	8005086 <_printf_i+0x126>
 8005106:	681a      	ldr	r2, [r3, #0]
 8005108:	1d11      	adds	r1, r2, #4
 800510a:	6019      	str	r1, [r3, #0]
 800510c:	6815      	ldr	r5, [r2, #0]
 800510e:	2100      	movs	r1, #0
 8005110:	0028      	movs	r0, r5
 8005112:	6862      	ldr	r2, [r4, #4]
 8005114:	f000 f896 	bl	8005244 <memchr>
 8005118:	2800      	cmp	r0, #0
 800511a:	d001      	beq.n	8005120 <_printf_i+0x1c0>
 800511c:	1b40      	subs	r0, r0, r5
 800511e:	6060      	str	r0, [r4, #4]
 8005120:	6863      	ldr	r3, [r4, #4]
 8005122:	6123      	str	r3, [r4, #16]
 8005124:	2300      	movs	r3, #0
 8005126:	9a03      	ldr	r2, [sp, #12]
 8005128:	7013      	strb	r3, [r2, #0]
 800512a:	e7ac      	b.n	8005086 <_printf_i+0x126>
 800512c:	002a      	movs	r2, r5
 800512e:	6923      	ldr	r3, [r4, #16]
 8005130:	9906      	ldr	r1, [sp, #24]
 8005132:	9805      	ldr	r0, [sp, #20]
 8005134:	9d07      	ldr	r5, [sp, #28]
 8005136:	47a8      	blx	r5
 8005138:	3001      	adds	r0, #1
 800513a:	d0ae      	beq.n	800509a <_printf_i+0x13a>
 800513c:	6823      	ldr	r3, [r4, #0]
 800513e:	079b      	lsls	r3, r3, #30
 8005140:	d415      	bmi.n	800516e <_printf_i+0x20e>
 8005142:	9b09      	ldr	r3, [sp, #36]	@ 0x24
 8005144:	68e0      	ldr	r0, [r4, #12]
 8005146:	4298      	cmp	r0, r3
 8005148:	daa9      	bge.n	800509e <_printf_i+0x13e>
 800514a:	0018      	movs	r0, r3
 800514c:	e7a7      	b.n	800509e <_printf_i+0x13e>
 800514e:	0022      	movs	r2, r4
 8005150:	2301      	movs	r3, #1
 8005152:	9906      	ldr	r1, [sp, #24]
 8005154:	9805      	ldr	r0, [sp, #20]
 8005156:	9e07      	ldr	r6, [sp, #28]
 8005158:	3219      	adds	r2, #25
 800515a:	47b0      	blx	r6
 800515c:	3001      	adds	r0, #1
 800515e:	d09c      	beq.n	800509a <_printf_i+0x13a>
 8005160:	3501      	adds	r5, #1
 8005162:	68e3      	ldr	r3, [r4, #12]
 8005164:	9a09      	ldr	r2, [sp, #36]	@ 0x24
 8005166:	1a9b      	subs	r3, r3, r2
 8005168:	42ab      	cmp	r3, r5
 800516a:	dcf0      	bgt.n	800514e <_printf_i+0x1ee>
 800516c:	e7e9      	b.n	8005142 <_printf_i+0x1e2>
 800516e:	2500      	movs	r5, #0
 8005170:	e7f7      	b.n	8005162 <_printf_i+0x202>
 8005172:	46c0      	nop			@ (mov r8, r8)
 8005174:	08005bcf 	.word	0x08005bcf
 8005178:	08005be0 	.word	0x08005be0

0800517c <__malloc_lock>:
 800517c:	b510      	push	{r4, lr}
 800517e:	4802      	ldr	r0, [pc, #8]	@ (8005188 <__malloc_lock+0xc>)
 8005180:	f7ff fc72 	bl	8004a68 <__retarget_lock_acquire_recursive>
 8005184:	bd10      	pop	{r4, pc}
 8005186:	46c0      	nop			@ (mov r8, r8)
 8005188:	2000095c 	.word	0x2000095c

0800518c <__malloc_unlock>:
 800518c:	b510      	push	{r4, lr}
 800518e:	4802      	ldr	r0, [pc, #8]	@ (8005198 <__malloc_unlock+0xc>)
 8005190:	f7ff fc6b 	bl	8004a6a <__retarget_lock_release_recursive>
 8005194:	bd10      	pop	{r4, pc}
 8005196:	46c0      	nop			@ (mov r8, r8)
 8005198:	2000095c 	.word	0x2000095c

0800519c <_realloc_r>:
 800519c:	b5f7      	push	{r0, r1, r2, r4, r5, r6, r7, lr}
 800519e:	0006      	movs	r6, r0
 80051a0:	000c      	movs	r4, r1
 80051a2:	0015      	movs	r5, r2
 80051a4:	2900      	cmp	r1, #0
 80051a6:	d105      	bne.n	80051b4 <_realloc_r+0x18>
 80051a8:	0011      	movs	r1, r2
 80051aa:	f7ff fde9 	bl	8004d80 <_malloc_r>
 80051ae:	0004      	movs	r4, r0
 80051b0:	0020      	movs	r0, r4
 80051b2:	bdfe      	pop	{r1, r2, r3, r4, r5, r6, r7, pc}
 80051b4:	2a00      	cmp	r2, #0
 80051b6:	d103      	bne.n	80051c0 <_realloc_r+0x24>
 80051b8:	f000 f850 	bl	800525c <_free_r>
 80051bc:	2400      	movs	r4, #0
 80051be:	e7f7      	b.n	80051b0 <_realloc_r+0x14>
 80051c0:	f000 f896 	bl	80052f0 <_malloc_usable_size_r>
 80051c4:	0007      	movs	r7, r0
 80051c6:	4285      	cmp	r5, r0
 80051c8:	d802      	bhi.n	80051d0 <_realloc_r+0x34>
 80051ca:	0843      	lsrs	r3, r0, #1
 80051cc:	42ab      	cmp	r3, r5
 80051ce:	d3ef      	bcc.n	80051b0 <_realloc_r+0x14>
 80051d0:	0029      	movs	r1, r5
 80051d2:	0030      	movs	r0, r6
 80051d4:	f7ff fdd4 	bl	8004d80 <_malloc_r>
 80051d8:	9001      	str	r0, [sp, #4]
 80051da:	2800      	cmp	r0, #0
 80051dc:	d0ee      	beq.n	80051bc <_realloc_r+0x20>
 80051de:	002a      	movs	r2, r5
 80051e0:	42bd      	cmp	r5, r7
 80051e2:	d900      	bls.n	80051e6 <_realloc_r+0x4a>
 80051e4:	003a      	movs	r2, r7
 80051e6:	0021      	movs	r1, r4
 80051e8:	9801      	ldr	r0, [sp, #4]
 80051ea:	f7ff fc3f 	bl	8004a6c <memcpy>
 80051ee:	0021      	movs	r1, r4
 80051f0:	0030      	movs	r0, r6
 80051f2:	f000 f833 	bl	800525c <_free_r>
 80051f6:	9c01      	ldr	r4, [sp, #4]
 80051f8:	e7da      	b.n	80051b0 <_realloc_r+0x14>

080051fa <memmove>:
 80051fa:	b510      	push	{r4, lr}
 80051fc:	4288      	cmp	r0, r1
 80051fe:	d806      	bhi.n	800520e <memmove+0x14>
 8005200:	2300      	movs	r3, #0
 8005202:	429a      	cmp	r2, r3
 8005204:	d008      	beq.n	8005218 <memmove+0x1e>
 8005206:	5ccc      	ldrb	r4, [r1, r3]
 8005208:	54c4      	strb	r4, [r0, r3]
 800520a:	3301      	adds	r3, #1
 800520c:	e7f9      	b.n	8005202 <memmove+0x8>
 800520e:	188b      	adds	r3, r1, r2
 8005210:	4298      	cmp	r0, r3
 8005212:	d2f5      	bcs.n	8005200 <memmove+0x6>
 8005214:	3a01      	subs	r2, #1
 8005216:	d200      	bcs.n	800521a <memmove+0x20>
 8005218:	bd10      	pop	{r4, pc}
 800521a:	5c8b      	ldrb	r3, [r1, r2]
 800521c:	5483      	strb	r3, [r0, r2]
 800521e:	e7f9      	b.n	8005214 <memmove+0x1a>

08005220 <_sbrk_r>:
 8005220:	2300      	movs	r3, #0
 8005222:	b570      	push	{r4, r5, r6, lr}
 8005224:	4d06      	ldr	r5, [pc, #24]	@ (8005240 <_sbrk_r+0x20>)
 8005226:	0004      	movs	r4, r0
 8005228:	0008      	movs	r0, r1
 800522a:	602b      	str	r3, [r5, #0]
 800522c:	f7fb fffc 	bl	8001228 <_sbrk>
 8005230:	1c43      	adds	r3, r0, #1
 8005232:	d103      	bne.n	800523c <_sbrk_r+0x1c>
 8005234:	682b      	ldr	r3, [r5, #0]
 8005236:	2b00      	cmp	r3, #0
 8005238:	d000      	beq.n	800523c <_sbrk_r+0x1c>
 800523a:	6023      	str	r3, [r4, #0]
 800523c:	bd70      	pop	{r4, r5, r6, pc}
 800523e:	46c0      	nop			@ (mov r8, r8)
 8005240:	20000968 	.word	0x20000968

08005244 <memchr>:
 8005244:	b2c9      	uxtb	r1, r1
 8005246:	1882      	adds	r2, r0, r2
 8005248:	4290      	cmp	r0, r2
 800524a:	d101      	bne.n	8005250 <memchr+0xc>
 800524c:	2000      	movs	r0, #0
 800524e:	4770      	bx	lr
 8005250:	7803      	ldrb	r3, [r0, #0]
 8005252:	428b      	cmp	r3, r1
 8005254:	d0fb      	beq.n	800524e <memchr+0xa>
 8005256:	3001      	adds	r0, #1
 8005258:	e7f6      	b.n	8005248 <memchr+0x4>
	...

0800525c <_free_r>:
 800525c:	b570      	push	{r4, r5, r6, lr}
 800525e:	0005      	movs	r5, r0
 8005260:	1e0c      	subs	r4, r1, #0
 8005262:	d010      	beq.n	8005286 <_free_r+0x2a>
 8005264:	3c04      	subs	r4, #4
 8005266:	6823      	ldr	r3, [r4, #0]
 8005268:	2b00      	cmp	r3, #0
 800526a:	da00      	bge.n	800526e <_free_r+0x12>
 800526c:	18e4      	adds	r4, r4, r3
 800526e:	0028      	movs	r0, r5
 8005270:	f7ff ff84 	bl	800517c <__malloc_lock>
 8005274:	4a1d      	ldr	r2, [pc, #116]	@ (80052ec <_free_r+0x90>)
 8005276:	6813      	ldr	r3, [r2, #0]
 8005278:	2b00      	cmp	r3, #0
 800527a:	d105      	bne.n	8005288 <_free_r+0x2c>
 800527c:	6063      	str	r3, [r4, #4]
 800527e:	6014      	str	r4, [r2, #0]
 8005280:	0028      	movs	r0, r5
 8005282:	f7ff ff83 	bl	800518c <__malloc_unlock>
 8005286:	bd70      	pop	{r4, r5, r6, pc}
 8005288:	42a3      	cmp	r3, r4
 800528a:	d908      	bls.n	800529e <_free_r+0x42>
 800528c:	6820      	ldr	r0, [r4, #0]
 800528e:	1821      	adds	r1, r4, r0
 8005290:	428b      	cmp	r3, r1
 8005292:	d1f3      	bne.n	800527c <_free_r+0x20>
 8005294:	6819      	ldr	r1, [r3, #0]
 8005296:	685b      	ldr	r3, [r3, #4]
 8005298:	1809      	adds	r1, r1, r0
 800529a:	6021      	str	r1, [r4, #0]
 800529c:	e7ee      	b.n	800527c <_free_r+0x20>
 800529e:	001a      	movs	r2, r3
 80052a0:	685b      	ldr	r3, [r3, #4]
 80052a2:	2b00      	cmp	r3, #0
 80052a4:	d001      	beq.n	80052aa <_free_r+0x4e>
 80052a6:	42a3      	cmp	r3, r4
 80052a8:	d9f9      	bls.n	800529e <_free_r+0x42>
 80052aa:	6811      	ldr	r1, [r2, #0]
 80052ac:	1850      	adds	r0, r2, r1
 80052ae:	42a0      	cmp	r0, r4
 80052b0:	d10b      	bne.n	80052ca <_free_r+0x6e>
 80052b2:	6820      	ldr	r0, [r4, #0]
 80052b4:	1809      	adds	r1, r1, r0
 80052b6:	1850      	adds	r0, r2, r1
 80052b8:	6011      	str	r1, [r2, #0]
 80052ba:	4283      	cmp	r3, r0
 80052bc:	d1e0      	bne.n	8005280 <_free_r+0x24>
 80052be:	6818      	ldr	r0, [r3, #0]
 80052c0:	685b      	ldr	r3, [r3, #4]
 80052c2:	1841      	adds	r1, r0, r1
 80052c4:	6011      	str	r1, [r2, #0]
 80052c6:	6053      	str	r3, [r2, #4]
 80052c8:	e7da      	b.n	8005280 <_free_r+0x24>
 80052ca:	42a0      	cmp	r0, r4
 80052cc:	d902      	bls.n	80052d4 <_free_r+0x78>
 80052ce:	230c      	movs	r3, #12
 80052d0:	602b      	str	r3, [r5, #0]
 80052d2:	e7d5      	b.n	8005280 <_free_r+0x24>
 80052d4:	6820      	ldr	r0, [r4, #0]
 80052d6:	1821      	adds	r1, r4, r0
 80052d8:	428b      	cmp	r3, r1
 80052da:	d103      	bne.n	80052e4 <_free_r+0x88>
 80052dc:	6819      	ldr	r1, [r3, #0]
 80052de:	685b      	ldr	r3, [r3, #4]
 80052e0:	1809      	adds	r1, r1, r0
 80052e2:	6021      	str	r1, [r4, #0]
 80052e4:	6063      	str	r3, [r4, #4]
 80052e6:	6054      	str	r4, [r2, #4]
 80052e8:	e7ca      	b.n	8005280 <_free_r+0x24>
 80052ea:	46c0      	nop			@ (mov r8, r8)
 80052ec:	20000964 	.word	0x20000964

080052f0 <_malloc_usable_size_r>:
 80052f0:	1f0b      	subs	r3, r1, #4
 80052f2:	681b      	ldr	r3, [r3, #0]
 80052f4:	1f18      	subs	r0, r3, #4
 80052f6:	2b00      	cmp	r3, #0
 80052f8:	da01      	bge.n	80052fe <_malloc_usable_size_r+0xe>
 80052fa:	580b      	ldr	r3, [r1, r0]
 80052fc:	18c0      	adds	r0, r0, r3
 80052fe:	4770      	bx	lr

08005300 <_init>:
 8005300:	b5f8      	push	{r3, r4, r5, r6, r7, lr}
 8005302:	46c0      	nop			@ (mov r8, r8)
 8005304:	bcf8      	pop	{r3, r4, r5, r6, r7}
 8005306:	bc08      	pop	{r3}
 8005308:	469e      	mov	lr, r3
 800530a:	4770      	bx	lr

0800530c <_fini>:
 800530c:	b5f8      	push	{r3, r4, r5, r6, r7, lr}
 800530e:	46c0      	nop			@ (mov r8, r8)
 8005310:	bcf8      	pop	{r3, r4, r5, r6, r7}
 8005312:	bc08      	pop	{r3}
 8005314:	469e      	mov	lr, r3
 8005316:	4770      	bx	lr
